 cheat

 Timestamp is 65ededbf (Sun Mar 10 17:28:31 2024)

 Preferred load address is 0000000180000000

 Start         Length     Name                   Class
 0001:00000000 000005c0H .text$di                CODE
 0001:000005c0 00157f60H .text$mn                CODE
 0001:00158520 00000040H .text$mn$00             CODE
 0001:00158560 00000be0H .text$mn$21             CODE
 0001:00159140 000063c0H .text$x                 CODE
 0001:0015f500 00000aa0H .text$yd                CODE
 0002:00000000 000008c8H .idata$5                DATA
 0002:000008c8 00000038H .00cfg                  DATA
 0002:00000900 00000008H .CRT$XCA                DATA
 0002:00000908 00000018H .CRT$XCC                DATA
 0002:00000920 00000010H .CRT$XCL                DATA
 0002:00000930 00000110H .CRT$XCU                DATA
 0002:00000a40 00000008H .CRT$XCZ                DATA
 0002:00000a48 00000008H .CRT$XIA                DATA
 0002:00000a50 00000030H .CRT$XIC                DATA
 0002:00000a80 00000008H .CRT$XIZ                DATA
 0002:00000a88 00000008H .CRT$XLA                DATA
 0002:00000a90 00000008H .CRT$XLZ                DATA
 0002:00000a98 00000008H .CRT$XPA                DATA
 0002:00000aa0 00000010H .CRT$XPX                DATA
 0002:00000ab0 00000008H .CRT$XPXA               DATA
 0002:00000ab8 00000008H .CRT$XPZ                DATA
 0002:00000ac0 00000008H .CRT$XTA                DATA
 0002:00000ac8 00000018H .CRT$XTZ                DATA
 0002:00000ad0 00000000H .gehcont$y              DATA
 0002:00000ad0 00000000H .gfids$y                DATA
 0002:00000ad0 00000000H .giats$y                DATA
 0002:00000ae0 0006b000H .rdata                  DATA
 0002:0006bae0 000001a0H .rdata$00               DATA
 0002:0006bc80 00000000H .rdata$CastGuardVftablesA DATA
 0002:0006bc80 00000000H .rdata$CastGuardVftablesC DATA
 0002:0006bc80 00000028H .rdata$T                DATA
 0002:0006bca8 000024e4H .rdata$r                DATA
 0002:0006e18c 00000be8H .rdata$voltmd           DATA
 0002:0006ed74 00000404H .rdata$zzzdbg           DATA
 0002:0006f178 00000008H .rtc$IAA                DATA
 0002:0006f180 00000008H .rtc$IZZ                DATA
 0002:0006f188 00000008H .rtc$TAA                DATA
 0002:0006f190 00000008H .rtc$TZZ                DATA
 0002:0006f198 00000004H .tls                    DATA
 0002:0006f19c 00000004H .tls$                   DATA
 0002:0006f1a0 00000008H .tls$ZZZ                DATA
 0002:0006f1a8 00014898H .xdata                  DATA
 0002:00083a40 00000784H .xdata$x                DATA
 0002:000841c4 00000000H .edata                  DATA
 0002:000841c4 00000140H .idata$2                DATA
 0002:00084304 00000014H .idata$3                DATA
 0002:00084318 000008c8H .idata$4                DATA
 0002:00084be0 00001132H .idata$6                DATA
 0003:00000000 000021a0H .data                   DATA
 0003:000021a0 000003d0H .data$r                 DATA
 0003:00002570 00000d40H .data$rs                DATA
 0003:000032b0 00006bc4H .bss                    DATA
 0004:00000000 0000e040H .pdata                  DATA
 0005:00000000 00002404H _RDATA                  DATA
 0006:00000000 00000060H .rsrc$01                DATA
 0006:00000060 00000188H .rsrc$02                DATA

  Address         Publics by Value              Rva+Base               Lib:Object

 0000:00000000       __AbsoluteZero             0000000000000000     <absolute>
 0000:00000000       ___safe_se_handler_count   0000000000000000     <absolute>
 0000:00000000       ___safe_se_handler_table   0000000000000000     <absolute>
 0000:00000000       __arm64x_extra_rfe_table   0000000000000000     <absolute>
 0000:00000000       __arm64x_extra_rfe_table_size 0000000000000000     <absolute>
 0000:00000000       __arm64x_native_entrypoint 0000000000000000     <absolute>
 0000:00000000       __arm64x_redirection_metadata 0000000000000000     <absolute>
 0000:00000000       __arm64x_redirection_metadata_count 0000000000000000     <absolute>
 0000:00000000       __dynamic_value_reloc_table 0000000000000000     <absolute>
 0000:00000000       __enclave_config           0000000000000000     <absolute>
 0000:00000000       __guard_check_icall_a64n_fptr 0000000000000000     <absolute>
 0000:00000000       __guard_eh_cont_count      0000000000000000     <absolute>
 0000:00000000       __guard_eh_cont_table      0000000000000000     <absolute>
 0000:00000000       __guard_fids_count         0000000000000000     <absolute>
 0000:00000000       __guard_fids_table         0000000000000000     <absolute>
 0000:00000000       __guard_iat_count          0000000000000000     <absolute>
 0000:00000000       __guard_iat_table          0000000000000000     <absolute>
 0000:00000000       __guard_longjmp_count      0000000000000000     <absolute>
 0000:00000000       __guard_longjmp_table      0000000000000000     <absolute>
 0000:00000000       __hybrid_auxiliary_delayload_iat 0000000000000000     <absolute>
 0000:00000000       __hybrid_auxiliary_delayload_iat_copy 0000000000000000     <absolute>
 0000:00000000       __hybrid_auxiliary_iat     0000000000000000     <absolute>
 0000:00000000       __hybrid_auxiliary_iat_copy 0000000000000000     <absolute>
 0000:00000000       __hybrid_code_map          0000000000000000     <absolute>
 0000:00000000       __hybrid_code_map_count    0000000000000000     <absolute>
 0000:00000000       __hybrid_image_info_bitfield 0000000000000000     <absolute>
 0000:00000000       __x64_code_ranges_to_entry_points 0000000000000000     <absolute>
 0000:00000000       __x64_code_ranges_to_entry_points_count 0000000000000000     <absolute>
 0000:00000100       __guard_flags              0000000000000100     <absolute>
 0000:00000000       __ImageBase                0000000180000000     <linker-defined>
 0001:000005c0       ?thread@aimbot@@YAXXZ      00000001800015c0 f   aimbot.obj
 0001:00000a60       ?erase_aim@@YAXU?$pair@_KW4entity_type@@@std@@@Z 0000000180001a60 f   aimbot.obj
 0001:00000b40       ?find_best_target@@YA_NXZ  0000000180001b40 f   aimbot.obj
 0001:00001020       ?normalize@@YAXAEAM0@Z     0000000180002020 f   aimbot.obj
 0001:000010a0       ?normalize@@YAXAEAVVector2@@@Z 00000001800020a0 f   aimbot.obj
 0001:00001120       ?CalcAngle@@YA?AVVector2@@AEBVVector3@@0@Z 0000000180002120 f   aimbot.obj
 0001:00001260       ?smooth_angle@@YAXAEAVVector2@@0@Z 0000000180002260 f   aimbot.obj
 0001:000013c0       ?get_bullet_drop@@YAMMMM@Z 00000001800023c0 f   aimbot.obj
 0001:00001400       ?update_wpn_info@@YAXXZ    0000000180002400 f   aimbot.obj
 0001:000020e0       ?prediction@@YAXAEBVVector3@@PEAVBasePlayer@@I@Z 00000001800030e0 f   aimbot.obj
 0001:000025a0       ?process_aim_data@@YA_NXZ  00000001800035a0 f   aimbot.obj
 0001:00002b20       ??$_Allocate_manually_vector_aligned@U_Default_allocate_traits@std@@@std@@YAPEAX_K@Z 0000000180003b20 f i aimbot.obj
 0001:00002b60       ??$_Construct@$00PEBD@?$basic_string@DU?$char_traits@D@std@@V?$allocator@D@2@@std@@AEAAXQEBD_K@Z 0000000180003b60 f i aimbot.obj
 0001:00002c80       ??$_Try_emplace@K$$V@?$_Hash@V?$_Umap_traits@KUrCache@@V?$_Uhash_compare@KU?$hash@K@std@@U?$equal_to@K@2@@std@@V?$allocator@U?$pair@$$CBKUrCache@@@std@@@3@$0A@@std@@@std@@IEAA?AU?$pair@PEAU?$_List_node@U?$pair@$$CBKUrCache@@@std@@PEAX@std@@_N@1@$$QEAK@Z 0000000180003c80 f i aimbot.obj
 0001:00002fe0       ??$fill@PEAV?$_List_unchecked_iterator@V?$_List_val@U?$_List_simple_types@U?$pair@$$CBKUrCache@@@std@@@std@@@std@@@std@@V12@@std@@YAXQEAV?$_List_unchecked_iterator@V?$_List_val@U?$_List_simple_types@U?$pair@$$CBKUrCache@@@std@@@std@@@std@@@0@0AEBV10@@Z 0000000180003fe0 f i aimbot.obj
 0001:00002fe0       ??$fill@PEAV?$_List_unchecked_iterator@V?$_List_val@U?$_List_simple_types@U?$pair@$$CBKV?$basic_string@DU?$char_traits@D@std@@V?$allocator@D@2@@std@@@std@@@std@@@std@@@std@@V12@@std@@YAXQEAV?$_List_unchecked_iterator@V?$_List_val@U?$_List_simple_types@U?$pair@$$CBKV?$basic_string@DU?$char_traits@D@std@@V?$allocator@D@2@@std@@@std@@@std@@@std@@@0@0AEBV10@@Z 0000000180003fe0 f i object_loop.obj
 0001:00002fe0       ??$fill@PEAV?$_List_unchecked_iterator@V?$_List_val@U?$_List_simple_types@U?$pair@$$CBV?$basic_string@DU?$char_traits@D@std@@V?$allocator@D@2@@std@@I@std@@@std@@@std@@@std@@V12@@std@@YAXQEAV?$_List_unchecked_iterator@V?$_List_val@U?$_List_simple_types@U?$pair@$$CBV?$basic_string@DU?$char_traits@D@std@@V?$allocator@D@2@@std@@I@std@@@std@@@std@@@0@0AEBV10@@Z 0000000180003fe0 f i include.obj
 0001:00002fe0       ??$fill@PEAV?$_List_unchecked_iterator@V?$_List_val@U?$_List_simple_types@U?$pair@$$CBV?$basic_string@DU?$char_traits@D@std@@V?$allocator@D@2@@std@@VVector4@@@std@@@std@@@std@@@std@@V12@@std@@YAXQEAV?$_List_unchecked_iterator@V?$_List_val@U?$_List_simple_types@U?$pair@$$CBV?$basic_string@DU?$char_traits@D@std@@V?$allocator@D@2@@std@@VVector4@@@std@@@std@@@std@@@0@0AEBV10@@Z 0000000180003fe0 f i misc.obj
 0001:00003080       ??$read@M@CSharedMemComms@@QEAAM_K@Z 0000000180004080 f i aimbot.obj
 0001:00003220       ??$read@PEAD@CSharedMemComms@@QEAA_N_KQEAD0@Z 0000000180004220 f i aimbot.obj
 0001:00003220       ??$read@PEAX@CSharedMemComms@@QEAA_N_KQEAX0@Z 0000000180004220 f i unity.obj
 0001:00003220       ??$read@PEA_S@CSharedMemComms@@QEAA_N_KQEA_S0@Z 0000000180004220 f i baseplayer.obj
 0001:000033c0       ??$read@UProjectileWeaponModModifier@@@CSharedMemComms@@QEAA?AUProjectileWeaponModModifier@@_K@Z 00000001800043c0 f i aimbot.obj
 0001:000035a0       ??$read@VVector2@@@CSharedMemComms@@QEAA?AVVector2@@_K@Z 00000001800045a0 f i aimbot.obj
 0001:00003760       ??$read@_K@CSharedMemComms@@QEAA_K_K@Z 0000000180004760 f i aimbot.obj
 0001:00003900       ??$sleep_for@_JU?$ratio@$00$0DOI@@std@@@this_thread@std@@YAXAEBV?$duration@_JU?$ratio@$00$0DOI@@std@@@chrono@1@@Z 0000000180004900 f i aimbot.obj
 0001:00003aa0       ??$sleep_until@Usteady_clock@chrono@std@@V?$duration@_JU?$ratio@$00$0DLJKMKAA@@std@@@23@@this_thread@std@@YAXAEBV?$time_point@Usteady_clock@chrono@std@@V?$duration@_JU?$ratio@$00$0DLJKMKAA@@std@@@23@@chrono@1@@Z 0000000180004aa0 f i aimbot.obj
 0001:00003c20       ??$write@M@CSharedMemComms@@QEAA_N_KM@Z 0000000180004c20 f i aimbot.obj
 0001:00003de0       ??0?$unordered_map@V?$basic_string@DU?$char_traits@D@std@@V?$allocator@D@2@@std@@IU?$hash@V?$basic_string@DU?$char_traits@D@std@@V?$allocator@D@2@@std@@@2@U?$equal_to@V?$basic_string@DU?$char_traits@D@std@@V?$allocator@D@2@@std@@@2@V?$allocator@U?$pair@$$CBV?$basic_string@DU?$char_traits@D@std@@V?$allocator@D@2@@std@@I@std@@@2@@std@@QEAA@XZ 0000000180004de0 f i aimbot.obj
 0001:00003ef0       ??0bad_alloc@std@@QEAA@AEBV01@@Z 0000000180004ef0 f i aimbot.obj
 0001:00003f30       ??0bad_array_new_length@std@@QEAA@AEBV01@@Z 0000000180004f30 f i aimbot.obj
 0001:00003f70       ??0bad_array_new_length@std@@QEAA@XZ 0000000180004f70 f i aimbot.obj
 0001:00003fa0       ??0exception@std@@QEAA@AEBV01@@Z 0000000180004fa0 f i aimbot.obj
 0001:00003fe0       ??1?$_Alloc_construct_ptr@V?$allocator@U?$_List_node@U?$pair@$$CBKUrCache@@@std@@PEAX@std@@@std@@@std@@QEAA@XZ 0000000180004fe0 f i aimbot.obj
 0001:00004000       ??1?$_Hash_vec@V?$allocator@V?$_List_unchecked_const_iterator@V?$_List_val@U?$_List_simple_types@K@std@@@std@@U_Iterator_base0@2@@std@@@std@@@std@@QEAA@XZ 0000000180005000 f i object_loop.obj
 0001:00004000       ??1?$_Hash_vec@V?$allocator@V?$_List_unchecked_iterator@V?$_List_val@U?$_List_simple_types@U?$pair@$$CBKUrCache@@@std@@@std@@@std@@@std@@@std@@@std@@QEAA@XZ 0000000180005000 f i object_loop.obj
 0001:00004000       ??1?$_Hash_vec@V?$allocator@V?$_List_unchecked_iterator@V?$_List_val@U?$_List_simple_types@U?$pair@$$CBKV?$basic_string@DU?$char_traits@D@std@@V?$allocator@D@2@@std@@@std@@@std@@@std@@@std@@@std@@@std@@QEAA@XZ 0000000180005000 f i object_loop.obj
 0001:00004000       ??1?$_Hash_vec@V?$allocator@V?$_List_unchecked_iterator@V?$_List_val@U?$_List_simple_types@U?$pair@$$CBV?$basic_string@DU?$char_traits@D@std@@V?$allocator@D@2@@std@@I@std@@@std@@@std@@@std@@@std@@@std@@QEAA@XZ 0000000180005000 f i aimbot.obj
 0001:00004000       ??1?$_Hash_vec@V?$allocator@V?$_List_unchecked_iterator@V?$_List_val@U?$_List_simple_types@U?$pair@$$CBV?$basic_string@DU?$char_traits@D@std@@V?$allocator@D@2@@std@@VVector4@@@std@@@std@@@std@@@std@@@std@@@std@@QEAA@XZ 0000000180005000 f i misc.obj
 0001:00004000       ??1?$vector@PEAV?$basic_json@Vmap@std@@Vvector@2@V?$basic_string@DU?$char_traits@D@std@@V?$allocator@D@2@@2@_N_J_KNVallocator@2@Uadl_serializer@nlohmann@@V?$vector@EV?$allocator@E@std@@@2@@nlohmann@@V?$allocator@PEAV?$basic_json@Vmap@std@@Vvector@2@V?$basic_string@DU?$char_traits@D@std@@V?$allocator@D@2@@2@_N_J_KNVallocator@2@Uadl_serializer@nlohmann@@V?$vector@EV?$allocator@E@std@@@2@@nlohmann@@@std@@@std@@QEAA@XZ 0000000180005000 f i esp.obj
 0001:00004060       ??1?$_List_node_emplace_op2@V?$allocator@U?$_List_node@U?$pair@$$CBKUrCache@@@std@@PEAX@std@@@std@@@std@@QEAA@XZ 0000000180005060 f i aimbot.obj
 0001:000040b0       ??1?$basic_string@DU?$char_traits@D@std@@V?$allocator@D@2@@std@@QEAA@XZ 00000001800050b0 f i aimbot.obj
 0001:000040b0       ??1?$pair@$$CBV?$basic_string@DU?$char_traits@D@std@@V?$allocator@D@2@@std@@I@std@@QEAA@XZ 00000001800050b0 f i include.obj
 0001:000040b0       ??1?$pair@V?$basic_string@DU?$char_traits@D@std@@V?$allocator@D@2@@std@@VVector4@@@std@@QEAA@XZ 00000001800050b0 f i misc.obj
 0001:000040b0       ??1PlayerItems@@QEAA@XZ    00000001800050b0 f i baseplayer.obj
 0001:000040c0       ??1?$basic_string@FU?$char_traits@F@std@@V?$allocator@F@2@@std@@QEAA@XZ 00000001800050c0 f i baseplayer.obj
 0001:000040c0       ??1?$basic_string@_SU?$char_traits@_S@std@@V?$allocator@_S@2@@std@@QEAA@XZ 00000001800050c0 f i baseplayer.obj
 0001:000040c0       ??1?$basic_string@_WU?$char_traits@_W@std@@V?$allocator@_W@2@@std@@QEAA@XZ 00000001800050c0 f i aimbot.obj
 0001:000040c0       ?_Tidy_deallocate@?$basic_string@_WU?$char_traits@_W@std@@V?$allocator@_W@2@@std@@AEAAXXZ 00000001800050c0 f i esp.obj
 0001:00004140       ??1?$list@U?$pair@$$CBV?$basic_string@DU?$char_traits@D@std@@V?$allocator@D@2@@std@@I@std@@V?$allocator@U?$pair@$$CBV?$basic_string@DU?$char_traits@D@std@@V?$allocator@D@2@@std@@I@std@@@2@@std@@QEAA@XZ 0000000180005140 f i aimbot.obj
 0001:000041b0       ??1?$unique_ptr@$$BY0A@DU?$default_delete@$$BY0A@D@std@@@std@@QEAA@XZ 00000001800051b0 f i aimbot.obj
 0001:000041c0       ??1bad_alloc@std@@UEAA@XZ  00000001800051c0 f i libcpmt:xthrow.obj
 0001:000041c0       ??1bad_array_new_length@std@@UEAA@XZ 00000001800051c0 f i aimbot.obj
 0001:000041c0       ??1bad_cast@std@@UEAA@XZ   00000001800051c0 f i esp.obj
 0001:000041c0       ??1bad_exception@std@@UEAA@XZ 00000001800051c0 f i libvcruntime:frame.obj
 0001:000041c0       ??1bad_function_call@std@@UEAA@XZ 00000001800051c0 f i libcpmt:xthrow.obj
 0001:000041c0       ??1failure@ios_base@std@@UEAA@XZ 00000001800051c0 f i esp.obj
 0001:000041c0       ??1length_error@std@@UEAA@XZ 00000001800051c0 f i libcpmt:xthrow.obj
 0001:000041c0       ??1out_of_range@std@@UEAA@XZ 00000001800051c0 f i libcpmt:xthrow.obj
 0001:000041c0       ??1range_error@std@@UEAA@XZ 00000001800051c0 f i baseplayer.obj
 0001:000041c0       ??1runtime_error@std@@UEAA@XZ 00000001800051c0 f i baseplayer.obj
 0001:000041c0       ??1system_error@std@@UEAA@XZ 00000001800051c0 f i esp.obj
 0001:000041e0       ??4?$basic_string@DU?$char_traits@D@std@@V?$allocator@D@2@@std@@QEAAAEAV01@$$QEAV01@@Z 00000001800051e0 f i aimbot.obj
 0001:00004280       ??_Ebad_alloc@std@@UEAAPEAXI@Z 0000000180005280 f i aimbot.obj
 0001:00004280       ??_Ebad_array_new_length@std@@UEAAPEAXI@Z 0000000180005280 f i aimbot.obj
 0001:00004280       ??_Ebad_cast@std@@UEAAPEAXI@Z 0000000180005280 f i esp.obj
 0001:00004280       ??_Eexception@std@@UEAAPEAXI@Z 0000000180005280 f i aimbot.obj
 0001:00004280       ??_Erange_error@std@@UEAAPEAXI@Z 0000000180005280 f i baseplayer.obj
 0001:00004280       ??_Eruntime_error@std@@UEAAPEAXI@Z 0000000180005280 f i baseplayer.obj
 0001:00004280       ??_Gbad_alloc@std@@UEAAPEAXI@Z 0000000180005280 f i aimbot.obj
 0001:00004280       ??_Gbad_array_new_length@std@@UEAAPEAXI@Z 0000000180005280 f i aimbot.obj
 0001:00004280       ??_Gbad_cast@std@@UEAAPEAXI@Z 0000000180005280 f i esp.obj
 0001:00004280       ??_Gexception@std@@UEAAPEAXI@Z 0000000180005280 f i aimbot.obj
 0001:00004280       ??_Grange_error@std@@UEAAPEAXI@Z 0000000180005280 f i baseplayer.obj
 0001:00004280       ??_Gruntime_error@std@@UEAAPEAXI@Z 0000000180005280 f i baseplayer.obj
 0001:000042e0       ?QuaternionLookRotation@Vector4@@SA?AV1@VVector3@@0@Z 00000001800052e0 f i aimbot.obj
 0001:00004620       ?_Forced_rehash@?$_Hash@V?$_Umap_traits@KUrCache@@V?$_Uhash_compare@KU?$hash@K@std@@U?$equal_to@K@2@@std@@V?$allocator@U?$pair@$$CBKUrCache@@@std@@@3@$0A@@std@@@std@@IEAAX_K@Z 0000000180005620 f i aimbot.obj
 0001:000048e0       ?_Throw_bad_array_new_length@std@@YAXXZ 00000001800058e0 f i aimbot.obj
 0001:000048e0       ?__scrt_throw_std_bad_array_new_length@@YAXXZ 00000001800058e0 f i LIBCMT:throw_bad_alloc.obj
 0001:00004900       ?_Tidy_deallocate@?$basic_string@DU?$char_traits@D@std@@V?$allocator@D@2@@std@@AEAAXXZ 0000000180005900 f i aimbot.obj
 0001:00004980       ?_Xlen_string@std@@YAXXZ   0000000180005980 f i aimbot.obj
 0001:000049a0       ?assign@?$basic_string@DU?$char_traits@D@std@@V?$allocator@D@2@@std@@QEAAAEAV12@QEBD_K@Z 00000001800059a0 f i aimbot.obj
 0001:00004b20       ?now@steady_clock@chrono@std@@SA?AV?$time_point@Usteady_clock@chrono@std@@V?$duration@_JU?$ratio@$00$0DLJKMKAA@@std@@@23@@23@XZ 0000000180005b20 f i aimbot.obj
 0001:00004c00       ?what@exception@std@@UEBAPEBDXZ 0000000180005c00 f i aimbot.obj
 0001:00004c20       ?SetFlag@ModelState@@QEAAXPEAVCSharedMemComms@@W4Flag@1@_N@Z 0000000180005c20 f   baseplayer.obj
 0001:00004ca0       ?HasFlag@ModelState@@QEAA_NPEAVCSharedMemComms@@W4Flag@1@@Z 0000000180005ca0 f   baseplayer.obj
 0001:00004ce0       ?get_swimming@ModelState@@QEAA_NPEAVCSharedMemComms@@@Z 0000000180005ce0 f   baseplayer.obj
 0001:00004d20       ?set_sprinting@ModelState@@QEAAXPEAVCSharedMemComms@@_N@Z 0000000180005d20 f   baseplayer.obj
 0001:00004d80       ?get_ducked@ModelState@@QEAA_NPEAVCSharedMemComms@@@Z 0000000180005d80 f   baseplayer.obj
 0001:00004da0       ?get_sprinting@ModelState@@QEAA_NPEAVCSharedMemComms@@@Z 0000000180005da0 f   baseplayer.obj
 0001:00004de0       ?get_body_rotation@PlayerEyes@@QEAA?AVVector4@@PEAVCSharedMemComms@@@Z 0000000180005de0 f   baseplayer.obj
 0001:00004e20       ?set_body_rotation@PlayerEyes@@QEAAXPEAVCSharedMemComms@@VVector4@@@Z 0000000180005e20 f   baseplayer.obj
 0001:00004e60       ?get_name@BasePlayer@@QEAA?AV?$basic_string@DU?$char_traits@D@std@@V?$allocator@D@2@@std@@PEAVCSharedMemComms@@@Z 0000000180005e60 f   baseplayer.obj
 0001:00005080       ?get_speed@BasePlayer@@QEAAMPEAVCSharedMemComms@@PEAVModelState@@MM@Z 0000000180006080 f   baseplayer.obj
 0001:00005180       ?data@BasePlayer@@QEAAXPEAVCSharedMemComms@@AEAUplayer@@@Z 0000000180006180 f   baseplayer.obj
 0001:000051c0       ?get_health@BasePlayer@@QEAAMPEAVCSharedMemComms@@@Z 00000001800061c0 f   baseplayer.obj
 0001:000051e0       ?get_uid@BasePlayer@@QEAAKPEAVCSharedMemComms@@@Z 00000001800061e0 f   baseplayer.obj
 0001:00005200       ?get_held_item@BasePlayer@@QEAAPEAVItem@@PEAVCSharedMemComms@@@Z 0000000180006200 f   baseplayer.obj
 0001:000052c0       ?get_bone_position@BasePlayer@@QEAA?AVVector3@@PEAVCSharedMemComms@@H_K@Z 00000001800062c0 f   baseplayer.obj
 0001:00005360       ?get_recoil_angles@BasePlayer@@QEAA?AVVector2@@PEAVCSharedMemComms@@@Z 0000000180006360 f   baseplayer.obj
 0001:000053c0       ?get_body_angles@BasePlayer@@QEAA?AVVector2@@PEAVCSharedMemComms@@@Z 00000001800063c0 f   baseplayer.obj
 0001:00005420       ?get_head_angles@BasePlayer@@QEAA?AVVector2@@PEAVCSharedMemComms@@@Z 0000000180006420 f   baseplayer.obj
 0001:00005480       ?get_item_list@BasePlayer@@QEAA?AV?$vector@UPlayerItems@@V?$allocator@UPlayerItems@@@std@@@std@@PEAVCSharedMemComms@@@Z 0000000180006480 f   baseplayer.obj
 0001:00005720       ?set_recoil_angles@BasePlayer@@QEAA_NPEAVCSharedMemComms@@VVector2@@@Z 0000000180006720 f   baseplayer.obj
 0001:00005780       ?set_body_angles@BasePlayer@@QEAA_NPEAVCSharedMemComms@@VVector2@@@Z 0000000180006780 f   baseplayer.obj
 0001:000057e0       ?set_flag@BasePlayer@@QEAA_NPEAVCSharedMemComms@@H@Z 00000001800067e0 f   baseplayer.obj
 0001:00005800       ?is_wounded@BasePlayer@@QEAA_NPEAVCSharedMemComms@@@Z 0000000180006800 f   baseplayer.obj
 0001:00005840       ?is_sleeping@BasePlayer@@QEAA_NPEAVCSharedMemComms@@@Z 0000000180006840 f   baseplayer.obj
 0001:00005880       ?is_teammate@BasePlayer@@QEAA_NPEAVCSharedMemComms@@@Z 0000000180006880 f   baseplayer.obj
 0001:00005ae0       ?omni_sprint@BasePlayer@@QEAAXPEAVCSharedMemComms@@@Z 0000000180006ae0 f   baseplayer.obj
 0001:00005da0       ?get_velocity@BasePlayer@@QEAA?AVVector3@@PEAVCSharedMemComms@@@Z 0000000180006da0 f   baseplayer.obj
 0001:00005e00       ?get_flags@BasePlayer@@QEAA?AW4PlayerFlags@@PEAVCSharedMemComms@@@Z 0000000180006e00 f   baseplayer.obj
 0001:00005e20       ?get_player_eyes@BasePlayer@@QEAAPEAVPlayerEyes@@PEAVCSharedMemComms@@@Z 0000000180006e20 f   baseplayer.obj
 0001:00005fa0       ??$_Codecvt_do_length@V?$codecvt_utf8_utf16@F$0BAPPPP@$0A@@std@@DU_Mbstatet@@@std@@YAHAEBV?$codecvt_utf8_utf16@F$0BAPPPP@$0A@@0@AEAU_Mbstatet@@PEBD2_K@Z 0000000180006fa0 f i baseplayer.obj
 0001:00006260       ??$_Construct@$00PEB_S@?$basic_string@_SU?$char_traits@_S@std@@V?$allocator@_S@2@@std@@AEAAXQEB_S_K@Z 0000000180007260 f i baseplayer.obj
 0001:00006260       ??$_Construct@$00PEB_W@?$basic_string@_WU?$char_traits@_W@std@@V?$allocator@_W@2@@std@@AEAAXQEB_W_K@Z 0000000180007260 f i esp.obj
 0001:000063a0       ??$_Destroy_range@V?$allocator@UPlayerItems@@@std@@@std@@YAXPEAUPlayerItems@@QEAU1@AEAV?$allocator@UPlayerItems@@@0@@Z 00000001800073a0 f i baseplayer.obj
 0001:000063e0       ??$_Emplace_reallocate@AEAUPlayerItems@@@?$vector@UPlayerItems@@V?$allocator@UPlayerItems@@@std@@@std@@AEAAPEAUPlayerItems@@QEAU2@AEAU2@@Z 00000001800073e0 f i baseplayer.obj
 0001:00006680       ??$_Reallocate_grow_by@V<lambda_319d5e083f45f90dcdce5dce53cbb275>@@D@?$basic_string@DU?$char_traits@D@std@@V?$allocator@D@2@@std@@AEAAAEAV01@_KV<lambda_319d5e083f45f90dcdce5dce53cbb275>@@D@Z 0000000180007680 f i baseplayer.obj
 0001:00006800       ??$_Reallocate_grow_by@V<lambda_65e615be2a453ca0576c979606f46740>@@PEBD_K@?$basic_string@DU?$char_traits@D@std@@V?$allocator@D@2@@std@@AEAAAEAV01@_KV<lambda_65e615be2a453ca0576c979606f46740>@@PEBD_K@Z 0000000180007800 f i baseplayer.obj
 0001:000069a0       ??$_Reallocate_grow_by@V<lambda_e1befb086ad3257e3f042a63030725f7>@@_KD@?$basic_string@DU?$char_traits@D@std@@V?$allocator@D@2@@std@@AEAAAEAV01@_KV<lambda_e1befb086ad3257e3f042a63030725f7>@@_KD@Z 00000001800079a0 f i baseplayer.obj
 0001:00006b40       ??$_Uninitialized_move@PEAUPlayerItems@@V?$allocator@UPlayerItems@@@std@@@std@@YAPEAUPlayerItems@@QEAU1@0PEAU1@AEAV?$allocator@UPlayerItems@@@0@@Z 0000000180007b40 f i baseplayer.obj
 0001:00006bc0       ??$get_position_injected@VVector3@@@CSharedMemComms@@QEAA?AVVector3@@_K@Z 0000000180007bc0 f i baseplayer.obj
 0001:00006dc0       ??$read@H@CSharedMemComms@@QEAAH_K@Z 0000000180007dc0 f i baseplayer.obj
 0001:00006dc0       ??$read@I@CSharedMemComms@@QEAAI_K@Z 0000000180007dc0 f i object_loop.obj
 0001:00006dc0       ??$read@K@CSharedMemComms@@QEAAK_K@Z 0000000180007dc0 f i baseplayer.obj
 0001:00006f60       ??$read@Uplayer@@@CSharedMemComms@@QEAA?AUplayer@@_K@Z 0000000180007f60 f i baseplayer.obj
 0001:00007140       ??$read@VVector3@@@CSharedMemComms@@QEAA?AVVector3@@_K@Z 0000000180008140 f i baseplayer.obj
 0001:00007340       ??$read@VVector4@@@CSharedMemComms@@QEAA?AVVector4@@_K@Z 0000000180008340 f i baseplayer.obj
 0001:00007540       ??$write@H@CSharedMemComms@@QEAA_N_KH@Z 0000000180008540 f i baseplayer.obj
 0001:00007700       ??$write@VVector2@@@CSharedMemComms@@QEAA_N_KVVector2@@@Z 0000000180008700 f i baseplayer.obj
 0001:000078c0       ??$write@VVector3@@@CSharedMemComms@@QEAA_N_KVVector3@@@Z 00000001800088c0 f i baseplayer.obj
 0001:00007a80       ??$write@VVector4@@@CSharedMemComms@@QEAA_N_KVVector4@@@Z 0000000180008a80 f i baseplayer.obj
 0001:00007c40       ??0?$basic_string@DU?$char_traits@D@std@@V?$allocator@D@2@@std@@QEAA@AEBV01@@Z 0000000180008c40 f i baseplayer.obj
 0001:00007d60       ??0?$wstring_convert@V?$codecvt_utf8_utf16@F$0BAPPPP@$0A@@std@@FV?$allocator@F@2@V?$allocator@D@2@@std@@QEAA@XZ 0000000180008d60 f i baseplayer.obj
 0001:00008030       ??0range_error@std@@QEAA@AEBV01@@Z 0000000180009030 f i baseplayer.obj
 0001:00008080       ??0range_error@std@@QEAA@PEBD@Z 0000000180009080 f i baseplayer.obj
 0001:000080d0       ??0runtime_error@std@@QEAA@AEBV01@@Z 00000001800090d0 f i baseplayer.obj
 0001:00008120       ??1?$_Yarn@D@std@@QEAA@XZ  0000000180009120 f i baseplayer.obj
 0001:00008120       ??1?$_Yarn@_W@std@@QEAA@XZ 0000000180009120 f i baseplayer.obj
 0001:00008160       ??1?$vector@UPlayerItems@@V?$allocator@UPlayerItems@@@std@@@std@@QEAA@XZ 0000000180009160 f i baseplayer.obj
 0001:00008160       ?_Tidy@?$vector@UPlayerItems@@V?$allocator@UPlayerItems@@@std@@@std@@AEAAXXZ 0000000180009160 f i esp.obj
 0001:00008220       ??1?$wstring_convert@V?$codecvt_utf8_utf16@F$0BAPPPP@$0A@@std@@FV?$allocator@F@2@V?$allocator@D@2@@std@@UEAA@XZ 0000000180009220 f i baseplayer.obj
 0001:00008280       ??1codecvt_base@std@@UEAA@XZ 0000000180009280 f i baseplayer.obj
 0001:00008280       ??1facet@locale@std@@MEAA@XZ 0000000180009280 f i baseplayer.obj
 0001:00008280       ??1money_base@std@@UEAA@XZ 0000000180009280 f i libcpmt:wlocale.obj
 0001:00008280       ??1time_base@std@@UEAA@XZ  0000000180009280 f i libcpmt:wlocale.obj
 0001:00008290       ??1locale@std@@QEAA@XZ     0000000180009290 f i baseplayer.obj
 0001:000082c0       ??_E?$codecvt@DDU_Mbstatet@@@std@@MEAAPEAXI@Z 00000001800092c0 f i esp.obj
 0001:000082c0       ??_E?$codecvt@FDU_Mbstatet@@@std@@MEAAPEAXI@Z 00000001800092c0 f i baseplayer.obj
 0001:000082c0       ??_E?$codecvt_utf8_utf16@F$0BAPPPP@$0A@@std@@UEAAPEAXI@Z 00000001800092c0 f i baseplayer.obj
 0001:000082c0       ??_G?$codecvt@DDU_Mbstatet@@@std@@MEAAPEAXI@Z 00000001800092c0 f i esp.obj
 0001:000082c0       ??_G?$codecvt@FDU_Mbstatet@@@std@@MEAAPEAXI@Z 00000001800092c0 f i baseplayer.obj
 0001:000082c0       ??_G?$codecvt_utf8_utf16@F$0BAPPPP@$0A@@std@@UEAAPEAXI@Z 00000001800092c0 f i baseplayer.obj
 0001:00008300       ??_E?$wstring_convert@V?$codecvt_utf8_utf16@F$0BAPPPP@$0A@@std@@FV?$allocator@F@2@V?$allocator@D@2@@std@@UEAAPEAXI@Z 0000000180009300 f i baseplayer.obj
 0001:00008300       ??_G?$wstring_convert@V?$codecvt_utf8_utf16@F$0BAPPPP@$0A@@std@@FV?$allocator@F@2@V?$allocator@D@2@@std@@UEAAPEAXI@Z 0000000180009300 f i baseplayer.obj
 0001:00008380       ??_E_Facet_base@std@@UEAAPEAXI@Z 0000000180009380 f i baseplayer.obj
 0001:00008380       ??_G_Facet_base@std@@UEAAPEAXI@Z 0000000180009380 f i baseplayer.obj
 0001:000083b0       ?_Decref@facet@locale@std@@UEAAPEAV_Facet_base@3@XZ 00000001800093b0 f i baseplayer.obj
 0001:000083c0       ?_Incref@facet@locale@std@@UEAAXXZ 00000001800093c0 f i baseplayer.obj
 0001:000083e0       ?_Throw_range_error@std@@YAXQEBD@Z 00000001800093e0 f i baseplayer.obj
 0001:00008420       ?_Xlength@?$vector@DV?$allocator@D@std@@@std@@CAXXZ 0000000180009420 f i esp.obj
 0001:00008420       ?_Xlength@?$vector@EV?$allocator@E@std@@@std@@CAXXZ 0000000180009420 f i esp.obj
 0001:00008420       ?_Xlength@?$vector@IV?$allocator@I@std@@@std@@CAXXZ 0000000180009420 f i esp.obj
 0001:00008420       ?_Xlength@?$vector@MV?$allocator@M@std@@@std@@CAXXZ 0000000180009420 f i esp.obj
 0001:00008420       ?_Xlength@?$vector@PEAV?$basic_json@Vmap@std@@Vvector@2@V?$basic_string@DU?$char_traits@D@std@@V?$allocator@D@2@@2@_N_J_KNVallocator@2@Uadl_serializer@nlohmann@@V?$vector@EV?$allocator@E@std@@@2@@nlohmann@@V?$allocator@PEAV?$basic_json@Vmap@std@@Vvector@2@V?$basic_string@DU?$char_traits@D@std@@V?$allocator@D@2@@2@_N_J_KNVallocator@2@Uadl_serializer@nlohmann@@V?$vector@EV?$allocator@E@std@@@2@@nlohmann@@@std@@@std@@CAXXZ 0000000180009420 f i esp.obj
 0001:00008420       ?_Xlength@?$vector@U?$pair@_KV?$basic_string@DU?$char_traits@D@std@@V?$allocator@D@2@@std@@@std@@V?$allocator@U?$pair@_KV?$basic_string@DU?$char_traits@D@std@@V?$allocator@D@2@@std@@@std@@@2@@std@@CAXXZ 0000000180009420 f i esp.obj
 0001:00008420       ?_Xlength@?$vector@U?$pair@_KW4entity_type@@@std@@V?$allocator@U?$pair@_KW4entity_type@@@std@@@2@@std@@CAXXZ 0000000180009420 f i esp.obj
 0001:00008420       ?_Xlength@?$vector@UPlayerItems@@V?$allocator@UPlayerItems@@@std@@@std@@CAXXZ 0000000180009420 f i baseplayer.obj
 0001:00008420       ?_Xlength@?$vector@V?$basic_json@Vmap@std@@Vvector@2@V?$basic_string@DU?$char_traits@D@std@@V?$allocator@D@2@@2@_N_J_KNVallocator@2@Uadl_serializer@nlohmann@@V?$vector@EV?$allocator@E@std@@@2@@nlohmann@@V?$allocator@V?$basic_json@Vmap@std@@Vvector@2@V?$basic_string@DU?$char_traits@D@std@@V?$allocator@D@2@@2@_N_J_KNVallocator@2@Uadl_serializer@nlohmann@@V?$vector@EV?$allocator@E@std@@@2@@nlohmann@@@std@@@std@@CAXXZ 0000000180009420 f i esp.obj
 0001:00008420       ?_Xlength@?$vector@V?$basic_string@DU?$char_traits@D@std@@V?$allocator@D@2@@std@@V?$allocator@V?$basic_string@DU?$char_traits@D@std@@V?$allocator@D@2@@std@@@2@@std@@CAXXZ 0000000180009420 f i esp.obj
 0001:00008420       ?_Xlength@?$vector@V?$tuple@_KV?$basic_string@DU?$char_traits@D@std@@V?$allocator@D@2@@std@@VVector3@@@std@@V?$allocator@V?$tuple@_KV?$basic_string@DU?$char_traits@D@std@@V?$allocator@D@2@@std@@VVector3@@@std@@@2@@std@@CAXXZ 0000000180009420 f i esp.obj
 0001:00008420       ?_Xlength@?$vector@V?$tuple@_KV?$basic_string@DU?$char_traits@D@std@@V?$allocator@D@2@@std@@VVector3@@UImColor@@@std@@V?$allocator@V?$tuple@_KV?$basic_string@DU?$char_traits@D@std@@V?$allocator@D@2@@std@@VVector3@@UImColor@@@std@@@2@@std@@CAXXZ 0000000180009420 f i esp.obj
 0001:00008420       ?_Xlength@?$vector@V?$tuple@_KV?$basic_string@DU?$char_traits@D@std@@V?$allocator@D@2@@std@@VVector3@@V?$time_point@Usteady_clock@chrono@std@@V?$duration@_JU?$ratio@$00$0DLJKMKAA@@std@@@23@@chrono@2@@std@@V?$allocator@V?$tuple@_KV?$basic_string@DU?$char_traits@D@std@@V?$allocator@D@2@@std@@VVector3@@V?$time_point@Usteady_clock@chrono@std@@V?$duration@_JU?$ratio@$00$0DLJKMKAA@@std@@@23@@chrono@2@@std@@@2@@std@@CAXXZ 0000000180009420 f i esp.obj
 0001:00008420       ?_Xlength@?$vector@V?$tuple@_KV?$vector@V?$basic_string@DU?$char_traits@D@std@@V?$allocator@D@2@@std@@V?$allocator@V?$basic_string@DU?$char_traits@D@std@@V?$allocator@D@2@@std@@@2@@std@@VVector3@@UImColor@@@std@@V?$allocator@V?$tuple@_KV?$vector@V?$basic_string@DU?$char_traits@D@std@@V?$allocator@D@2@@std@@V?$allocator@V?$basic_string@DU?$char_traits@D@std@@V?$allocator@D@2@@std@@@2@@std@@VVector3@@UImColor@@@std@@@2@@std@@CAXXZ 0000000180009420 f i esp.obj
 0001:00008440       ?deallocate@?$allocator@U?$pair@_KV?$basic_string@DU?$char_traits@D@std@@V?$allocator@D@2@@std@@@std@@@std@@QEAAXQEAU?$pair@_KV?$basic_string@DU?$char_traits@D@std@@V?$allocator@D@2@@std@@@2@_K@Z 0000000180009440 f i object_loop.obj
 0001:00008440       ?deallocate@?$allocator@UPlayerItems@@@std@@QEAAXQEAUPlayerItems@@_K@Z 0000000180009440 f i baseplayer.obj
 0001:00008490       ?do_always_noconv@?$codecvt@FDU_Mbstatet@@@std@@MEBA_NXZ 0000000180009490 f i baseplayer.obj
 0001:00008490       ?do_always_noconv@?$codecvt@GDU_Mbstatet@@@std@@MEBA_NXZ 0000000180009490 f i libcpmt:wlocale.obj
 0001:00008490       ?do_always_noconv@?$codecvt@_WDU_Mbstatet@@@std@@MEBA_NXZ 0000000180009490 f i libcpmt:wlocale.obj
 0001:00008490       ?do_always_noconv@?$codecvt_utf8_utf16@F$0BAPPPP@$0A@@std@@MEBA_NXZ 0000000180009490 f i baseplayer.obj
 0001:00008490       Curl_none_cert_status_request 0000000180009490 f i libcurl_a:vtls.obj
 0001:00008490       Curl_none_data_pending     0000000180009490 f i libcurl_a:vtls.obj
 0001:00008490       Curl_none_false_start      0000000180009490 f i libcurl_a:vtls.obj
 0001:000084a0       ?_Get_deleter@_Ref_count_base@std@@UEBAPEAXAEBVtype_info@@@Z 00000001800094a0 f i esp.obj
 0001:000084a0       ?do_encoding@?$codecvt_utf8_utf16@F$0BAPPPP@$0A@@std@@MEBAHXZ 00000001800094a0 f i baseplayer.obj
 0001:000084a0       ?showmanyc@?$basic_streambuf@DU?$char_traits@D@std@@@std@@MEAA_JXZ 00000001800094a0 f i esp.obj
 0001:000084a0       ?showmanyc@?$basic_streambuf@_WU?$char_traits@_W@std@@@std@@MEAA_JXZ 00000001800094a0 f i esp.obj
 0001:000084a0       ?sync@?$basic_streambuf@DU?$char_traits@D@std@@@std@@MEAAHXZ 00000001800094a0 f i esp.obj
 0001:000084a0       ?sync@?$basic_streambuf@_WU?$char_traits@_W@std@@@std@@MEAAHXZ 00000001800094a0 f i esp.obj
 0001:000084a0       Curl_if2ip                 00000001800094a0 f i libcurl_a:if2ip.obj
 0001:000084a0       Curl_none_engines_list     00000001800094a0 f i libcurl_a:vtls.obj
 0001:000084a0       Curl_none_shutdown         00000001800094a0 f i libcurl_a:vtls.obj
 0001:000084a0       Curl_posttransfer          00000001800094a0 f i libcurl_a:transfer.obj
 0001:000084a0       Curl_resolver_global_init  00000001800094a0 f i libcurl_a:asyn-thread.obj
 0001:000084b0       ?do_encoding@codecvt_base@std@@MEBAHXZ 00000001800094b0 f i baseplayer.obj
 0001:000084b0       ?do_max_length@codecvt_base@std@@MEBAHXZ 00000001800094b0 f i baseplayer.obj
 0001:000084b0       _get_startup_argv_mode     00000001800094b0 f i LIBCMT:argv_mode.obj
 0001:000084c0       ?do_in@?$codecvt@FDU_Mbstatet@@@std@@MEBAHAEAU_Mbstatet@@PEBD1AEAPEBDPEAF3AEAPEAF@Z 00000001800094c0 f i baseplayer.obj
 0001:00008520       ?do_in@?$codecvt_utf8_utf16@F$0BAPPPP@$0A@@std@@MEBAHAEAU_Mbstatet@@PEBD1AEAPEBDPEAF3AEAPEAF@Z 0000000180009520 f i baseplayer.obj
 0001:000087b0       ?do_length@?$codecvt@DDU_Mbstatet@@@std@@MEBAHAEAU_Mbstatet@@PEBD1_K@Z 00000001800097b0 f i esp.obj
 0001:000087b0       ?do_length@?$codecvt@FDU_Mbstatet@@@std@@MEBAHAEAU_Mbstatet@@PEBD1_K@Z 00000001800097b0 f i baseplayer.obj
 0001:000087d0       ?do_length@?$codecvt_utf8_utf16@F$0BAPPPP@$0A@@std@@MEBAHAEAU_Mbstatet@@PEBD1_K@Z 00000001800097d0 f i baseplayer.obj
 0001:000087e0       ?do_max_length@?$codecvt_utf8_utf16@F$0BAPPPP@$0A@@std@@MEBAHXZ 00000001800097e0 f i baseplayer.obj
 0001:00008800       ?do_out@?$codecvt@FDU_Mbstatet@@@std@@MEBAHAEAU_Mbstatet@@PEBF1AEAPEBFPEAD3AEAPEAD@Z 0000000180009800 f i baseplayer.obj
 0001:00008860       ?do_out@?$codecvt_utf8_utf16@F$0BAPPPP@$0A@@std@@MEBAHAEAU_Mbstatet@@PEBF1AEAPEBFPEAD3AEAPEAD@Z 0000000180009860 f i baseplayer.obj
 0001:00008a40       ?do_unshift@?$codecvt@DDU_Mbstatet@@@std@@MEBAHAEAU_Mbstatet@@PEAD1AEAPEAD@Z 0000000180009a40 f i esp.obj
 0001:00008a40       ?do_unshift@?$codecvt@FDU_Mbstatet@@@std@@MEBAHAEAU_Mbstatet@@PEAD1AEAPEAD@Z 0000000180009a40 f i baseplayer.obj
 0001:00008a40       ?do_unshift@?$codecvt_utf8_utf16@F$0BAPPPP@$0A@@std@@MEBAHAEAU_Mbstatet@@PEAD1AEAPEAD@Z 0000000180009a40 f i baseplayer.obj
 0001:00008a60       ?to_bytes@?$wstring_convert@V?$codecvt_utf8_utf16@F$0BAPPPP@$0A@@std@@FV?$allocator@F@2@V?$allocator@D@2@@std@@QEAA?AV?$basic_string@DU?$char_traits@D@std@@V?$allocator@D@2@@2@PEBF0@Z 0000000180009a60 f i baseplayer.obj
 0001:00008e60       ?main@esp@@YAHXZ           0000000180009e60 f   esp.obj
 0001:00009680       ?bDataCompare@@YAHPEBE0PEBD@Z 000000018000a680 f   esp.obj
 0001:000096c0       ?FindPattern@@YA_KPEAEPEBD@Z 000000018000a6c0 f   esp.obj
 0001:000097a0       ?imgui_stuff@@YAXXZ        000000018000a7a0 f   esp.obj
 0001:0000d5a0       ?save_config@@YA_NXZ       000000018000e5a0 f   esp.obj
 0001:00012380       ?load_config@@YA_NXZ       0000000180013380 f   esp.obj
 0001:00015580       ?GetSystemFontFile@@YA?AV?$basic_string@DU?$char_traits@D@std@@V?$allocator@D@2@@std@@AEBV12@@Z 0000000180016580 f   esp.obj
 0001:00016040       ?WndProc@@YA_JPEAUHWND__@@I_K_J@Z 0000000180017040 f   esp.obj
 0001:00016100       ?init_overlay@@YAHXZ       0000000180017100 f   esp.obj
 0001:000166e0       ?ClearRenderTargetView@@YAXXZ 00000001800176e0 f   esp.obj
 0001:00016720       ?CreateRenderTargetView@@YAXXZ 0000000180017720 f   esp.obj
 0001:00016900       ?render_shitz@@YAXXZ       0000000180017900 f   esp.obj
 0001:00019410       ??$?0AEAH$0A@@?$json_ref@V?$basic_json@Vmap@std@@Vvector@2@V?$basic_string@DU?$char_traits@D@std@@V?$allocator@D@2@@2@_N_J_KNVallocator@2@Uadl_serializer@nlohmann@@V?$vector@EV?$allocator@E@std@@@2@@nlohmann@@@detail@nlohmann@@QEAA@AEAH@Z 000000018001a410 f i esp.obj
 0001:00019430       ??$?0AEAM$0A@@?$json_ref@V?$basic_json@Vmap@std@@Vvector@2@V?$basic_string@DU?$char_traits@D@std@@V?$allocator@D@2@@2@_N_J_KNVallocator@2@Uadl_serializer@nlohmann@@V?$vector@EV?$allocator@E@std@@@2@@nlohmann@@@detail@nlohmann@@QEAA@AEAM@Z 000000018001a430 f i esp.obj
 0001:00019470       ??$?0AEAY02$$CBD$0A@@?$json_ref@V?$basic_json@Vmap@std@@Vvector@2@V?$basic_string@DU?$char_traits@D@std@@V?$allocator@D@2@@2@_N_J_KNVallocator@2@Uadl_serializer@nlohmann@@V?$vector@EV?$allocator@E@std@@@2@@nlohmann@@@detail@nlohmann@@QEAA@AEAY02$$CBD@Z 000000018001a470 f i esp.obj
 0001:00019470       ??$?0AEAY03$$CBD$0A@@?$json_ref@V?$basic_json@Vmap@std@@Vvector@2@V?$basic_string@DU?$char_traits@D@std@@V?$allocator@D@2@@2@_N_J_KNVallocator@2@Uadl_serializer@nlohmann@@V?$vector@EV?$allocator@E@std@@@2@@nlohmann@@@detail@nlohmann@@QEAA@AEAY03$$CBD@Z 000000018001a470 f i esp.obj
 0001:00019470       ??$?0AEAY04$$CBD$0A@@?$json_ref@V?$basic_json@Vmap@std@@Vvector@2@V?$basic_string@DU?$char_traits@D@std@@V?$allocator@D@2@@2@_N_J_KNVallocator@2@Uadl_serializer@nlohmann@@V?$vector@EV?$allocator@E@std@@@2@@nlohmann@@@detail@nlohmann@@QEAA@AEAY04$$CBD@Z 000000018001a470 f i esp.obj
 0001:00019470       ??$?0AEAY05$$CBD$0A@@?$json_ref@V?$basic_json@Vmap@std@@Vvector@2@V?$basic_string@DU?$char_traits@D@std@@V?$allocator@D@2@@2@_N_J_KNVallocator@2@Uadl_serializer@nlohmann@@V?$vector@EV?$allocator@E@std@@@2@@nlohmann@@@detail@nlohmann@@QEAA@AEAY05$$CBD@Z 000000018001a470 f i esp.obj
 0001:00019470       ??$?0AEAY06$$CBD$0A@@?$json_ref@V?$basic_json@Vmap@std@@Vvector@2@V?$basic_string@DU?$char_traits@D@std@@V?$allocator@D@2@@2@_N_J_KNVallocator@2@Uadl_serializer@nlohmann@@V?$vector@EV?$allocator@E@std@@@2@@nlohmann@@@detail@nlohmann@@QEAA@AEAY06$$CBD@Z 000000018001a470 f i esp.obj
 0001:00019470       ??$?0AEAY07$$CBD$0A@@?$json_ref@V?$basic_json@Vmap@std@@Vvector@2@V?$basic_string@DU?$char_traits@D@std@@V?$allocator@D@2@@2@_N_J_KNVallocator@2@Uadl_serializer@nlohmann@@V?$vector@EV?$allocator@E@std@@@2@@nlohmann@@@detail@nlohmann@@QEAA@AEAY07$$CBD@Z 000000018001a470 f i esp.obj
 0001:00019470       ??$?0AEAY08$$CBD$0A@@?$json_ref@V?$basic_json@Vmap@std@@Vvector@2@V?$basic_string@DU?$char_traits@D@std@@V?$allocator@D@2@@2@_N_J_KNVallocator@2@Uadl_serializer@nlohmann@@V?$vector@EV?$allocator@E@std@@@2@@nlohmann@@@detail@nlohmann@@QEAA@AEAY08$$CBD@Z 000000018001a470 f i esp.obj
 0001:00019470       ??$?0AEAY09$$CBD$0A@@?$json_ref@V?$basic_json@Vmap@std@@Vvector@2@V?$basic_string@DU?$char_traits@D@std@@V?$allocator@D@2@@2@_N_J_KNVallocator@2@Uadl_serializer@nlohmann@@V?$vector@EV?$allocator@E@std@@@2@@nlohmann@@@detail@nlohmann@@QEAA@AEAY09$$CBD@Z 000000018001a470 f i esp.obj
 0001:00019470       ??$?0AEAY0BA@$$CBD$0A@@?$json_ref@V?$basic_json@Vmap@std@@Vvector@2@V?$basic_string@DU?$char_traits@D@std@@V?$allocator@D@2@@2@_N_J_KNVallocator@2@Uadl_serializer@nlohmann@@V?$vector@EV?$allocator@E@std@@@2@@nlohmann@@@detail@nlohmann@@QEAA@AEAY0BA@$$CBD@Z 000000018001a470 f i esp.obj
 0001:00019470       ??$?0AEAY0L@$$CBD$0A@@?$json_ref@V?$basic_json@Vmap@std@@Vvector@2@V?$basic_string@DU?$char_traits@D@std@@V?$allocator@D@2@@2@_N_J_KNVallocator@2@Uadl_serializer@nlohmann@@V?$vector@EV?$allocator@E@std@@@2@@nlohmann@@@detail@nlohmann@@QEAA@AEAY0L@$$CBD@Z 000000018001a470 f i esp.obj
 0001:00019470       ??$?0AEAY0M@$$CBD$0A@@?$json_ref@V?$basic_json@Vmap@std@@Vvector@2@V?$basic_string@DU?$char_traits@D@std@@V?$allocator@D@2@@2@_N_J_KNVallocator@2@Uadl_serializer@nlohmann@@V?$vector@EV?$allocator@E@std@@@2@@nlohmann@@@detail@nlohmann@@QEAA@AEAY0M@$$CBD@Z 000000018001a470 f i esp.obj
 0001:00019470       ??$?0AEAY0N@$$CBD$0A@@?$json_ref@V?$basic_json@Vmap@std@@Vvector@2@V?$basic_string@DU?$char_traits@D@std@@V?$allocator@D@2@@2@_N_J_KNVallocator@2@Uadl_serializer@nlohmann@@V?$vector@EV?$allocator@E@std@@@2@@nlohmann@@@detail@nlohmann@@QEAA@AEAY0N@$$CBD@Z 000000018001a470 f i esp.obj
 0001:00019470       ??$?0AEAY0O@$$CBD$0A@@?$json_ref@V?$basic_json@Vmap@std@@Vvector@2@V?$basic_string@DU?$char_traits@D@std@@V?$allocator@D@2@@2@_N_J_KNVallocator@2@Uadl_serializer@nlohmann@@V?$vector@EV?$allocator@E@std@@@2@@nlohmann@@@detail@nlohmann@@QEAA@AEAY0O@$$CBD@Z 000000018001a470 f i esp.obj
 0001:00019500       ??$?0AEAY02M$0A@@?$json_ref@V?$basic_json@Vmap@std@@Vvector@2@V?$basic_string@DU?$char_traits@D@std@@V?$allocator@D@2@@2@_N_J_KNVallocator@2@Uadl_serializer@nlohmann@@V?$vector@EV?$allocator@E@std@@@2@@nlohmann@@@detail@nlohmann@@QEAA@AEAY02M@Z 000000018001a500 f i esp.obj
 0001:000195c0       ??$?0AEA_N$0A@@?$json_ref@V?$basic_json@Vmap@std@@Vvector@2@V?$basic_string@DU?$char_traits@D@std@@V?$allocator@D@2@@2@_N_J_KNVallocator@2@Uadl_serializer@nlohmann@@V?$vector@EV?$allocator@E@std@@@2@@nlohmann@@@detail@nlohmann@@QEAA@AEA_N@Z 000000018001a5c0 f i esp.obj
 0001:00019600       ??$?0PEAD$0A@@?$basic_string@DU?$char_traits@D@std@@V?$allocator@D@2@@std@@QEAA@PEAD0AEBV?$allocator@D@1@@Z 000000018001a600 f i esp.obj
 0001:00019760       ??$?6_WU?$char_traits@_W@std@@@std@@YAAEAV?$basic_ostream@_WU?$char_traits@_W@std@@@0@AEAV10@PEBD@Z 000000018001a760 f i esp.obj
 0001:00019b20       ??$?6_WU?$char_traits@_W@std@@@std@@YAAEAV?$basic_ostream@_WU?$char_traits@_W@std@@@0@AEAV10@PEB_W@Z 000000018001ab20 f i esp.obj
 0001:00019de0       ??$?A$$CBD@?$basic_json@Vmap@std@@Vvector@2@V?$basic_string@DU?$char_traits@D@std@@V?$allocator@D@2@@2@_N_J_KNVallocator@2@Uadl_serializer@nlohmann@@V?$vector@EV?$allocator@E@std@@@2@@nlohmann@@QEAAAEAV01@PEBD@Z 000000018001ade0 f i esp.obj
 0001:0001a0c0       ??$?BH$0A@@?$basic_json@Vmap@std@@Vvector@2@V?$basic_string@DU?$char_traits@D@std@@V?$allocator@D@2@@2@_N_J_KNVallocator@2@Uadl_serializer@nlohmann@@V?$vector@EV?$allocator@E@std@@@2@@nlohmann@@QEBAHXZ 000000018001b0c0 f i esp.obj
 0001:0001a1a0       ??$?BV?$vector@MV?$allocator@M@std@@@std@@$0A@@?$basic_json@Vmap@std@@Vvector@2@V?$basic_string@DU?$char_traits@D@std@@V?$allocator@D@2@@2@_N_J_KNVallocator@2@Uadl_serializer@nlohmann@@V?$vector@EV?$allocator@E@std@@@2@@nlohmann@@QEBA?AV?$vector@MV?$allocator@M@std@@@std@@XZ 000000018001b1a0 f i esp.obj
 0001:0001a240       ??$?HDU?$char_traits@D@std@@V?$allocator@D@1@@std@@YA?AV?$basic_string@DU?$char_traits@D@std@@V?$allocator@D@2@@0@$$QEAV10@AEBV10@@Z 000000018001b240 f i esp.obj
 0001:0001a2c0       ??$?HDU?$char_traits@D@std@@V?$allocator@D@1@@std@@YA?AV?$basic_string@DU?$char_traits@D@std@@V?$allocator@D@2@@0@$$QEAV10@QEBD@Z 000000018001b2c0 f i esp.obj
 0001:0001a340       ??$?HDU?$char_traits@D@std@@V?$allocator@D@1@@std@@YA?AV?$basic_string@DU?$char_traits@D@std@@V?$allocator@D@2@@0@QEBD$$QEAV10@@Z 000000018001b340 f i esp.obj
 0001:0001a480       ??$?HDU?$char_traits@D@std@@V?$allocator@D@1@@std@@YA?AV?$basic_string@DU?$char_traits@D@std@@V?$allocator@D@2@@0@QEBDAEBV10@@Z 000000018001b480 f i esp.obj
 0001:0001a5e0       ??$?RAEBV?$basic_string@DU?$char_traits@D@std@@V?$allocator@D@2@@std@@AEBV01@@?$less@X@std@@QEBA_NAEBV?$basic_string@DU?$char_traits@D@std@@V?$allocator@D@2@@1@0@Z 000000018001b5e0 f i esp.obj
 0001:0001a660       ??$ESP_player@V?$vector@U?$pair@_KW4entity_type@@@std@@V?$allocator@U?$pair@_KW4entity_type@@@std@@@2@@std@@@@YAXAEAV?$vector@U?$pair@_KW4entity_type@@@std@@V?$allocator@U?$pair@_KW4entity_type@@@std@@@2@@std@@@Z 000000018001b660 f i esp.obj
 0001:0001ca00       ??$ESP_staticstringcolorset@V?$vector@V?$tuple@_KV?$basic_string@DU?$char_traits@D@std@@V?$allocator@D@2@@std@@VVector3@@UImColor@@@std@@V?$allocator@V?$tuple@_KV?$basic_string@DU?$char_traits@D@std@@V?$allocator@D@2@@std@@VVector3@@UImColor@@@std@@@2@@std@@@@YAXAEAV?$vector@V?$tuple@_KV?$basic_string@DU?$char_traits@D@std@@V?$allocator@D@2@@std@@VVector3@@UImColor@@@std@@V?$allocator@V?$tuple@_KV?$basic_string@DU?$char_traits@D@std@@V?$allocator@D@2@@std@@VVector3@@UImColor@@@std@@@2@@std@@@Z 000000018001da00 f i esp.obj
 0001:0001cca0       ??$ESP_staticstringset@V?$vector@V?$tuple@_KV?$basic_string@DU?$char_traits@D@std@@V?$allocator@D@2@@std@@VVector3@@@std@@V?$allocator@V?$tuple@_KV?$basic_string@DU?$char_traits@D@std@@V?$allocator@D@2@@std@@VVector3@@@std@@@2@@std@@@@YAXAEAV?$vector@V?$tuple@_KV?$basic_string@DU?$char_traits@D@std@@V?$allocator@D@2@@std@@VVector3@@@std@@V?$allocator@V?$tuple@_KV?$basic_string@DU?$char_traits@D@std@@V?$allocator@D@2@@std@@VVector3@@@std@@@2@@std@@UImColor@@@Z 000000018001dca0 f i esp.obj
 0001:0001cf40       ??$ESP_stringset@V?$vector@U?$pair@_KV?$basic_string@DU?$char_traits@D@std@@V?$allocator@D@2@@std@@@std@@V?$allocator@U?$pair@_KV?$basic_string@DU?$char_traits@D@std@@V?$allocator@D@2@@std@@@std@@@2@@std@@@@YAXAEAV?$vector@U?$pair@_KV?$basic_string@DU?$char_traits@D@std@@V?$allocator@D@2@@std@@@std@@V?$allocator@U?$pair@_KV?$basic_string@DU?$char_traits@D@std@@V?$allocator@D@2@@std@@@std@@@2@@std@@@Z 000000018001df40 f i esp.obj
 0001:0001d420       ??$_Allocate@$0BA@U_Default_allocate_traits@std@@$0A@@std@@YAPEAX_K@Z 000000018001e420 f i esp.obj
 0001:0001d480       ??$_Allocate_at_least_helper@V?$allocator@M@std@@@std@@YAPEAMAEAV?$allocator@M@0@AEA_K@Z 000000018001e480 f i esp.obj
 0001:0001d500       ??$_Allocate_at_least_helper@V?$allocator@V?$basic_json@Vmap@std@@Vvector@2@V?$basic_string@DU?$char_traits@D@std@@V?$allocator@D@2@@2@_N_J_KNVallocator@2@Uadl_serializer@nlohmann@@V?$vector@EV?$allocator@E@std@@@2@@nlohmann@@@std@@@std@@YAPEAV?$basic_json@Vmap@std@@Vvector@2@V?$basic_string@DU?$char_traits@D@std@@V?$allocator@D@2@@2@_N_J_KNVallocator@2@Uadl_serializer@nlohmann@@V?$vector@EV?$allocator@E@std@@@2@@nlohmann@@AEAV?$allocator@V?$basic_json@Vmap@std@@Vvector@2@V?$basic_string@DU?$char_traits@D@std@@V?$allocator@D@2@@2@_N_J_KNVallocator@2@Uadl_serializer@nlohmann@@V?$vector@EV?$allocator@E@std@@@2@@nlohmann@@@0@AEA_K@Z 000000018001e500 f i esp.obj
 0001:0001d580       ??$_Construct_from_iter@V?$istreambuf_iterator@DU?$char_traits@D@std@@@std@@V12@$$T@?$basic_string@DU?$char_traits@D@std@@V?$allocator@D@2@@std@@AEAAXV?$istreambuf_iterator@DU?$char_traits@D@std@@@1@V21@$$T@Z 000000018001e580 f i esp.obj
 0001:0001d820       ??$_Convert_stringoid_to_wide@U_Normal_conversion@filesystem@std@@@filesystem@std@@YA?AV?$basic_string@_WU?$char_traits@_W@std@@V?$allocator@_W@2@@1@V?$basic_string_view@DU?$char_traits@D@std@@@1@U_Normal_conversion@01@@Z 000000018001e820 f i esp.obj
 0001:0001d920       ??$_Convert_wide_to_narrow_replace_chars@U?$char_traits@D@std@@V?$allocator@D@2@@filesystem@std@@YA?AV?$basic_string@DU?$char_traits@D@std@@V?$allocator@D@2@@1@W4__std_code_page@@V?$basic_string_view@_WU?$char_traits@_W@std@@@1@AEBV?$allocator@D@1@@Z 000000018001e920 f i esp.obj
 0001:0001da20       ??$_Copy_nodes@$0A@@?$_Tree@V?$_Tmap_traits@V?$basic_string@DU?$char_traits@D@std@@V?$allocator@D@2@@std@@V?$basic_json@Vmap@std@@Vvector@2@V?$basic_string@DU?$char_traits@D@std@@V?$allocator@D@2@@2@_N_J_KNVallocator@2@Uadl_serializer@nlohmann@@V?$vector@EV?$allocator@E@std@@@2@@nlohmann@@U?$less@X@2@V?$allocator@U?$pair@$$CBV?$basic_string@DU?$char_traits@D@std@@V?$allocator@D@2@@std@@V?$basic_json@Vmap@std@@Vvector@2@V?$basic_string@DU?$char_traits@D@std@@V?$allocator@D@2@@2@_N_J_KNVallocator@2@Uadl_serializer@nlohmann@@V?$vector@EV?$allocator@E@std@@@2@@nlohmann@@@std@@@2@$0A@@std@@@std@@IEAAPEAU?$_Tree_node@U?$pair@$$CBV?$basic_string@DU?$char_traits@D@std@@V?$allocator@D@2@@std@@V?$basic_json@Vmap@std@@Vvector@2@V?$basic_string@DU?$char_traits@D@std@@V?$allocator@D@2@@2@_N_J_KNVallocator@2@Uadl_serializer@nlohmann@@V?$vector@EV?$allocator@E@std@@@2@@nlohmann@@@std@@PEAX@1@PEAU21@0@Z 000000018001ea20 f i esp.obj
 0001:0001db00       ??$_Destroy_range@V?$allocator@V?$basic_json@Vmap@std@@Vvector@2@V?$basic_string@DU?$char_traits@D@std@@V?$allocator@D@2@@2@_N_J_KNVallocator@2@Uadl_serializer@nlohmann@@V?$vector@EV?$allocator@E@std@@@2@@nlohmann@@@std@@@std@@YAXPEAV?$basic_json@Vmap@std@@Vvector@2@V?$basic_string@DU?$char_traits@D@std@@V?$allocator@D@2@@2@_N_J_KNVallocator@2@Uadl_serializer@nlohmann@@V?$vector@EV?$allocator@E@std@@@2@@nlohmann@@QEAV12@AEAV?$allocator@V?$basic_json@Vmap@std@@Vvector@2@V?$basic_string@DU?$char_traits@D@std@@V?$allocator@D@2@@2@_N_J_KNVallocator@2@Uadl_serializer@nlohmann@@V?$vector@EV?$allocator@E@std@@@2@@nlohmann@@@0@@Z 000000018001eb00 f i esp.obj
 0001:0001db60       ??$_Emplace_reallocate@$$T@?$vector@V?$basic_json@Vmap@std@@Vvector@2@V?$basic_string@DU?$char_traits@D@std@@V?$allocator@D@2@@2@_N_J_KNVallocator@2@Uadl_serializer@nlohmann@@V?$vector@EV?$allocator@E@std@@@2@@nlohmann@@V?$allocator@V?$basic_json@Vmap@std@@Vvector@2@V?$basic_string@DU?$char_traits@D@std@@V?$allocator@D@2@@2@_N_J_KNVallocator@2@Uadl_serializer@nlohmann@@V?$vector@EV?$allocator@E@std@@@2@@nlohmann@@@std@@@std@@AEAAPEAV?$basic_json@Vmap@std@@Vvector@2@V?$basic_string@DU?$char_traits@D@std@@V?$allocator@D@2@@2@_N_J_KNVallocator@2@Uadl_serializer@nlohmann@@V?$vector@EV?$allocator@E@std@@@2@@nlohmann@@QEAV23@$$QEA$$T@Z 000000018001eb60 f i esp.obj
 0001:0001dd80       ??$_Emplace_reallocate@AEAN@?$vector@V?$basic_json@Vmap@std@@Vvector@2@V?$basic_string@DU?$char_traits@D@std@@V?$allocator@D@2@@2@_N_J_KNVallocator@2@Uadl_serializer@nlohmann@@V?$vector@EV?$allocator@E@std@@@2@@nlohmann@@V?$allocator@V?$basic_json@Vmap@std@@Vvector@2@V?$basic_string@DU?$char_traits@D@std@@V?$allocator@D@2@@2@_N_J_KNVallocator@2@Uadl_serializer@nlohmann@@V?$vector@EV?$allocator@E@std@@@2@@nlohmann@@@std@@@std@@AEAAPEAV?$basic_json@Vmap@std@@Vvector@2@V?$basic_string@DU?$char_traits@D@std@@V?$allocator@D@2@@2@_N_J_KNVallocator@2@Uadl_serializer@nlohmann@@V?$vector@EV?$allocator@E@std@@@2@@nlohmann@@QEAV23@AEAN@Z 000000018001ed80 f i esp.obj
 0001:0001dfc0       ??$_Emplace_reallocate@AEAV?$basic_string@DU?$char_traits@D@std@@V?$allocator@D@2@@std@@@?$vector@V?$basic_json@Vmap@std@@Vvector@2@V?$basic_string@DU?$char_traits@D@std@@V?$allocator@D@2@@2@_N_J_KNVallocator@2@Uadl_serializer@nlohmann@@V?$vector@EV?$allocator@E@std@@@2@@nlohmann@@V?$allocator@V?$basic_json@Vmap@std@@Vvector@2@V?$basic_string@DU?$char_traits@D@std@@V?$allocator@D@2@@2@_N_J_KNVallocator@2@Uadl_serializer@nlohmann@@V?$vector@EV?$allocator@E@std@@@2@@nlohmann@@@std@@@std@@AEAAPEAV?$basic_json@Vmap@std@@Vvector@2@V?$basic_string@DU?$char_traits@D@std@@V?$allocator@D@2@@2@_N_J_KNVallocator@2@Uadl_serializer@nlohmann@@V?$vector@EV?$allocator@E@std@@@2@@nlohmann@@QEAV23@AEAV?$basic_string@DU?$char_traits@D@std@@V?$allocator@D@2@@1@@Z 000000018001efc0 f i esp.obj
 0001:0001e220       ??$_Emplace_reallocate@AEA_J@?$vector@V?$basic_json@Vmap@std@@Vvector@2@V?$basic_string@DU?$char_traits@D@std@@V?$allocator@D@2@@2@_N_J_KNVallocator@2@Uadl_serializer@nlohmann@@V?$vector@EV?$allocator@E@std@@@2@@nlohmann@@V?$allocator@V?$basic_json@Vmap@std@@Vvector@2@V?$basic_string@DU?$char_traits@D@std@@V?$allocator@D@2@@2@_N_J_KNVallocator@2@Uadl_serializer@nlohmann@@V?$vector@EV?$allocator@E@std@@@2@@nlohmann@@@std@@@std@@AEAAPEAV?$basic_json@Vmap@std@@Vvector@2@V?$basic_string@DU?$char_traits@D@std@@V?$allocator@D@2@@2@_N_J_KNVallocator@2@Uadl_serializer@nlohmann@@V?$vector@EV?$allocator@E@std@@@2@@nlohmann@@QEAV23@AEA_J@Z 000000018001f220 f i esp.obj
 0001:0001e440       ??$_Emplace_reallocate@AEA_K@?$vector@V?$basic_json@Vmap@std@@Vvector@2@V?$basic_string@DU?$char_traits@D@std@@V?$allocator@D@2@@2@_N_J_KNVallocator@2@Uadl_serializer@nlohmann@@V?$vector@EV?$allocator@E@std@@@2@@nlohmann@@V?$allocator@V?$basic_json@Vmap@std@@Vvector@2@V?$basic_string@DU?$char_traits@D@std@@V?$allocator@D@2@@2@_N_J_KNVallocator@2@Uadl_serializer@nlohmann@@V?$vector@EV?$allocator@E@std@@@2@@nlohmann@@@std@@@std@@AEAAPEAV?$basic_json@Vmap@std@@Vvector@2@V?$basic_string@DU?$char_traits@D@std@@V?$allocator@D@2@@2@_N_J_KNVallocator@2@Uadl_serializer@nlohmann@@V?$vector@EV?$allocator@E@std@@@2@@nlohmann@@QEAV23@AEA_K@Z 000000018001f440 f i esp.obj
 0001:0001e660       ??$_Emplace_reallocate@AEA_N@?$vector@V?$basic_json@Vmap@std@@Vvector@2@V?$basic_string@DU?$char_traits@D@std@@V?$allocator@D@2@@2@_N_J_KNVallocator@2@Uadl_serializer@nlohmann@@V?$vector@EV?$allocator@E@std@@@2@@nlohmann@@V?$allocator@V?$basic_json@Vmap@std@@Vvector@2@V?$basic_string@DU?$char_traits@D@std@@V?$allocator@D@2@@2@_N_J_KNVallocator@2@Uadl_serializer@nlohmann@@V?$vector@EV?$allocator@E@std@@@2@@nlohmann@@@std@@@std@@AEAAPEAV?$basic_json@Vmap@std@@Vvector@2@V?$basic_string@DU?$char_traits@D@std@@V?$allocator@D@2@@2@_N_J_KNVallocator@2@Uadl_serializer@nlohmann@@V?$vector@EV?$allocator@E@std@@@2@@nlohmann@@QEAV23@AEA_N@Z 000000018001f660 f i esp.obj
 0001:0001e880       ??$_Emplace_reallocate@AEBQEAV?$basic_json@Vmap@std@@Vvector@2@V?$basic_string@DU?$char_traits@D@std@@V?$allocator@D@2@@2@_N_J_KNVallocator@2@Uadl_serializer@nlohmann@@V?$vector@EV?$allocator@E@std@@@2@@nlohmann@@@?$vector@PEAV?$basic_json@Vmap@std@@Vvector@2@V?$basic_string@DU?$char_traits@D@std@@V?$allocator@D@2@@2@_N_J_KNVallocator@2@Uadl_serializer@nlohmann@@V?$vector@EV?$allocator@E@std@@@2@@nlohmann@@V?$allocator@PEAV?$basic_json@Vmap@std@@Vvector@2@V?$basic_string@DU?$char_traits@D@std@@V?$allocator@D@2@@2@_N_J_KNVallocator@2@Uadl_serializer@nlohmann@@V?$vector@EV?$allocator@E@std@@@2@@nlohmann@@@std@@@std@@AEAAPEAPEAV?$basic_json@Vmap@std@@Vvector@2@V?$basic_string@DU?$char_traits@D@std@@V?$allocator@D@2@@2@_N_J_KNVallocator@2@Uadl_serializer@nlohmann@@V?$vector@EV?$allocator@E@std@@@2@@nlohmann@@QEAPEAV23@AEBQEAV23@@Z 000000018001f880 f i esp.obj
 0001:0001e880       ??$_Emplace_reallocate@PEAV?$basic_json@Vmap@std@@Vvector@2@V?$basic_string@DU?$char_traits@D@std@@V?$allocator@D@2@@2@_N_J_KNVallocator@2@Uadl_serializer@nlohmann@@V?$vector@EV?$allocator@E@std@@@2@@nlohmann@@@?$vector@PEAV?$basic_json@Vmap@std@@Vvector@2@V?$basic_string@DU?$char_traits@D@std@@V?$allocator@D@2@@2@_N_J_KNVallocator@2@Uadl_serializer@nlohmann@@V?$vector@EV?$allocator@E@std@@@2@@nlohmann@@V?$allocator@PEAV?$basic_json@Vmap@std@@Vvector@2@V?$basic_string@DU?$char_traits@D@std@@V?$allocator@D@2@@2@_N_J_KNVallocator@2@Uadl_serializer@nlohmann@@V?$vector@EV?$allocator@E@std@@@2@@nlohmann@@@std@@@std@@AEAAPEAPEAV?$basic_json@Vmap@std@@Vvector@2@V?$basic_string@DU?$char_traits@D@std@@V?$allocator@D@2@@2@_N_J_KNVallocator@2@Uadl_serializer@nlohmann@@V?$vector@EV?$allocator@E@std@@@2@@nlohmann@@QEAPEAV23@$$QEAPEAV23@@Z 000000018001f880 f i esp.obj
 0001:0001ea00       ??$_Emplace_reallocate@D@?$vector@DV?$allocator@D@std@@@std@@AEAAPEADQEAD$$QEAD@Z 000000018001fa00 f i esp.obj
 0001:0001eb80       ??$_Emplace_reallocate@M@?$vector@MV?$allocator@M@std@@@std@@AEAAPEAMQEAM$$QEAM@Z 000000018001fb80 f i esp.obj
 0001:0001ed00       ??$_Emplace_reallocate@V?$basic_json@Vmap@std@@Vvector@2@V?$basic_string@DU?$char_traits@D@std@@V?$allocator@D@2@@2@_N_J_KNVallocator@2@Uadl_serializer@nlohmann@@V?$vector@EV?$allocator@E@std@@@2@@nlohmann@@@?$vector@V?$basic_json@Vmap@std@@Vvector@2@V?$basic_string@DU?$char_traits@D@std@@V?$allocator@D@2@@2@_N_J_KNVallocator@2@Uadl_serializer@nlohmann@@V?$vector@EV?$allocator@E@std@@@2@@nlohmann@@V?$allocator@V?$basic_json@Vmap@std@@Vvector@2@V?$basic_string@DU?$char_traits@D@std@@V?$allocator@D@2@@2@_N_J_KNVallocator@2@Uadl_serializer@nlohmann@@V?$vector@EV?$allocator@E@std@@@2@@nlohmann@@@std@@@std@@AEAAPEAV?$basic_json@Vmap@std@@Vvector@2@V?$basic_string@DU?$char_traits@D@std@@V?$allocator@D@2@@2@_N_J_KNVallocator@2@Uadl_serializer@nlohmann@@V?$vector@EV?$allocator@E@std@@@2@@nlohmann@@QEAV23@$$QEAV23@@Z 000000018001fd00 f i esp.obj
 0001:0001ef20       ??$_Emplace_reallocate@W4value_t@detail@nlohmann@@@?$vector@V?$basic_json@Vmap@std@@Vvector@2@V?$basic_string@DU?$char_traits@D@std@@V?$allocator@D@2@@2@_N_J_KNVallocator@2@Uadl_serializer@nlohmann@@V?$vector@EV?$allocator@E@std@@@2@@nlohmann@@V?$allocator@V?$basic_json@Vmap@std@@Vvector@2@V?$basic_string@DU?$char_traits@D@std@@V?$allocator@D@2@@2@_N_J_KNVallocator@2@Uadl_serializer@nlohmann@@V?$vector@EV?$allocator@E@std@@@2@@nlohmann@@@std@@@std@@AEAAPEAV?$basic_json@Vmap@std@@Vvector@2@V?$basic_string@DU?$char_traits@D@std@@V?$allocator@D@2@@2@_N_J_KNVallocator@2@Uadl_serializer@nlohmann@@V?$vector@EV?$allocator@E@std@@@2@@nlohmann@@QEAV23@$$QEAW4value_t@detail@3@@Z 000000018001ff20 f i esp.obj
 0001:0001f160       ??$_Erase_tree@V?$allocator@U?$_Tree_node@U?$pair@$$CBV?$basic_string@DU?$char_traits@D@std@@V?$allocator@D@2@@std@@V?$basic_json@Vmap@std@@Vvector@2@V?$basic_string@DU?$char_traits@D@std@@V?$allocator@D@2@@2@_N_J_KNVallocator@2@Uadl_serializer@nlohmann@@V?$vector@EV?$allocator@E@std@@@2@@nlohmann@@@std@@PEAX@std@@@std@@@?$_Tree_val@U?$_Tree_simple_types@U?$pair@$$CBV?$basic_string@DU?$char_traits@D@std@@V?$allocator@D@2@@std@@V?$basic_json@Vmap@std@@Vvector@2@V?$basic_string@DU?$char_traits@D@std@@V?$allocator@D@2@@2@_N_J_KNVallocator@2@Uadl_serializer@nlohmann@@V?$vector@EV?$allocator@E@std@@@2@@nlohmann@@@std@@@std@@@std@@QEAAXAEAV?$allocator@U?$_Tree_node@U?$pair@$$CBV?$basic_string@DU?$char_traits@D@std@@V?$allocator@D@2@@std@@V?$basic_json@Vmap@std@@Vvector@2@V?$basic_string@DU?$char_traits@D@std@@V?$allocator@D@2@@2@_N_J_KNVallocator@2@Uadl_serializer@nlohmann@@V?$vector@EV?$allocator@E@std@@@2@@nlohmann@@@std@@PEAX@std@@@1@PEAU?$_Tree_node@U?$pair@$$CBV?$basic_string@DU?$char_traits@D@std@@V?$allocator@D@2@@std@@V?$basic_json@Vmap@std@@Vvector@2@V?$basic_string@DU?$char_traits@D@std@@V?$allocator@D@2@@2@_N_J_KNVallocator@2@Uadl_serializer@nlohmann@@V?$vector@EV?$allocator@E@std@@@2@@nlohmann@@@std@@PEAX@1@@Z 0000000180020160 f i esp.obj
 0001:0001f160       ??$_Erase_tree_and_orphan@V?$allocator@U?$_Tree_node@U?$pair@$$CBV?$basic_string@DU?$char_traits@D@std@@V?$allocator@D@2@@std@@V?$basic_json@Vmap@std@@Vvector@2@V?$basic_string@DU?$char_traits@D@std@@V?$allocator@D@2@@2@_N_J_KNVallocator@2@Uadl_serializer@nlohmann@@V?$vector@EV?$allocator@E@std@@@2@@nlohmann@@@std@@PEAX@std@@@std@@@?$_Tree_val@U?$_Tree_simple_types@U?$pair@$$CBV?$basic_string@DU?$char_traits@D@std@@V?$allocator@D@2@@std@@V?$basic_json@Vmap@std@@Vvector@2@V?$basic_string@DU?$char_traits@D@std@@V?$allocator@D@2@@2@_N_J_KNVallocator@2@Uadl_serializer@nlohmann@@V?$vector@EV?$allocator@E@std@@@2@@nlohmann@@@std@@@std@@@std@@QEAAXAEAV?$allocator@U?$_Tree_node@U?$pair@$$CBV?$basic_string@DU?$char_traits@D@std@@V?$allocator@D@2@@std@@V?$basic_json@Vmap@std@@Vvector@2@V?$basic_string@DU?$char_traits@D@std@@V?$allocator@D@2@@2@_N_J_KNVallocator@2@Uadl_serializer@nlohmann@@V?$vector@EV?$allocator@E@std@@@2@@nlohmann@@@std@@PEAX@std@@@1@PEAU?$_Tree_node@U?$pair@$$CBV?$basic_string@DU?$char_traits@D@std@@V?$allocator@D@2@@std@@V?$basic_json@Vmap@std@@Vvector@2@V?$basic_string@DU?$char_traits@D@std@@V?$allocator@D@2@@2@_N_J_KNVallocator@2@Uadl_serializer@nlohmann@@V?$vector@EV?$allocator@E@std@@@2@@nlohmann@@@std@@PEAX@1@@Z 0000000180020160 f i esp.obj
 0001:0001f200       ??$_Find_lower_bound@V?$basic_string@DU?$char_traits@D@std@@V?$allocator@D@2@@std@@@?$_Tree@V?$_Tmap_traits@V?$basic_string@DU?$char_traits@D@std@@V?$allocator@D@2@@std@@V?$basic_json@Vmap@std@@Vvector@2@V?$basic_string@DU?$char_traits@D@std@@V?$allocator@D@2@@2@_N_J_KNVallocator@2@Uadl_serializer@nlohmann@@V?$vector@EV?$allocator@E@std@@@2@@nlohmann@@U?$less@X@2@V?$allocator@U?$pair@$$CBV?$basic_string@DU?$char_traits@D@std@@V?$allocator@D@2@@std@@V?$basic_json@Vmap@std@@Vvector@2@V?$basic_string@DU?$char_traits@D@std@@V?$allocator@D@2@@2@_N_J_KNVallocator@2@Uadl_serializer@nlohmann@@V?$vector@EV?$allocator@E@std@@@2@@nlohmann@@@std@@@2@$0A@@std@@@std@@IEBA?AU?$_Tree_find_result@PEAU?$_Tree_node@U?$pair@$$CBV?$basic_string@DU?$char_traits@D@std@@V?$allocator@D@2@@std@@V?$basic_json@Vmap@std@@Vvector@2@V?$basic_string@DU?$char_traits@D@std@@V?$allocator@D@2@@2@_N_J_KNVallocator@2@Uadl_serializer@nlohmann@@V?$vector@EV?$allocator@E@std@@@2@@nlohmann@@@std@@PEAX@std@@@1@AEBV?$basic_string@DU?$char_traits@D@std@@V?$allocator@D@2@@1@@Z 0000000180020200 f i esp.obj
 0001:0001f2e0       ??$_Insert_string@_WU?$char_traits@_W@std@@_K@std@@YAAEAV?$basic_ostream@_WU?$char_traits@_W@std@@@0@AEAV10@QEB_W_K@Z 00000001800202e0 f i esp.obj
 0001:0001f5a0       ??$_Reallocate@$0A@@?$vector@MV?$allocator@M@std@@@std@@AEAAXAEA_K@Z 00000001800205a0 f i esp.obj
 0001:0001f620       ??$_Reallocate@$0A@@?$vector@V?$basic_json@Vmap@std@@Vvector@2@V?$basic_string@DU?$char_traits@D@std@@V?$allocator@D@2@@2@_N_J_KNVallocator@2@Uadl_serializer@nlohmann@@V?$vector@EV?$allocator@E@std@@@2@@nlohmann@@V?$allocator@V?$basic_json@Vmap@std@@Vvector@2@V?$basic_string@DU?$char_traits@D@std@@V?$allocator@D@2@@2@_N_J_KNVallocator@2@Uadl_serializer@nlohmann@@V?$vector@EV?$allocator@E@std@@@2@@nlohmann@@@std@@@std@@AEAAXAEA_K@Z 0000000180020620 f i esp.obj
 0001:0001f6c0       ??$_Reallocate_for@V<lambda_3fa8b2c8193a0f3144fc4b1b8f243931>@@PEB_W@?$basic_string@_WU?$char_traits@_W@std@@V?$allocator@_W@2@@std@@AEAAAEAV01@_KV<lambda_3fa8b2c8193a0f3144fc4b1b8f243931>@@PEB_W@Z 00000001800206c0 f i esp.obj
 0001:0001f860       ??$_Reallocate_grow_by@V<lambda_19662282d61fd793232134d409f2e084>@@$$V@?$basic_string@_WU?$char_traits@_W@std@@V?$allocator@_W@2@@std@@AEAAAEAV01@_KV<lambda_19662282d61fd793232134d409f2e084>@@@Z 0000000180020860 f i esp.obj
 0001:0001fa00       ??$_Reallocate_grow_by@V<lambda_1dfe18491bcca09701d8ccb01d0b0af4>@@PEB_W_K@?$basic_string@_WU?$char_traits@_W@std@@V?$allocator@_W@2@@std@@AEAAAEAV01@_KV<lambda_1dfe18491bcca09701d8ccb01d0b0af4>@@PEB_W_K@Z 0000000180020a00 f i esp.obj
 0001:0001fbe0       ??$_Reallocate_grow_by@V<lambda_25953b27f3c43b57ba59f021c7f225c5>@@_W@?$basic_string@_WU?$char_traits@_W@std@@V?$allocator@_W@2@@std@@AEAAAEAV01@_KV<lambda_25953b27f3c43b57ba59f021c7f225c5>@@_W@Z 0000000180020be0 f i esp.obj
 0001:0001fda0       ??$_Reallocate_grow_by@V<lambda_9013ee9e23efe4882b67eff5b0ecf103>@@$$V@?$basic_string@DU?$char_traits@D@std@@V?$allocator@D@2@@std@@AEAAAEAV01@_KV<lambda_9013ee9e23efe4882b67eff5b0ecf103>@@@Z 0000000180020da0 f i esp.obj
 0001:0001ff00       ??$_Reallocate_grow_by@V<lambda_a3050a43f3157934f354774ab3dd2e02>@@_K_W@?$basic_string@_WU?$char_traits@_W@std@@V?$allocator@_W@2@@std@@AEAAAEAV01@_KV<lambda_a3050a43f3157934f354774ab3dd2e02>@@_K_W@Z 0000000180020f00 f i esp.obj
 0001:000200e0       ??$_Reallocate_grow_by@V<lambda_f3a66ab6a0570788f31503db83886f49>@@_KPEBD_K@?$basic_string@DU?$char_traits@D@std@@V?$allocator@D@2@@std@@AEAAAEAV01@_KV<lambda_f3a66ab6a0570788f31503db83886f49>@@_KPEBD2@Z 00000001800210e0 f i esp.obj
 0001:000202a0       ??$_Resize_reallocate@I@?$vector@IV?$allocator@I@std@@@std@@AEAAX_KAEBI@Z 00000001800212a0 f i esp.obj
 0001:00020440       ??$_Try_emplace@AEBK$$V@?$_Hash@V?$_Umap_traits@KUrCache@@V?$_Uhash_compare@KU?$hash@K@std@@U?$equal_to@K@2@@std@@V?$allocator@U?$pair@$$CBKUrCache@@@std@@@3@$0A@@std@@@std@@IEAA?AU?$pair@PEAU?$_List_node@U?$pair@$$CBKUrCache@@@std@@PEAX@std@@_N@1@AEBK@Z 0000000180021440 f i esp.obj
 0001:000206e0       ??$compute_boundaries@N@dtoa_impl@detail@nlohmann@@YA?AUboundaries@012@N@Z 00000001800216e0 f i esp.obj
 0001:00020860       ??$dump_integer@E$0A@@?$serializer@V?$basic_json@Vmap@std@@Vvector@2@V?$basic_string@DU?$char_traits@D@std@@V?$allocator@D@2@@2@_N_J_KNVallocator@2@Uadl_serializer@nlohmann@@V?$vector@EV?$allocator@E@std@@@2@@nlohmann@@@detail@nlohmann@@AEAAXE@Z 0000000180021860 f i esp.obj
 0001:00020940       ??$erase@V?$iter_impl@V?$basic_json@Vmap@std@@Vvector@2@V?$basic_string@DU?$char_traits@D@std@@V?$allocator@D@2@@2@_N_J_KNVallocator@2@Uadl_serializer@nlohmann@@V?$vector@EV?$allocator@E@std@@@2@@nlohmann@@@detail@nlohmann@@$0A@@?$basic_json@Vmap@std@@Vvector@2@V?$basic_string@DU?$char_traits@D@std@@V?$allocator@D@2@@2@_N_J_KNVallocator@2@Uadl_serializer@nlohmann@@V?$vector@EV?$allocator@E@std@@@2@@nlohmann@@QEAA?AV?$iter_impl@V?$basic_json@Vmap@std@@Vvector@2@V?$basic_string@DU?$char_traits@D@std@@V?$allocator@D@2@@2@_N_J_KNVallocator@2@Uadl_serializer@nlohmann@@V?$vector@EV?$allocator@E@std@@@2@@nlohmann@@@detail@1@V231@@Z 0000000180021940 f i esp.obj
 0001:00020c80       ??$from_json_array_impl@V?$basic_json@Vmap@std@@Vvector@2@V?$basic_string@DU?$char_traits@D@std@@V?$allocator@D@2@@2@_N_J_KNVallocator@2@Uadl_serializer@nlohmann@@V?$vector@EV?$allocator@E@std@@@2@@nlohmann@@V?$vector@MV?$allocator@M@std@@@std@@@detail@nlohmann@@YAXAEBV?$basic_json@Vmap@std@@Vvector@2@V?$basic_string@DU?$char_traits@D@std@@V?$allocator@D@2@@2@_N_J_KNVallocator@2@Uadl_serializer@nlohmann@@V?$vector@EV?$allocator@E@std@@@2@@1@AEAV?$vector@MV?$allocator@M@std@@@std@@U?$priority_tag@$00@01@@Z 0000000180021c80 f i esp.obj
 0001:00020f00       ??$get@MM$0A@@?$basic_json@Vmap@std@@Vvector@2@V?$basic_string@DU?$char_traits@D@std@@V?$allocator@D@2@@2@_N_J_KNVallocator@2@Uadl_serializer@nlohmann@@V?$vector@EV?$allocator@E@std@@@2@@nlohmann@@QEBAMXZ 0000000180021f00 f i esp.obj
 0001:00021040       ??$get@_N_N$0A@@?$basic_json@Vmap@std@@Vvector@2@V?$basic_string@DU?$char_traits@D@std@@V?$allocator@D@2@@2@_N_J_KNVallocator@2@Uadl_serializer@nlohmann@@V?$vector@EV?$allocator@E@std@@@2@@nlohmann@@QEBA_NXZ 0000000180022040 f i esp.obj
 0001:000210c0       ??$handle_value@$$T@?$json_sax_dom_callback_parser@V?$basic_json@Vmap@std@@Vvector@2@V?$basic_string@DU?$char_traits@D@std@@V?$allocator@D@2@@2@_N_J_KNVallocator@2@Uadl_serializer@nlohmann@@V?$vector@EV?$allocator@E@std@@@2@@nlohmann@@@detail@nlohmann@@AEAA?AU?$pair@_NPEAV?$basic_json@Vmap@std@@Vvector@2@V?$basic_string@DU?$char_traits@D@std@@V?$allocator@D@2@@2@_N_J_KNVallocator@2@Uadl_serializer@nlohmann@@V?$vector@EV?$allocator@E@std@@@2@@nlohmann@@@std@@$$QEA$$T_N@Z 00000001800220c0 f i esp.obj
 0001:00021320       ??$handle_value@AEAN@?$json_sax_dom_callback_parser@V?$basic_json@Vmap@std@@Vvector@2@V?$basic_string@DU?$char_traits@D@std@@V?$allocator@D@2@@2@_N_J_KNVallocator@2@Uadl_serializer@nlohmann@@V?$vector@EV?$allocator@E@std@@@2@@nlohmann@@@detail@nlohmann@@AEAA?AU?$pair@_NPEAV?$basic_json@Vmap@std@@Vvector@2@V?$basic_string@DU?$char_traits@D@std@@V?$allocator@D@2@@2@_N_J_KNVallocator@2@Uadl_serializer@nlohmann@@V?$vector@EV?$allocator@E@std@@@2@@nlohmann@@@std@@AEAN_N@Z 0000000180022320 f i esp.obj
 0001:00021580       ??$handle_value@AEAV?$basic_string@DU?$char_traits@D@std@@V?$allocator@D@2@@std@@@?$json_sax_dom_callback_parser@V?$basic_json@Vmap@std@@Vvector@2@V?$basic_string@DU?$char_traits@D@std@@V?$allocator@D@2@@2@_N_J_KNVallocator@2@Uadl_serializer@nlohmann@@V?$vector@EV?$allocator@E@std@@@2@@nlohmann@@@detail@nlohmann@@AEAA?AU?$pair@_NPEAV?$basic_json@Vmap@std@@Vvector@2@V?$basic_string@DU?$char_traits@D@std@@V?$allocator@D@2@@2@_N_J_KNVallocator@2@Uadl_serializer@nlohmann@@V?$vector@EV?$allocator@E@std@@@2@@nlohmann@@@std@@AEAV?$basic_string@DU?$char_traits@D@std@@V?$allocator@D@2@@4@_N@Z 0000000180022580 f i esp.obj
 0001:00021800       ??$handle_value@AEAV?$basic_string@DU?$char_traits@D@std@@V?$allocator@D@2@@std@@@?$json_sax_dom_parser@V?$basic_json@Vmap@std@@Vvector@2@V?$basic_string@DU?$char_traits@D@std@@V?$allocator@D@2@@2@_N_J_KNVallocator@2@Uadl_serializer@nlohmann@@V?$vector@EV?$allocator@E@std@@@2@@nlohmann@@@detail@nlohmann@@AEAAPEAV?$basic_json@Vmap@std@@Vvector@2@V?$basic_string@DU?$char_traits@D@std@@V?$allocator@D@2@@2@_N_J_KNVallocator@2@Uadl_serializer@nlohmann@@V?$vector@EV?$allocator@E@std@@@2@@2@AEAV?$basic_string@DU?$char_traits@D@std@@V?$allocator@D@2@@std@@@Z 0000000180022800 f i esp.obj
 0001:00021960       ??$handle_value@AEA_J@?$json_sax_dom_callback_parser@V?$basic_json@Vmap@std@@Vvector@2@V?$basic_string@DU?$char_traits@D@std@@V?$allocator@D@2@@2@_N_J_KNVallocator@2@Uadl_serializer@nlohmann@@V?$vector@EV?$allocator@E@std@@@2@@nlohmann@@@detail@nlohmann@@AEAA?AU?$pair@_NPEAV?$basic_json@Vmap@std@@Vvector@2@V?$basic_string@DU?$char_traits@D@std@@V?$allocator@D@2@@2@_N_J_KNVallocator@2@Uadl_serializer@nlohmann@@V?$vector@EV?$allocator@E@std@@@2@@nlohmann@@@std@@AEA_J_N@Z 0000000180022960 f i esp.obj
 0001:00021bc0       ??$handle_value@AEA_K@?$json_sax_dom_callback_parser@V?$basic_json@Vmap@std@@Vvector@2@V?$basic_string@DU?$char_traits@D@std@@V?$allocator@D@2@@2@_N_J_KNVallocator@2@Uadl_serializer@nlohmann@@V?$vector@EV?$allocator@E@std@@@2@@nlohmann@@@detail@nlohmann@@AEAA?AU?$pair@_NPEAV?$basic_json@Vmap@std@@Vvector@2@V?$basic_string@DU?$char_traits@D@std@@V?$allocator@D@2@@2@_N_J_KNVallocator@2@Uadl_serializer@nlohmann@@V?$vector@EV?$allocator@E@std@@@2@@nlohmann@@@std@@AEA_K_N@Z 0000000180022bc0 f i esp.obj
 0001:00021e20       ??$handle_value@AEA_N@?$json_sax_dom_callback_parser@V?$basic_json@Vmap@std@@Vvector@2@V?$basic_string@DU?$char_traits@D@std@@V?$allocator@D@2@@2@_N_J_KNVallocator@2@Uadl_serializer@nlohmann@@V?$vector@EV?$allocator@E@std@@@2@@nlohmann@@@detail@nlohmann@@AEAA?AU?$pair@_NPEAV?$basic_json@Vmap@std@@Vvector@2@V?$basic_string@DU?$char_traits@D@std@@V?$allocator@D@2@@2@_N_J_KNVallocator@2@Uadl_serializer@nlohmann@@V?$vector@EV?$allocator@E@std@@@2@@nlohmann@@@std@@AEA_N_N@Z 0000000180022e20 f i esp.obj
 0001:000220a0       ??$handle_value@W4value_t@detail@nlohmann@@@?$json_sax_dom_callback_parser@V?$basic_json@Vmap@std@@Vvector@2@V?$basic_string@DU?$char_traits@D@std@@V?$allocator@D@2@@2@_N_J_KNVallocator@2@Uadl_serializer@nlohmann@@V?$vector@EV?$allocator@E@std@@@2@@nlohmann@@@detail@nlohmann@@AEAA?AU?$pair@_NPEAV?$basic_json@Vmap@std@@Vvector@2@V?$basic_string@DU?$char_traits@D@std@@V?$allocator@D@2@@2@_N_J_KNVallocator@2@Uadl_serializer@nlohmann@@V?$vector@EV?$allocator@E@std@@@2@@nlohmann@@@std@@$$QEAW4value_t@12@_N@Z 00000001800230a0 f i esp.obj
 0001:00022300       ??$handle_value@W4value_t@detail@nlohmann@@@?$json_sax_dom_parser@V?$basic_json@Vmap@std@@Vvector@2@V?$basic_string@DU?$char_traits@D@std@@V?$allocator@D@2@@2@_N_J_KNVallocator@2@Uadl_serializer@nlohmann@@V?$vector@EV?$allocator@E@std@@@2@@nlohmann@@@detail@nlohmann@@AEAAPEAV?$basic_json@Vmap@std@@Vvector@2@V?$basic_string@DU?$char_traits@D@std@@V?$allocator@D@2@@2@_N_J_KNVallocator@2@Uadl_serializer@nlohmann@@V?$vector@EV?$allocator@E@std@@@2@@2@$$QEAW4value_t@12@@Z 0000000180023300 f i esp.obj
 0001:00022420       ??$parse@AEAV?$basic_string@DU?$char_traits@D@std@@V?$allocator@D@2@@std@@@?$basic_json@Vmap@std@@Vvector@2@V?$basic_string@DU?$char_traits@D@std@@V?$allocator@D@2@@2@_N_J_KNVallocator@2@Uadl_serializer@nlohmann@@V?$vector@EV?$allocator@E@std@@@2@@nlohmann@@SA?AV01@AEAV?$basic_string@DU?$char_traits@D@std@@V?$allocator@D@2@@std@@V?$function@$$A6A_NHW4parse_event_t@detail@nlohmann@@AEAV?$basic_json@Vmap@std@@Vvector@2@V?$basic_string@DU?$char_traits@D@std@@V?$allocator@D@2@@2@_N_J_KNVallocator@2@Uadl_serializer@nlohmann@@V?$vector@EV?$allocator@E@std@@@2@@3@@Z@3@_N2@Z 0000000180023420 f i esp.obj
 0001:00022560       ??$parser@V?$iterator_input_adapter@V?$_String_const_iterator@V?$_String_val@U?$_Simple_types@D@std@@@std@@@std@@@detail@nlohmann@@@?$basic_json@Vmap@std@@Vvector@2@V?$basic_string@DU?$char_traits@D@std@@V?$allocator@D@2@@2@_N_J_KNVallocator@2@Uadl_serializer@nlohmann@@V?$vector@EV?$allocator@E@std@@@2@@nlohmann@@CA?AV?$parser@V?$basic_json@Vmap@std@@Vvector@2@V?$basic_string@DU?$char_traits@D@std@@V?$allocator@D@2@@2@_N_J_KNVallocator@2@Uadl_serializer@nlohmann@@V?$vector@EV?$allocator@E@std@@@2@@nlohmann@@V?$iterator_input_adapter@V?$_String_const_iterator@V?$_String_val@U?$_Simple_types@D@std@@@std@@@std@@@detail@2@@detail@1@V?$iterator_input_adapter@V?$_String_const_iterator@V?$_String_val@U?$_Simple_types@D@std@@@std@@@std@@@31@V?$function@$$A6A_NHW4parse_event_t@detail@nlohmann@@AEAV?$basic_json@Vmap@std@@Vvector@2@V?$basic_string@DU?$char_traits@D@std@@V?$allocator@D@2@@2@_N_J_KNVallocator@2@Uadl_serializer@nlohmann@@V?$vector@EV?$allocator@E@std@@@2@@3@@Z@std@@_N2@Z 0000000180023560 f i esp.obj
 0001:00022720       ??$sax_parse_internal@V?$json_sax_dom_callback_parser@V?$basic_json@Vmap@std@@Vvector@2@V?$basic_string@DU?$char_traits@D@std@@V?$allocator@D@2@@2@_N_J_KNVallocator@2@Uadl_serializer@nlohmann@@V?$vector@EV?$allocator@E@std@@@2@@nlohmann@@@detail@nlohmann@@@?$parser@V?$basic_json@Vmap@std@@Vvector@2@V?$basic_string@DU?$char_traits@D@std@@V?$allocator@D@2@@2@_N_J_KNVallocator@2@Uadl_serializer@nlohmann@@V?$vector@EV?$allocator@E@std@@@2@@nlohmann@@V?$iterator_input_adapter@V?$_String_const_iterator@V?$_String_val@U?$_Simple_types@D@std@@@std@@@std@@@detail@2@@detail@nlohmann@@AEAA_NPEAV?$json_sax_dom_callback_parser@V?$basic_json@Vmap@std@@Vvector@2@V?$basic_string@DU?$char_traits@D@std@@V?$allocator@D@2@@2@_N_J_KNVallocator@2@Uadl_serializer@nlohmann@@V?$vector@EV?$allocator@E@std@@@2@@nlohmann@@@12@@Z 0000000180023720 f i esp.obj
 0001:00023be0       ??$sax_parse_internal@V?$json_sax_dom_parser@V?$basic_json@Vmap@std@@Vvector@2@V?$basic_string@DU?$char_traits@D@std@@V?$allocator@D@2@@2@_N_J_KNVallocator@2@Uadl_serializer@nlohmann@@V?$vector@EV?$allocator@E@std@@@2@@nlohmann@@@detail@nlohmann@@@?$parser@V?$basic_json@Vmap@std@@Vvector@2@V?$basic_string@DU?$char_traits@D@std@@V?$allocator@D@2@@2@_N_J_KNVallocator@2@Uadl_serializer@nlohmann@@V?$vector@EV?$allocator@E@std@@@2@@nlohmann@@V?$iterator_input_adapter@V?$_String_const_iterator@V?$_String_val@U?$_Simple_types@D@std@@@std@@@std@@@detail@2@@detail@nlohmann@@AEAA_NPEAV?$json_sax_dom_parser@V?$basic_json@Vmap@std@@Vvector@2@V?$basic_string@DU?$char_traits@D@std@@V?$allocator@D@2@@2@_N_J_KNVallocator@2@Uadl_serializer@nlohmann@@V?$vector@EV?$allocator@E@std@@@2@@nlohmann@@@12@@Z 0000000180024be0 f i esp.obj
 0001:00025000       ??$sleep_for@_JU?$ratio@$00$00@std@@@this_thread@std@@YAXAEBV?$duration@_JU?$ratio@$00$00@std@@@chrono@1@@Z 0000000180026000 f i esp.obj
 0001:000251a0       ??$transform@V?$iter_impl@$$CBV?$basic_json@Vmap@std@@Vvector@2@V?$basic_string@DU?$char_traits@D@std@@V?$allocator@D@2@@2@_N_J_KNVallocator@2@Uadl_serializer@nlohmann@@V?$vector@EV?$allocator@E@std@@@2@@nlohmann@@@detail@nlohmann@@V?$insert_iterator@V?$vector@MV?$allocator@M@std@@@std@@@std@@V<lambda_607017ba2f4779a4b1d12d324e3d8a0e>@@@std@@YA?AV?$insert_iterator@V?$vector@MV?$allocator@M@std@@@std@@@0@V?$iter_impl@$$CBV?$basic_json@Vmap@std@@Vvector@2@V?$basic_string@DU?$char_traits@D@std@@V?$allocator@D@2@@2@_N_J_KNVallocator@2@Uadl_serializer@nlohmann@@V?$vector@EV?$allocator@E@std@@@2@@nlohmann@@@detail@nlohmann@@0V10@V<lambda_607017ba2f4779a4b1d12d324e3d8a0e>@@@Z 00000001800261a0 f i esp.obj
 0001:00025460       ??$use_facet@V?$codecvt@DDU_Mbstatet@@@std@@@std@@YAAEBV?$codecvt@DDU_Mbstatet@@@0@AEBVlocale@0@@Z 0000000180026460 f i esp.obj
 0001:00025580       ??$use_facet@V?$ctype@D@std@@@std@@YAAEBV?$ctype@D@0@AEBVlocale@0@@Z 0000000180026580 f i esp.obj
 0001:000256a0       ??$use_facet@V?$ctype@_W@std@@@std@@YAAEBV?$ctype@_W@0@AEBVlocale@0@@Z 00000001800266a0 f i esp.obj
 0001:000257c0       ??0?$basic_filebuf@DU?$char_traits@D@std@@@std@@QEAA@XZ 00000001800267c0 f i esp.obj
 0001:00025860       ??0?$basic_ifstream@DU?$char_traits@D@std@@@std@@QEAA@PEB_WHH@Z 0000000180026860 f i esp.obj
 0001:00025aa0       ??0?$basic_istream@_WU?$char_traits@_W@std@@@std@@QEAA@PEAV?$basic_streambuf@_WU?$char_traits@_W@std@@@1@_N@Z 0000000180026aa0 f i esp.obj
 0001:00025c60       ??0?$basic_json@Vmap@std@@Vvector@2@V?$basic_string@DU?$char_traits@D@std@@V?$allocator@D@2@@2@_N_J_KNVallocator@2@Uadl_serializer@nlohmann@@V?$vector@EV?$allocator@E@std@@@2@@nlohmann@@QEAA@AEBV01@@Z 0000000180026c60 f i esp.obj
 0001:00025fc0       ??0?$basic_json@Vmap@std@@Vvector@2@V?$basic_string@DU?$char_traits@D@std@@V?$allocator@D@2@@2@_N_J_KNVallocator@2@Uadl_serializer@nlohmann@@V?$vector@EV?$allocator@E@std@@@2@@nlohmann@@QEAA@V?$initializer_list@V?$json_ref@V?$basic_json@Vmap@std@@Vvector@2@V?$basic_string@DU?$char_traits@D@std@@V?$allocator@D@2@@2@_N_J_KNVallocator@2@Uadl_serializer@nlohmann@@V?$vector@EV?$allocator@E@std@@@2@@nlohmann@@@detail@nlohmann@@@std@@_NW4value_t@detail@1@@Z 0000000180026fc0 f i esp.obj
 0001:00026320       ??0?$basic_ofstream@DU?$char_traits@D@std@@@std@@QEAA@PEB_WHH@Z 0000000180027320 f i esp.obj
 0001:00026560       ??0?$basic_streambuf@DU?$char_traits@D@std@@@std@@IEAA@XZ 0000000180027560 f i esp.obj
 0001:00026650       ??0?$basic_string@DU?$char_traits@D@std@@V?$allocator@D@2@@std@@QEAA@QEBD@Z 0000000180027650 f i esp.obj
 0001:000266a0       ??0?$basic_string@DU?$char_traits@D@std@@V?$allocator@D@2@@std@@QEAA@U_String_constructor_concat_tag@1@AEAV01@1@Z 00000001800276a0 f i esp.obj
 0001:000268c0       ??0?$basic_string@DU?$char_traits@D@std@@V?$allocator@D@2@@std@@QEAA@_KD@Z 00000001800278c0 f i esp.obj
 0001:00026a00       ??0?$basic_string@_WU?$char_traits@_W@std@@V?$allocator@_W@2@@std@@QEAA@AEBV01@@Z 0000000180027a00 f i esp.obj
 0001:00026b40       ??0?$basic_stringstream@_WU?$char_traits@_W@std@@V?$allocator@_W@2@@std@@QEAA@XZ 0000000180027b40 f i esp.obj
 0001:00026d40       ??0?$json_ref@V?$basic_json@Vmap@std@@Vvector@2@V?$basic_string@DU?$char_traits@D@std@@V?$allocator@D@2@@2@_N_J_KNVallocator@2@Uadl_serializer@nlohmann@@V?$vector@EV?$allocator@E@std@@@2@@nlohmann@@@detail@nlohmann@@QEAA@V?$initializer_list@V?$json_ref@V?$basic_json@Vmap@std@@Vvector@2@V?$basic_string@DU?$char_traits@D@std@@V?$allocator@D@2@@2@_N_J_KNVallocator@2@Uadl_serializer@nlohmann@@V?$vector@EV?$allocator@E@std@@@2@@nlohmann@@@detail@nlohmann@@@std@@@Z 0000000180027d40 f i esp.obj
 0001:00026d80       ??0?$json_sax_dom_callback_parser@V?$basic_json@Vmap@std@@Vvector@2@V?$basic_string@DU?$char_traits@D@std@@V?$allocator@D@2@@2@_N_J_KNVallocator@2@Uadl_serializer@nlohmann@@V?$vector@EV?$allocator@E@std@@@2@@nlohmann@@@detail@nlohmann@@QEAA@AEAV?$basic_json@Vmap@std@@Vvector@2@V?$basic_string@DU?$char_traits@D@std@@V?$allocator@D@2@@2@_N_J_KNVallocator@2@Uadl_serializer@nlohmann@@V?$vector@EV?$allocator@E@std@@@2@@2@V?$function@$$A6A_NHW4parse_event_t@detail@nlohmann@@AEAV?$basic_json@Vmap@std@@Vvector@2@V?$basic_string@DU?$char_traits@D@std@@V?$allocator@D@2@@2@_N_J_KNVallocator@2@Uadl_serializer@nlohmann@@V?$vector@EV?$allocator@E@std@@@2@@3@@Z@std@@_N@Z 0000000180027d80 f i esp.obj
 0001:00026e60       ??0?$vector@V?$basic_string@DU?$char_traits@D@std@@V?$allocator@D@2@@std@@V?$allocator@V?$basic_string@DU?$char_traits@D@std@@V?$allocator@D@2@@std@@@2@@std@@QEAA@AEBV01@@Z 0000000180027e60 f i esp.obj
 0001:00026f80       ??0?$vector@V?$tuple@_KV?$basic_string@DU?$char_traits@D@std@@V?$allocator@D@2@@std@@VVector3@@@std@@V?$allocator@V?$tuple@_KV?$basic_string@DU?$char_traits@D@std@@V?$allocator@D@2@@std@@VVector3@@@std@@@2@@std@@QEAA@AEBV01@@Z 0000000180027f80 f i esp.obj
 0001:000270e0       ??0?$vector@V?$tuple@_KV?$basic_string@DU?$char_traits@D@std@@V?$allocator@D@2@@std@@VVector3@@UImColor@@@std@@V?$allocator@V?$tuple@_KV?$basic_string@DU?$char_traits@D@std@@V?$allocator@D@2@@std@@VVector3@@UImColor@@@std@@@2@@std@@QEAA@AEBV01@@Z 00000001800280e0 f i esp.obj
 0001:00027240       ??0_System_error@std@@IEAA@Verror_code@1@AEBV?$basic_string@DU?$char_traits@D@std@@V?$allocator@D@2@@1@@Z 0000000180028240 f i esp.obj
 0001:00027440       ??0_System_error@std@@QEAA@AEBV01@@Z 0000000180028440 f i esp.obj
 0001:00027490       ??0bad_cast@std@@QEAA@AEBV01@@Z 0000000180028490 f i esp.obj
 0001:000274d0       ??0bad_cast@std@@QEAA@XZ   00000001800284d0 f i esp.obj
 0001:00027500       ??0exception@detail@nlohmann@@QEAA@AEBV012@@Z 0000000180028500 f i esp.obj
 0001:00027580       ??0failure@ios_base@std@@QEAA@AEBV012@@Z 0000000180028580 f i esp.obj
 0001:000275e0       ??0failure@ios_base@std@@QEAA@PEBDAEBVerror_code@2@@Z 00000001800285e0 f i esp.obj
 0001:000276a0       ??0filesystem_error@filesystem@std@@QEAA@AEBV012@@Z 00000001800286a0 f i esp.obj
 0001:00027740       ??0filesystem_error@filesystem@std@@QEAA@AEBV?$basic_string@DU?$char_traits@D@std@@V?$allocator@D@2@@2@AEBVpath@12@Verror_code@2@@Z 0000000180028740 f i esp.obj
 0001:00027870       ??0invalid_iterator@detail@nlohmann@@QEAA@AEBV012@@Z 0000000180028870 f i esp.obj
 0001:00027870       ??0other_error@detail@nlohmann@@QEAA@AEBV012@@Z 0000000180028870 f i esp.obj
 0001:00027870       ??0out_of_range@detail@nlohmann@@QEAA@AEBV012@@Z 0000000180028870 f i esp.obj
 0001:00027870       ??0type_error@detail@nlohmann@@QEAA@AEBV012@@Z 0000000180028870 f i esp.obj
 0001:000278a0       ??0json_value@?$basic_json@Vmap@std@@Vvector@2@V?$basic_string@DU?$char_traits@D@std@@V?$allocator@D@2@@2@_N_J_KNVallocator@2@Uadl_serializer@nlohmann@@V?$vector@EV?$allocator@E@std@@@2@@nlohmann@@QEAA@W4value_t@detail@2@@Z 00000001800288a0 f i esp.obj
 0001:00027a00       ??0parse_error@detail@nlohmann@@AEAA@H_KPEBD@Z 0000000180028a00 f i esp.obj
 0001:00027a80       ??0parse_error@detail@nlohmann@@QEAA@AEBV012@@Z 0000000180028a80 f i esp.obj
 0001:00027ac0       ??0sentry@?$basic_ostream@DU?$char_traits@D@std@@@std@@QEAA@AEAV12@@Z 0000000180028ac0 f i esp.obj
 0001:00027ac0       ??0sentry@?$basic_ostream@_WU?$char_traits@_W@std@@@std@@QEAA@AEAV12@@Z 0000000180028ac0 f i esp.obj
 0001:00027b40       ??0system_error@std@@QEAA@AEBV01@@Z 0000000180028b40 f i esp.obj
 0001:00027ba0       ??0system_error@std@@QEAA@Verror_code@1@@Z 0000000180028ba0 f i esp.obj
 0001:00027c70       ??1?$ComPtr@UID3D11Texture2D@@@WRL@Microsoft@@QEAA@XZ 0000000180028c70 f i esp.obj
 0001:00027c70       ??1?$ComPtr@UIDCompositionDevice@@@WRL@Microsoft@@QEAA@XZ 0000000180028c70 f i esp.obj
 0001:00027c70       ??1?$ComPtr@UIDCompositionVisual@@@WRL@Microsoft@@QEAA@XZ 0000000180028c70 f i esp.obj
 0001:00027c70       ??1?$ComPtr@UIDXGIDevice@@@WRL@Microsoft@@QEAA@XZ 0000000180028c70 f i esp.obj
 0001:00027c70       ??1?$ComPtr@UIDXGIFactory2@@@WRL@Microsoft@@QEAA@XZ 0000000180028c70 f i esp.obj
 0001:00027ca0       ??1?$_Alloc_construct_ptr@V?$allocator@U?$_Tree_node@U?$pair@$$CBV?$basic_string@DU?$char_traits@D@std@@V?$allocator@D@2@@std@@V?$basic_json@Vmap@std@@Vvector@2@V?$basic_string@DU?$char_traits@D@std@@V?$allocator@D@2@@2@_N_J_KNVallocator@2@Uadl_serializer@nlohmann@@V?$vector@EV?$allocator@E@std@@@2@@nlohmann@@@std@@PEAX@std@@@std@@@std@@QEAA@XZ 0000000180028ca0 f i esp.obj
 0001:00027ca0       ??1?$_Tree_temp_node_alloc@V?$allocator@U?$_Tree_node@U?$pair@$$CBV?$basic_string@DU?$char_traits@D@std@@V?$allocator@D@2@@std@@V?$basic_json@Vmap@std@@Vvector@2@V?$basic_string@DU?$char_traits@D@std@@V?$allocator@D@2@@2@_N_J_KNVallocator@2@Uadl_serializer@nlohmann@@V?$vector@EV?$allocator@E@std@@@2@@nlohmann@@@std@@PEAX@std@@@std@@@std@@QEAA@XZ 0000000180028ca0 f i esp.obj
 0001:00027cc0       ??1?$_Func_class@_NHW4parse_event_t@detail@nlohmann@@AEAV?$basic_json@Vmap@std@@Vvector@2@V?$basic_string@DU?$char_traits@D@std@@V?$allocator@D@2@@2@_N_J_KNVallocator@2@Uadl_serializer@nlohmann@@V?$vector@EV?$allocator@E@std@@@2@@3@@std@@QEAA@XZ 0000000180028cc0 f i esp.obj
 0001:00027cc0       ??1?$function@$$A6A_NHW4parse_event_t@detail@nlohmann@@AEAV?$basic_json@Vmap@std@@Vvector@2@V?$basic_string@DU?$char_traits@D@std@@V?$allocator@D@2@@2@_N_J_KNVallocator@2@Uadl_serializer@nlohmann@@V?$vector@EV?$allocator@E@std@@@2@@3@@Z@std@@QEAA@XZ 0000000180028cc0 f i esp.obj
 0001:00027cf0       ??1?$_Tidy_deallocate_guard@V?$basic_string@DU?$char_traits@D@std@@V?$allocator@D@2@@std@@@std@@QEAA@XZ 0000000180028cf0 f i esp.obj
 0001:00027d00       ??1?$_Tidy_guard@V?$vector@U?$pair@_KV?$basic_string@DU?$char_traits@D@std@@V?$allocator@D@2@@std@@@std@@V?$allocator@U?$pair@_KV?$basic_string@DU?$char_traits@D@std@@V?$allocator@D@2@@std@@@std@@@2@@std@@@std@@QEAA@XZ 0000000180028d00 f i esp.obj
 0001:00027d10       ??1?$_Tidy_guard@V?$vector@V?$basic_json@Vmap@std@@Vvector@2@V?$basic_string@DU?$char_traits@D@std@@V?$allocator@D@2@@2@_N_J_KNVallocator@2@Uadl_serializer@nlohmann@@V?$vector@EV?$allocator@E@std@@@2@@nlohmann@@V?$allocator@V?$basic_json@Vmap@std@@Vvector@2@V?$basic_string@DU?$char_traits@D@std@@V?$allocator@D@2@@2@_N_J_KNVallocator@2@Uadl_serializer@nlohmann@@V?$vector@EV?$allocator@E@std@@@2@@nlohmann@@@std@@@std@@@std@@QEAA@XZ 0000000180028d10 f i esp.obj
 0001:00027d20       ??1?$_Tidy_guard@V?$vector@V?$basic_string@DU?$char_traits@D@std@@V?$allocator@D@2@@std@@V?$allocator@V?$basic_string@DU?$char_traits@D@std@@V?$allocator@D@2@@std@@@2@@std@@@std@@QEAA@XZ 0000000180028d20 f i esp.obj
 0001:00027d30       ??1?$_Tidy_guard@V?$vector@V?$tuple@_KV?$basic_string@DU?$char_traits@D@std@@V?$allocator@D@2@@std@@VVector3@@@std@@V?$allocator@V?$tuple@_KV?$basic_string@DU?$char_traits@D@std@@V?$allocator@D@2@@std@@VVector3@@@std@@@2@@std@@@std@@QEAA@XZ 0000000180028d30 f i esp.obj
 0001:00027d40       ??1?$_Tidy_guard@V?$vector@V?$tuple@_KV?$basic_string@DU?$char_traits@D@std@@V?$allocator@D@2@@std@@VVector3@@UImColor@@@std@@V?$allocator@V?$tuple@_KV?$basic_string@DU?$char_traits@D@std@@V?$allocator@D@2@@std@@VVector3@@UImColor@@@std@@@2@@std@@@std@@QEAA@XZ 0000000180028d40 f i esp.obj
 0001:00027d50       ??1?$_Tidy_guard@V?$vector@V?$tuple@_KV?$basic_string@DU?$char_traits@D@std@@V?$allocator@D@2@@std@@VVector3@@V?$time_point@Usteady_clock@chrono@std@@V?$duration@_JU?$ratio@$00$0DLJKMKAA@@std@@@23@@chrono@2@@std@@V?$allocator@V?$tuple@_KV?$basic_string@DU?$char_traits@D@std@@V?$allocator@D@2@@std@@VVector3@@V?$time_point@Usteady_clock@chrono@std@@V?$duration@_JU?$ratio@$00$0DLJKMKAA@@std@@@23@@chrono@2@@std@@@2@@std@@@std@@QEAA@XZ 0000000180028d50 f i esp.obj
 0001:00027d60       ??1?$_Tidy_guard@V?$vector@V?$tuple@_KV?$vector@V?$basic_string@DU?$char_traits@D@std@@V?$allocator@D@2@@std@@V?$allocator@V?$basic_string@DU?$char_traits@D@std@@V?$allocator@D@2@@std@@@2@@std@@VVector3@@UImColor@@@std@@V?$allocator@V?$tuple@_KV?$vector@V?$basic_string@DU?$char_traits@D@std@@V?$allocator@D@2@@std@@V?$allocator@V?$basic_string@DU?$char_traits@D@std@@V?$allocator@D@2@@std@@@2@@std@@VVector3@@UImColor@@@std@@@2@@std@@@std@@QEAA@XZ 0000000180028d60 f i esp.obj
 0001:00027d80       ??1?$_Tree_head_scoped_ptr@V?$allocator@U?$_Tree_node@U?$pair@$$CBV?$basic_string@DU?$char_traits@D@std@@V?$allocator@D@2@@std@@V?$basic_json@Vmap@std@@Vvector@2@V?$basic_string@DU?$char_traits@D@std@@V?$allocator@D@2@@2@_N_J_KNVallocator@2@Uadl_serializer@nlohmann@@V?$vector@EV?$allocator@E@std@@@2@@nlohmann@@@std@@PEAX@std@@@std@@V?$_Tree_val@U?$_Tree_simple_types@U?$pair@$$CBV?$basic_string@DU?$char_traits@D@std@@V?$allocator@D@2@@std@@V?$basic_json@Vmap@std@@Vvector@2@V?$basic_string@DU?$char_traits@D@std@@V?$allocator@D@2@@2@_N_J_KNVallocator@2@Uadl_serializer@nlohmann@@V?$vector@EV?$allocator@E@std@@@2@@nlohmann@@@std@@@std@@@2@@std@@QEAA@XZ 0000000180028d80 f i esp.obj
 0001:00027dc0       ??1?$_Uninitialized_backout_al@V?$allocator@U?$pair@_KV?$basic_string@DU?$char_traits@D@std@@V?$allocator@D@2@@std@@@std@@@std@@@std@@QEAA@XZ 0000000180028dc0 f i esp.obj
 0001:00027e00       ??1?$_Uninitialized_backout_al@V?$allocator@V?$basic_json@Vmap@std@@Vvector@2@V?$basic_string@DU?$char_traits@D@std@@V?$allocator@D@2@@2@_N_J_KNVallocator@2@Uadl_serializer@nlohmann@@V?$vector@EV?$allocator@E@std@@@2@@nlohmann@@@std@@@std@@QEAA@XZ 0000000180028e00 f i esp.obj
 0001:00027e50       ??1?$_Uninitialized_backout_al@V?$allocator@V?$basic_string@DU?$char_traits@D@std@@V?$allocator@D@2@@std@@@std@@@std@@QEAA@XZ 0000000180028e50 f i esp.obj
 0001:00027e90       ??1?$_Uninitialized_backout_al@V?$allocator@V?$tuple@_KV?$basic_string@DU?$char_traits@D@std@@V?$allocator@D@2@@std@@VVector3@@@std@@@std@@@std@@QEAA@XZ 0000000180028e90 f i esp.obj
 0001:00027ed0       ??1?$_Uninitialized_backout_al@V?$allocator@V?$tuple@_KV?$basic_string@DU?$char_traits@D@std@@V?$allocator@D@2@@std@@VVector3@@UImColor@@@std@@@std@@@std@@QEAA@XZ 0000000180028ed0 f i esp.obj
 0001:00027f10       ??1?$_Uninitialized_backout_al@V?$allocator@V?$tuple@_KV?$basic_string@DU?$char_traits@D@std@@V?$allocator@D@2@@std@@VVector3@@V?$time_point@Usteady_clock@chrono@std@@V?$duration@_JU?$ratio@$00$0DLJKMKAA@@std@@@23@@chrono@2@@std@@@std@@@std@@QEAA@XZ 0000000180028f10 f i esp.obj
 0001:00027f50       ??1?$_Uninitialized_backout_al@V?$allocator@V?$tuple@_KV?$vector@V?$basic_string@DU?$char_traits@D@std@@V?$allocator@D@2@@std@@V?$allocator@V?$basic_string@DU?$char_traits@D@std@@V?$allocator@D@2@@std@@@2@@std@@VVector3@@UImColor@@@std@@@std@@@std@@QEAA@XZ 0000000180028f50 f i esp.obj
 0001:00027fa0       ??1?$basic_filebuf@DU?$char_traits@D@std@@@std@@UEAA@XZ 0000000180028fa0 f i esp.obj
 0001:00028060       ??1?$basic_ios@DU?$char_traits@D@std@@@std@@UEAA@XZ 0000000180029060 f i esp.obj
 0001:00028060       ??1?$basic_ios@_WU?$char_traits@_W@std@@@std@@UEAA@XZ 0000000180029060 f i esp.obj
 0001:00028080       ??1?$basic_iostream@_WU?$char_traits@_W@std@@@std@@UEAA@XZ 0000000180029080 f i esp.obj
 0001:00028100       ??1?$basic_istream@DU?$char_traits@D@std@@@std@@UEAA@XZ 0000000180029100 f i esp.obj
 0001:00028100       ??1?$basic_istream@_WU?$char_traits@_W@std@@@std@@UEAA@XZ 0000000180029100 f i esp.obj
 0001:00028130       ??1?$basic_json@Vmap@std@@Vvector@2@V?$basic_string@DU?$char_traits@D@std@@V?$allocator@D@2@@2@_N_J_KNVallocator@2@Uadl_serializer@nlohmann@@V?$vector@EV?$allocator@E@std@@@2@@nlohmann@@QEAA@XZ 0000000180029130 f i esp.obj
 0001:00028130       ??1?$json_ref@V?$basic_json@Vmap@std@@Vvector@2@V?$basic_string@DU?$char_traits@D@std@@V?$allocator@D@2@@2@_N_J_KNVallocator@2@Uadl_serializer@nlohmann@@V?$vector@EV?$allocator@E@std@@@2@@nlohmann@@@detail@nlohmann@@QEAA@XZ 0000000180029130 f i esp.obj
 0001:00028140       ??1?$basic_ostream@DU?$char_traits@D@std@@@std@@UEAA@XZ 0000000180029140 f i esp.obj
 0001:00028180       ??1?$basic_stringbuf@_WU?$char_traits@_W@std@@V?$allocator@_W@2@@std@@UEAA@XZ 0000000180029180 f i esp.obj
 0001:00028200       ??1?$json_sax_dom_callback_parser@V?$basic_json@Vmap@std@@Vvector@2@V?$basic_string@DU?$char_traits@D@std@@V?$allocator@D@2@@2@_N_J_KNVallocator@2@Uadl_serializer@nlohmann@@V?$vector@EV?$allocator@E@std@@@2@@nlohmann@@@detail@nlohmann@@QEAA@XZ 0000000180029200 f i esp.obj
 0001:00028360       ??1?$json_sax_dom_parser@V?$basic_json@Vmap@std@@Vvector@2@V?$basic_string@DU?$char_traits@D@std@@V?$allocator@D@2@@2@_N_J_KNVallocator@2@Uadl_serializer@nlohmann@@V?$vector@EV?$allocator@E@std@@@2@@nlohmann@@@detail@nlohmann@@QEAA@XZ 0000000180029360 f i esp.obj
 0001:000283c0       ??1?$lexer@V?$basic_json@Vmap@std@@Vvector@2@V?$basic_string@DU?$char_traits@D@std@@V?$allocator@D@2@@2@_N_J_KNVallocator@2@Uadl_serializer@nlohmann@@V?$vector@EV?$allocator@E@std@@@2@@nlohmann@@V?$iterator_input_adapter@V?$_String_const_iterator@V?$_String_val@U?$_Simple_types@D@std@@@std@@@std@@@detail@2@@detail@nlohmann@@QEAA@XZ 00000001800293c0 f i esp.obj
 0001:00028440       ??1?$output_adapter@DV?$basic_string@DU?$char_traits@D@std@@V?$allocator@D@2@@std@@@detail@nlohmann@@QEAA@XZ 0000000180029440 f i esp.obj
 0001:00028440       ??1?$shared_ptr@U?$output_adapter_protocol@D@detail@nlohmann@@@std@@QEAA@XZ 0000000180029440 f i esp.obj
 0001:000284a0       ??1?$parser@V?$basic_json@Vmap@std@@Vvector@2@V?$basic_string@DU?$char_traits@D@std@@V?$allocator@D@2@@2@_N_J_KNVallocator@2@Uadl_serializer@nlohmann@@V?$vector@EV?$allocator@E@std@@@2@@nlohmann@@V?$iterator_input_adapter@V?$_String_const_iterator@V?$_String_val@U?$_Simple_types@D@std@@@std@@@std@@@detail@2@@detail@nlohmann@@QEAA@XZ 00000001800294a0 f i esp.obj
 0001:000284e0       ??1?$serializer@V?$basic_json@Vmap@std@@Vvector@2@V?$basic_string@DU?$char_traits@D@std@@V?$allocator@D@2@@2@_N_J_KNVallocator@2@Uadl_serializer@nlohmann@@V?$vector@EV?$allocator@E@std@@@2@@nlohmann@@@detail@nlohmann@@QEAA@XZ 00000001800294e0 f i esp.obj
 0001:00028540       ??1?$unique_ptr@V?$basic_string@DU?$char_traits@D@std@@V?$allocator@D@2@@std@@V<lambda_2de10b4d9bd85293c17320916350cfdb>@@@std@@QEAA@XZ 0000000180029540 f i esp.obj
 0001:00028540       ??1?$unique_ptr@V?$basic_string@DU?$char_traits@D@std@@V?$allocator@D@2@@std@@V<lambda_411a8a9299dcc309d401f66b27c98609>@@@std@@QEAA@XZ 0000000180029540 f i esp.obj
 0001:00028540       ??1?$unique_ptr@V?$basic_string@DU?$char_traits@D@std@@V?$allocator@D@2@@std@@V<lambda_482f76375823093c2dd606526cfcef70>@@@std@@QEAA@XZ 0000000180029540 f i esp.obj
 0001:00028540       ??1?$unique_ptr@V?$basic_string@DU?$char_traits@D@std@@V?$allocator@D@2@@std@@V<lambda_6d144f48e77dc75533d86ed7b408bb68>@@@std@@QEAA@XZ 0000000180029540 f i esp.obj
 0001:00028540       ??1?$unique_ptr@V?$basic_string@DU?$char_traits@D@std@@V?$allocator@D@2@@std@@V<lambda_8db38fa7a4d649ec14f6819ed16d7bb7>@@@std@@QEAA@XZ 0000000180029540 f i esp.obj
 0001:00028540       ??1?$unique_ptr@V?$basic_string@DU?$char_traits@D@std@@V?$allocator@D@2@@std@@V<lambda_a07f6791f9813160d90de4c3614a066b>@@@std@@QEAA@XZ 0000000180029540 f i esp.obj
 0001:00028540       ??1?$unique_ptr@V?$basic_string@DU?$char_traits@D@std@@V?$allocator@D@2@@std@@V<lambda_a3b42b7968196f6862b61020331b2fd3>@@@std@@QEAA@XZ 0000000180029540 f i esp.obj
 0001:00028540       ??1?$unique_ptr@V?$basic_string@DU?$char_traits@D@std@@V?$allocator@D@2@@std@@V<lambda_ae8aa782aad406001cd59ecaee335991>@@@std@@QEAA@XZ 0000000180029540 f i esp.obj
 0001:00028540       ??1?$unique_ptr@V?$basic_string@DU?$char_traits@D@std@@V?$allocator@D@2@@std@@V<lambda_b13fc4a93e16f8c766ec571279afc04d>@@@std@@QEAA@XZ 0000000180029540 f i esp.obj
 0001:00028540       ??1?$unique_ptr@V?$basic_string@DU?$char_traits@D@std@@V?$allocator@D@2@@std@@V<lambda_b7d96494577d1206a504a512b9affe79>@@@std@@QEAA@XZ 0000000180029540 f i esp.obj
 0001:00028540       ??1?$unique_ptr@V?$basic_string@DU?$char_traits@D@std@@V?$allocator@D@2@@std@@V<lambda_c5bc357f61239864f376148ec2203f2f>@@@std@@QEAA@XZ 0000000180029540 f i esp.obj
 0001:00028540       ??1?$unique_ptr@V?$basic_string@DU?$char_traits@D@std@@V?$allocator@D@2@@std@@V<lambda_d1a290b119dc2d9004e5173584324001>@@@std@@QEAA@XZ 0000000180029540 f i esp.obj
 0001:00028540       ??1?$unique_ptr@V?$basic_string@DU?$char_traits@D@std@@V?$allocator@D@2@@std@@V<lambda_d2b0770f745dad38b120a5db8de65bb5>@@@std@@QEAA@XZ 0000000180029540 f i esp.obj
 0001:00028540       ??1?$unique_ptr@V?$basic_string@DU?$char_traits@D@std@@V?$allocator@D@2@@std@@V<lambda_d9e91b66af863a07f762a0d89ce71217>@@@std@@QEAA@XZ 0000000180029540 f i esp.obj
 0001:00028540       ??1?$unique_ptr@V?$basic_string@DU?$char_traits@D@std@@V?$allocator@D@2@@std@@V<lambda_e47b44149eb35b4d04f712b530b98711>@@@std@@QEAA@XZ 0000000180029540 f i esp.obj
 0001:00028540       ??1?$unique_ptr@V?$byte_container_with_subtype@V?$vector@EV?$allocator@E@std@@@std@@@nlohmann@@V<lambda_f2ff4bdc8896722d99d416be31f7c4a8>@@@std@@QEAA@XZ 0000000180029540 f i esp.obj
 0001:00028560       ??1?$unique_ptr@V?$map@V?$basic_string@DU?$char_traits@D@std@@V?$allocator@D@2@@std@@V?$basic_json@Vmap@std@@Vvector@2@V?$basic_string@DU?$char_traits@D@std@@V?$allocator@D@2@@2@_N_J_KNVallocator@2@Uadl_serializer@nlohmann@@V?$vector@EV?$allocator@E@std@@@2@@nlohmann@@U?$less@X@2@V?$allocator@U?$pair@$$CBV?$basic_string@DU?$char_traits@D@std@@V?$allocator@D@2@@std@@V?$basic_json@Vmap@std@@Vvector@2@V?$basic_string@DU?$char_traits@D@std@@V?$allocator@D@2@@2@_N_J_KNVallocator@2@Uadl_serializer@nlohmann@@V?$vector@EV?$allocator@E@std@@@2@@nlohmann@@@std@@@2@@std@@V<lambda_c7bc00e65efd36df8f9ac1a70405f304>@@@std@@QEAA@XZ 0000000180029560 f i esp.obj
 0001:00028560       ??1?$unique_ptr@V?$map@V?$basic_string@DU?$char_traits@D@std@@V?$allocator@D@2@@std@@V?$basic_json@Vmap@std@@Vvector@2@V?$basic_string@DU?$char_traits@D@std@@V?$allocator@D@2@@2@_N_J_KNVallocator@2@Uadl_serializer@nlohmann@@V?$vector@EV?$allocator@E@std@@@2@@nlohmann@@U?$less@X@2@V?$allocator@U?$pair@$$CBV?$basic_string@DU?$char_traits@D@std@@V?$allocator@D@2@@std@@V?$basic_json@Vmap@std@@Vvector@2@V?$basic_string@DU?$char_traits@D@std@@V?$allocator@D@2@@2@_N_J_KNVallocator@2@Uadl_serializer@nlohmann@@V?$vector@EV?$allocator@E@std@@@2@@nlohmann@@@std@@@2@@std@@V<lambda_cee2f97ecc79ac5979a3ae4c267275d8>@@@std@@QEAA@XZ 0000000180029560 f i esp.obj
 0001:00028580       ??1?$unique_ptr@V?$vector@V?$basic_json@Vmap@std@@Vvector@2@V?$basic_string@DU?$char_traits@D@std@@V?$allocator@D@2@@2@_N_J_KNVallocator@2@Uadl_serializer@nlohmann@@V?$vector@EV?$allocator@E@std@@@2@@nlohmann@@V?$allocator@V?$basic_json@Vmap@std@@Vvector@2@V?$basic_string@DU?$char_traits@D@std@@V?$allocator@D@2@@2@_N_J_KNVallocator@2@Uadl_serializer@nlohmann@@V?$vector@EV?$allocator@E@std@@@2@@nlohmann@@@std@@@std@@V<lambda_1fdcb88564d50e2abe2e448c8c1a1815>@@@std@@QEAA@XZ 0000000180029580 f i esp.obj
 0001:00028580       ??1?$unique_ptr@V?$vector@V?$basic_json@Vmap@std@@Vvector@2@V?$basic_string@DU?$char_traits@D@std@@V?$allocator@D@2@@2@_N_J_KNVallocator@2@Uadl_serializer@nlohmann@@V?$vector@EV?$allocator@E@std@@@2@@nlohmann@@V?$allocator@V?$basic_json@Vmap@std@@Vvector@2@V?$basic_string@DU?$char_traits@D@std@@V?$allocator@D@2@@2@_N_J_KNVallocator@2@Uadl_serializer@nlohmann@@V?$vector@EV?$allocator@E@std@@@2@@nlohmann@@@std@@@std@@V<lambda_ba9b6483669c30217d740fd4d08b34ec>@@@std@@QEAA@XZ 0000000180029580 f i esp.obj
 0001:00028580       ??1?$unique_ptr@V?$vector@V?$basic_json@Vmap@std@@Vvector@2@V?$basic_string@DU?$char_traits@D@std@@V?$allocator@D@2@@2@_N_J_KNVallocator@2@Uadl_serializer@nlohmann@@V?$vector@EV?$allocator@E@std@@@2@@nlohmann@@V?$allocator@V?$basic_json@Vmap@std@@Vvector@2@V?$basic_string@DU?$char_traits@D@std@@V?$allocator@D@2@@2@_N_J_KNVallocator@2@Uadl_serializer@nlohmann@@V?$vector@EV?$allocator@E@std@@@2@@nlohmann@@@std@@@std@@V<lambda_e190d70c879eba3d613e3b311aabdead>@@@std@@QEAA@XZ 0000000180029580 f i esp.obj
 0001:000285a0       ??1?$unique_ptr@V_Facet_base@std@@U?$default_delete@V_Facet_base@std@@@2@@std@@QEAA@XZ 00000001800295a0 f i esp.obj
 0001:000285c0       ??1?$vector@MV?$allocator@M@std@@@std@@QEAA@XZ 00000001800295c0 f i esp.obj
 0001:000285c0       ??1?$vector@_NV?$allocator@_N@std@@@std@@QEAA@XZ 00000001800295c0 f i esp.obj
 0001:00028620       ??1?$vector@U?$pair@_KV?$basic_string@DU?$char_traits@D@std@@V?$allocator@D@2@@std@@@std@@V?$allocator@U?$pair@_KV?$basic_string@DU?$char_traits@D@std@@V?$allocator@D@2@@std@@@std@@@2@@std@@QEAA@XZ 0000000180029620 f i esp.obj
 0001:00028640       ??1?$vector@U?$pair@_KW4entity_type@@@std@@V?$allocator@U?$pair@_KW4entity_type@@@std@@@2@@std@@QEAA@XZ 0000000180029640 f i esp.obj
 0001:000286a0       ??1?$vector@V?$basic_string@DU?$char_traits@D@std@@V?$allocator@D@2@@std@@V?$allocator@V?$basic_string@DU?$char_traits@D@std@@V?$allocator@D@2@@std@@@2@@std@@QEAA@XZ 00000001800296a0 f i esp.obj
 0001:000286b0       ??1?$vector@V?$tuple@_KV?$basic_string@DU?$char_traits@D@std@@V?$allocator@D@2@@std@@VVector3@@@std@@V?$allocator@V?$tuple@_KV?$basic_string@DU?$char_traits@D@std@@V?$allocator@D@2@@std@@VVector3@@@std@@@2@@std@@QEAA@XZ 00000001800296b0 f i esp.obj
 0001:000286c0       ??1?$vector@V?$tuple@_KV?$basic_string@DU?$char_traits@D@std@@V?$allocator@D@2@@std@@VVector3@@UImColor@@@std@@V?$allocator@V?$tuple@_KV?$basic_string@DU?$char_traits@D@std@@V?$allocator@D@2@@std@@VVector3@@UImColor@@@std@@@2@@std@@QEAA@XZ 00000001800296c0 f i esp.obj
 0001:000286d0       ??1?$vector@V?$tuple@_KV?$basic_string@DU?$char_traits@D@std@@V?$allocator@D@2@@std@@VVector3@@V?$time_point@Usteady_clock@chrono@std@@V?$duration@_JU?$ratio@$00$0DLJKMKAA@@std@@@23@@chrono@2@@std@@V?$allocator@V?$tuple@_KV?$basic_string@DU?$char_traits@D@std@@V?$allocator@D@2@@std@@VVector3@@V?$time_point@Usteady_clock@chrono@std@@V?$duration@_JU?$ratio@$00$0DLJKMKAA@@std@@@23@@chrono@2@@std@@@2@@std@@QEAA@XZ 00000001800296d0 f i esp.obj
 0001:000286e0       ??1?$vector@V?$tuple@_KV?$vector@V?$basic_string@DU?$char_traits@D@std@@V?$allocator@D@2@@std@@V?$allocator@V?$basic_string@DU?$char_traits@D@std@@V?$allocator@D@2@@std@@@2@@std@@VVector3@@UImColor@@@std@@V?$allocator@V?$tuple@_KV?$vector@V?$basic_string@DU?$char_traits@D@std@@V?$allocator@D@2@@std@@V?$allocator@V?$basic_string@DU?$char_traits@D@std@@V?$allocator@D@2@@std@@@2@@std@@VVector3@@UImColor@@@std@@@2@@std@@QEAA@XZ 00000001800296e0 f i esp.obj
 0001:000286f0       ??1_Sentry_base@?$basic_ostream@DU?$char_traits@D@std@@@std@@QEAA@XZ 00000001800296f0 f i esp.obj
 0001:000286f0       ??1_Sentry_base@?$basic_ostream@_WU?$char_traits@_W@std@@@std@@QEAA@XZ 00000001800296f0 f i esp.obj
 0001:00028720       ??1_System_error_message@std@@QEAA@XZ 0000000180029720 f i esp.obj
 0001:00028740       ??1filesystem_error@filesystem@std@@UEAA@XZ 0000000180029740 f i esp.obj
 0001:00028780       ??1invalid_iterator@detail@nlohmann@@UEAA@XZ 0000000180029780 f i esp.obj
 0001:00028780       ??1other_error@detail@nlohmann@@UEAA@XZ 0000000180029780 f i esp.obj
 0001:00028780       ??1out_of_range@detail@nlohmann@@UEAA@XZ 0000000180029780 f i esp.obj
 0001:00028780       ??1parse_error@detail@nlohmann@@UEAA@XZ 0000000180029780 f i esp.obj
 0001:00028780       ??1type_error@detail@nlohmann@@UEAA@XZ 0000000180029780 f i esp.obj
 0001:000287c0       ??1path@filesystem@std@@QEAA@XZ 00000001800297c0 f i esp.obj
 0001:000287e0       ??1sentry@?$basic_ostream@DU?$char_traits@D@std@@@std@@QEAA@XZ 00000001800297e0 f i esp.obj
 0001:000287e0       ??1sentry@?$basic_ostream@_WU?$char_traits@_W@std@@@std@@QEAA@XZ 00000001800297e0 f i esp.obj
 0001:00028820       ??4?$basic_json@Vmap@std@@Vvector@2@V?$basic_string@DU?$char_traits@D@std@@V?$allocator@D@2@@2@_N_J_KNVallocator@2@Uadl_serializer@nlohmann@@V?$vector@EV?$allocator@E@std@@@2@@nlohmann@@QEAAAEAV01@V01@@Z 0000000180029820 f i esp.obj
 0001:00028860       ??6nlohmann@@YAAEAV?$basic_ostream@DU?$char_traits@D@std@@@std@@AEAV12@AEBV?$basic_json@Vmap@std@@Vvector@2@V?$basic_string@DU?$char_traits@D@std@@V?$allocator@D@2@@2@_N_J_KNVallocator@2@Uadl_serializer@nlohmann@@V?$vector@EV?$allocator@E@std@@@2@@0@@Z 0000000180029860 f i esp.obj
 0001:00028b40       ??A?$basic_string@DU?$char_traits@D@std@@V?$allocator@D@2@@std@@QEAAAEAD_K@Z 0000000180029b40 f i esp.obj
 0001:00028b60       ??A?$map@V?$basic_string@DU?$char_traits@D@std@@V?$allocator@D@2@@std@@V?$basic_json@Vmap@std@@Vvector@2@V?$basic_string@DU?$char_traits@D@std@@V?$allocator@D@2@@2@_N_J_KNVallocator@2@Uadl_serializer@nlohmann@@V?$vector@EV?$allocator@E@std@@@2@@nlohmann@@U?$less@X@2@V?$allocator@U?$pair@$$CBV?$basic_string@DU?$char_traits@D@std@@V?$allocator@D@2@@std@@V?$basic_json@Vmap@std@@Vvector@2@V?$basic_string@DU?$char_traits@D@std@@V?$allocator@D@2@@2@_N_J_KNVallocator@2@Uadl_serializer@nlohmann@@V?$vector@EV?$allocator@E@std@@@2@@nlohmann@@@std@@@2@@std@@QEAAAEAV?$basic_json@Vmap@std@@Vvector@2@V?$basic_string@DU?$char_traits@D@std@@V?$allocator@D@2@@2@_N_J_KNVallocator@2@Uadl_serializer@nlohmann@@V?$vector@EV?$allocator@E@std@@@2@@nlohmann@@AEBV?$basic_string@DU?$char_traits@D@std@@V?$allocator@D@2@@1@@Z 0000000180029b60 f i esp.obj
 0001:00028c60       ??H?$_Vb_iterator@U?$_Wrap_alloc@V?$allocator@I@std@@@std@@@std@@QEBA?AV01@_J@Z 0000000180029c60 f i esp.obj
 0001:00028ce0       ??_0path@filesystem@std@@QEAAAEAV012@AEBV012@@Z 0000000180029ce0 f i esp.obj
 0001:00028ec0       ??_D?$basic_ifstream@DU?$char_traits@D@std@@@std@@QEAAXXZ 0000000180029ec0 f i esp.obj
 0001:00028f60       ??_D?$basic_ofstream@DU?$char_traits@D@std@@@std@@QEAAXXZ 0000000180029f60 f i esp.obj
 0001:00029000       ??_D?$basic_stringstream@_WU?$char_traits@_W@std@@V?$allocator@_W@2@@std@@QEAAXXZ 000000018002a000 f i esp.obj
 0001:000290f0       ??_E?$basic_ifstream@DU?$char_traits@D@std@@@std@@$4PPPPPPPM@A@EAAPEAXI@Z 000000018002a0f0 f i esp.obj
 0001:000290fc       ??_E?$basic_iostream@_WU?$char_traits@_W@std@@@std@@$4PPPPPPPM@A@EAAPEAXI@Z 000000018002a0fc f i esp.obj
 0001:00029108       ??_E?$basic_istream@DU?$char_traits@D@std@@@std@@$4PPPPPPPM@A@EAAPEAXI@Z 000000018002a108 f i esp.obj
 0001:00029108       ??_E?$basic_istream@_WU?$char_traits@_W@std@@@std@@$4PPPPPPPM@A@EAAPEAXI@Z 000000018002a108 f i esp.obj
 0001:00029114       ??_E?$basic_ofstream@DU?$char_traits@D@std@@@std@@$4PPPPPPPM@A@EAAPEAXI@Z 000000018002a114 f i esp.obj
 0001:00029120       ??_E?$basic_ostream@DU?$char_traits@D@std@@@std@@$4PPPPPPPM@A@EAAPEAXI@Z 000000018002a120 f i esp.obj
 0001:00029120       ??_E?$basic_ostream@_WU?$char_traits@_W@std@@@std@@$4PPPPPPPM@A@EAAPEAXI@Z 000000018002a120 f i esp.obj
 0001:0002912c       ??_E?$basic_stringstream@_WU?$char_traits@_W@std@@V?$allocator@_W@2@@std@@$4PPPPPPPM@A@EAAPEAXI@Z 000000018002a12c f i esp.obj
 0001:00029140       ??_E?$_Ref_count_obj2@V?$output_stream_adapter@D@detail@nlohmann@@@std@@UEAAPEAXI@Z 000000018002a140 f i esp.obj
 0001:00029140       ??_G?$_Ref_count_obj2@V?$output_stream_adapter@D@detail@nlohmann@@@std@@UEAAPEAXI@Z 000000018002a140 f i esp.obj
 0001:00029180       ??_E?$basic_filebuf@DU?$char_traits@D@std@@@std@@UEAAPEAXI@Z 000000018002a180 f i esp.obj
 0001:00029180       ??_G?$basic_filebuf@DU?$char_traits@D@std@@@std@@UEAAPEAXI@Z 000000018002a180 f i esp.obj
 0001:000291c0       ??_E?$basic_ifstream@DU?$char_traits@D@std@@@std@@UEAAPEAXI@Z 000000018002a1c0 f i esp.obj
 0001:000291c0       ??_G?$basic_ifstream@DU?$char_traits@D@std@@@std@@UEAAPEAXI@Z 000000018002a1c0 f i esp.obj
 0001:00029220       ??_E?$basic_ios@DU?$char_traits@D@std@@@std@@UEAAPEAXI@Z 000000018002a220 f i esp.obj
 0001:00029220       ??_E?$basic_ios@_WU?$char_traits@_W@std@@@std@@UEAAPEAXI@Z 000000018002a220 f i esp.obj
 0001:00029220       ??_G?$basic_ios@DU?$char_traits@D@std@@@std@@UEAAPEAXI@Z 000000018002a220 f i esp.obj
 0001:00029220       ??_G?$basic_ios@_WU?$char_traits@_W@std@@@std@@UEAAPEAXI@Z 000000018002a220 f i esp.obj
 0001:00029280       ??_E?$basic_iostream@_WU?$char_traits@_W@std@@@std@@UEAAPEAXI@Z 000000018002a280 f i esp.obj
 0001:00029280       ??_G?$basic_iostream@_WU?$char_traits@_W@std@@@std@@UEAAPEAXI@Z 000000018002a280 f i esp.obj
 0001:00029340       ??_E?$basic_istream@DU?$char_traits@D@std@@@std@@UEAAPEAXI@Z 000000018002a340 f i esp.obj
 0001:00029340       ??_E?$basic_istream@_WU?$char_traits@_W@std@@@std@@UEAAPEAXI@Z 000000018002a340 f i esp.obj
 0001:00029340       ??_G?$basic_istream@DU?$char_traits@D@std@@@std@@UEAAPEAXI@Z 000000018002a340 f i esp.obj
 0001:00029340       ??_G?$basic_istream@_WU?$char_traits@_W@std@@@std@@UEAAPEAXI@Z 000000018002a340 f i esp.obj
 0001:000293c0       ??_E?$basic_ofstream@DU?$char_traits@D@std@@@std@@UEAAPEAXI@Z 000000018002a3c0 f i esp.obj
 0001:000293c0       ??_G?$basic_ofstream@DU?$char_traits@D@std@@@std@@UEAAPEAXI@Z 000000018002a3c0 f i esp.obj
 0001:00029420       ??_E?$basic_ostream@DU?$char_traits@D@std@@@std@@UEAAPEAXI@Z 000000018002a420 f i esp.obj
 0001:00029420       ??_E?$basic_ostream@_WU?$char_traits@_W@std@@@std@@UEAAPEAXI@Z 000000018002a420 f i esp.obj
 0001:00029420       ??_G?$basic_ostream@DU?$char_traits@D@std@@@std@@UEAAPEAXI@Z 000000018002a420 f i esp.obj
 0001:00029420       ??_G?$basic_ostream@_WU?$char_traits@_W@std@@@std@@UEAAPEAXI@Z 000000018002a420 f i esp.obj
 0001:000294a0       ??_E?$basic_streambuf@DU?$char_traits@D@std@@@std@@UEAAPEAXI@Z 000000018002a4a0 f i esp.obj
 0001:000294a0       ??_G?$basic_streambuf@DU?$char_traits@D@std@@@std@@UEAAPEAXI@Z 000000018002a4a0 f i esp.obj
 0001:00029520       ??_E?$basic_streambuf@_WU?$char_traits@_W@std@@@std@@UEAAPEAXI@Z 000000018002a520 f i esp.obj
 0001:00029520       ??_G?$basic_streambuf@_WU?$char_traits@_W@std@@@std@@UEAAPEAXI@Z 000000018002a520 f i esp.obj
 0001:000295a0       ??_E?$basic_stringbuf@_WU?$char_traits@_W@std@@V?$allocator@_W@2@@std@@UEAAPEAXI@Z 000000018002a5a0 f i esp.obj
 0001:000295a0       ??_G?$basic_stringbuf@_WU?$char_traits@_W@std@@V?$allocator@_W@2@@std@@UEAAPEAXI@Z 000000018002a5a0 f i esp.obj
 0001:000295e0       ??_E?$basic_stringstream@_WU?$char_traits@_W@std@@V?$allocator@_W@2@@std@@UEAAPEAXI@Z 000000018002a5e0 f i esp.obj
 0001:000295e0       ??_G?$basic_stringstream@_WU?$char_traits@_W@std@@V?$allocator@_W@2@@std@@UEAAPEAXI@Z 000000018002a5e0 f i esp.obj
 0001:00029640       ??_E?$ctype@D@std@@MEAAPEAXI@Z 000000018002a640 f i esp.obj
 0001:00029640       ??_G?$ctype@D@std@@MEAAPEAXI@Z 000000018002a640 f i esp.obj
 0001:000296c0       ??_E?$ctype@_W@std@@MEAAPEAXI@Z 000000018002a6c0 f i esp.obj
 0001:000296c0       ??_G?$ctype@_W@std@@MEAAPEAXI@Z 000000018002a6c0 f i esp.obj
 0001:00029730       ??_E?$output_stream_adapter@D@detail@nlohmann@@UEAAPEAXI@Z 000000018002a730 f i esp.obj
 0001:00029730       ??_E_Generic_error_category@std@@UEAAPEAXI@Z 000000018002a730 f i esp.obj
 0001:00029730       ??_E_Iostream_error_category2@std@@UEAAPEAXI@Z 000000018002a730 f i esp.obj
 0001:00029730       ??_E_System_error_category@std@@UEAAPEAXI@Z 000000018002a730 f i esp.obj
 0001:00029730       ??_G?$output_stream_adapter@D@detail@nlohmann@@UEAAPEAXI@Z 000000018002a730 f i esp.obj
 0001:00029730       ??_G_Generic_error_category@std@@UEAAPEAXI@Z 000000018002a730 f i esp.obj
 0001:00029730       ??_G_Iostream_error_category2@std@@UEAAPEAXI@Z 000000018002a730 f i esp.obj
 0001:00029730       ??_G_System_error_category@std@@UEAAPEAXI@Z 000000018002a730 f i esp.obj
 0001:00029760       ??_E_System_error@std@@UEAAPEAXI@Z 000000018002a760 f i esp.obj
 0001:00029760       ??_Efailure@ios_base@std@@UEAAPEAXI@Z 000000018002a760 f i esp.obj
 0001:00029760       ??_Esystem_error@std@@UEAAPEAXI@Z 000000018002a760 f i esp.obj
 0001:00029760       ??_G_System_error@std@@UEAAPEAXI@Z 000000018002a760 f i esp.obj
 0001:00029760       ??_Gfailure@ios_base@std@@UEAAPEAXI@Z 000000018002a760 f i esp.obj
 0001:00029760       ??_Gsystem_error@std@@UEAAPEAXI@Z 000000018002a760 f i esp.obj
 0001:000297c0       ??_Eexception@detail@nlohmann@@UEAAPEAXI@Z 000000018002a7c0 f i esp.obj
 0001:000297c0       ??_Einvalid_iterator@detail@nlohmann@@UEAAPEAXI@Z 000000018002a7c0 f i esp.obj
 0001:000297c0       ??_Eother_error@detail@nlohmann@@UEAAPEAXI@Z 000000018002a7c0 f i esp.obj
 0001:000297c0       ??_Eout_of_range@detail@nlohmann@@UEAAPEAXI@Z 000000018002a7c0 f i esp.obj
 0001:000297c0       ??_Etype_error@detail@nlohmann@@UEAAPEAXI@Z 000000018002a7c0 f i esp.obj
 0001:000297c0       ??_Gexception@detail@nlohmann@@UEAAPEAXI@Z 000000018002a7c0 f i esp.obj
 0001:000297c0       ??_Ginvalid_iterator@detail@nlohmann@@UEAAPEAXI@Z 000000018002a7c0 f i esp.obj
 0001:000297c0       ??_Gother_error@detail@nlohmann@@UEAAPEAXI@Z 000000018002a7c0 f i esp.obj
 0001:000297c0       ??_Gout_of_range@detail@nlohmann@@UEAAPEAXI@Z 000000018002a7c0 f i esp.obj
 0001:000297c0       ??_Gtype_error@detail@nlohmann@@UEAAPEAXI@Z 000000018002a7c0 f i esp.obj
 0001:00029820       ??_Efilesystem_error@filesystem@std@@UEAAPEAXI@Z 000000018002a820 f i esp.obj
 0001:00029820       ??_Gfilesystem_error@filesystem@std@@UEAAPEAXI@Z 000000018002a820 f i esp.obj
 0001:000298a0       ??_Eios_base@std@@UEAAPEAXI@Z 000000018002a8a0 f i esp.obj
 0001:000298a0       ??_Gios_base@std@@UEAAPEAXI@Z 000000018002a8a0 f i esp.obj
 0001:00029900       ??_Eparse_error@detail@nlohmann@@UEAAPEAXI@Z 000000018002a900 f i esp.obj
 0001:00029900       ??_Gparse_error@detail@nlohmann@@UEAAPEAXI@Z 000000018002a900 f i esp.obj
 0001:00029960       ?_Buy_nonzero@?$vector@V?$basic_json@Vmap@std@@Vvector@2@V?$basic_string@DU?$char_traits@D@std@@V?$allocator@D@2@@2@_N_J_KNVallocator@2@Uadl_serializer@nlohmann@@V?$vector@EV?$allocator@E@std@@@2@@nlohmann@@V?$allocator@V?$basic_json@Vmap@std@@Vvector@2@V?$basic_string@DU?$char_traits@D@std@@V?$allocator@D@2@@2@_N_J_KNVallocator@2@Uadl_serializer@nlohmann@@V?$vector@EV?$allocator@E@std@@@2@@nlohmann@@@std@@@std@@AEAAX_K@Z 000000018002a960 f i esp.obj
 0001:00029a00       ?_Change_array@?$vector@DV?$allocator@D@std@@@std@@AEAAXQEAD_K1@Z 000000018002aa00 f i esp.obj
 0001:00029aa0       ?_Change_array@?$vector@MV?$allocator@M@std@@@std@@AEAAXQEAM_K1@Z 000000018002aaa0 f i esp.obj
 0001:00029b40       ?_Change_array@?$vector@PEAV?$basic_json@Vmap@std@@Vvector@2@V?$basic_string@DU?$char_traits@D@std@@V?$allocator@D@2@@2@_N_J_KNVallocator@2@Uadl_serializer@nlohmann@@V?$vector@EV?$allocator@E@std@@@2@@nlohmann@@V?$allocator@PEAV?$basic_json@Vmap@std@@Vvector@2@V?$basic_string@DU?$char_traits@D@std@@V?$allocator@D@2@@2@_N_J_KNVallocator@2@Uadl_serializer@nlohmann@@V?$vector@EV?$allocator@E@std@@@2@@nlohmann@@@std@@@std@@AEAAXQEAPEAV?$basic_json@Vmap@std@@Vvector@2@V?$basic_string@DU?$char_traits@D@std@@V?$allocator@D@2@@2@_N_J_KNVallocator@2@Uadl_serializer@nlohmann@@V?$vector@EV?$allocator@E@std@@@2@@nlohmann@@_K1@Z 000000018002ab40 f i esp.obj
 0001:00029be0       ?_Change_array@?$vector@V?$basic_json@Vmap@std@@Vvector@2@V?$basic_string@DU?$char_traits@D@std@@V?$allocator@D@2@@2@_N_J_KNVallocator@2@Uadl_serializer@nlohmann@@V?$vector@EV?$allocator@E@std@@@2@@nlohmann@@V?$allocator@V?$basic_json@Vmap@std@@Vvector@2@V?$basic_string@DU?$char_traits@D@std@@V?$allocator@D@2@@2@_N_J_KNVallocator@2@Uadl_serializer@nlohmann@@V?$vector@EV?$allocator@E@std@@@2@@nlohmann@@@std@@@std@@AEAAXQEAV?$basic_json@Vmap@std@@Vvector@2@V?$basic_string@DU?$char_traits@D@std@@V?$allocator@D@2@@2@_N_J_KNVallocator@2@Uadl_serializer@nlohmann@@V?$vector@EV?$allocator@E@std@@@2@@nlohmann@@_K1@Z 000000018002abe0 f i esp.obj
 0001:00029cc0       ?_Deallocate_for_capacity@?$basic_string@DU?$char_traits@D@std@@V?$allocator@D@2@@std@@CAXAEAV?$allocator@D@2@QEAD_K@Z 000000018002acc0 f i esp.obj
 0001:00029d00       ?_Delete_this@?$_Ref_count_obj2@V?$output_stream_adapter@D@detail@nlohmann@@@std@@EEAAXXZ 000000018002ad00 f i esp.obj
 0001:00029d20       ?_Destroy@?$_Ref_count_obj2@V?$output_stream_adapter@D@detail@nlohmann@@@std@@EEAAXXZ 000000018002ad20 f i esp.obj
 0001:00029d40       ?_Endwrite@?$basic_filebuf@DU?$char_traits@D@std@@@std@@IEAA_NXZ 000000018002ad40 f i esp.obj
 0001:00029e20       ?_Extract@?$_Tree_val@U?$_Tree_simple_types@U?$pair@$$CBV?$basic_string@DU?$char_traits@D@std@@V?$allocator@D@2@@std@@V?$basic_json@Vmap@std@@Vvector@2@V?$basic_string@DU?$char_traits@D@std@@V?$allocator@D@2@@2@_N_J_KNVallocator@2@Uadl_serializer@nlohmann@@V?$vector@EV?$allocator@E@std@@@2@@nlohmann@@@std@@@std@@@std@@QEAAPEAU?$_Tree_node@U?$pair@$$CBV?$basic_string@DU?$char_traits@D@std@@V?$allocator@D@2@@std@@V?$basic_json@Vmap@std@@Vvector@2@V?$basic_string@DU?$char_traits@D@std@@V?$allocator@D@2@@2@_N_J_KNVallocator@2@Uadl_serializer@nlohmann@@V?$vector@EV?$allocator@E@std@@@2@@nlohmann@@@std@@PEAX@2@V?$_Tree_unchecked_const_iterator@V?$_Tree_val@U?$_Tree_simple_types@U?$pair@$$CBV?$basic_string@DU?$char_traits@D@std@@V?$allocator@D@2@@std@@V?$basic_json@Vmap@std@@Vvector@2@V?$basic_string@DU?$char_traits@D@std@@V?$allocator@D@2@@2@_N_J_KNVallocator@2@Uadl_serializer@nlohmann@@V?$vector@EV?$allocator@E@std@@@2@@nlohmann@@@std@@@std@@@std@@U_Iterator_base0@2@@2@@Z 000000018002ae20 f i esp.obj
 0001:0002a1c0       ?_Find_root_name_end@filesystem@std@@YAPEB_WQEB_W0@Z 000000018002b1c0 f i esp.obj
 0001:0002a2c0       ?_Getal@?$_Tree@V?$_Tmap_traits@V?$basic_string@DU?$char_traits@D@std@@V?$allocator@D@2@@std@@V?$basic_json@Vmap@std@@Vvector@2@V?$basic_string@DU?$char_traits@D@std@@V?$allocator@D@2@@2@_N_J_KNVallocator@2@Uadl_serializer@nlohmann@@V?$vector@EV?$allocator@E@std@@@2@@nlohmann@@U?$less@X@2@V?$allocator@U?$pair@$$CBV?$basic_string@DU?$char_traits@D@std@@V?$allocator@D@2@@std@@V?$basic_json@Vmap@std@@Vvector@2@V?$basic_string@DU?$char_traits@D@std@@V?$allocator@D@2@@2@_N_J_KNVallocator@2@Uadl_serializer@nlohmann@@V?$vector@EV?$allocator@E@std@@@2@@nlohmann@@@std@@@2@$0A@@std@@@std@@IEAAAEAV?$allocator@U?$_Tree_node@U?$pair@$$CBV?$basic_string@DU?$char_traits@D@std@@V?$allocator@D@2@@std@@V?$basic_json@Vmap@std@@Vvector@2@V?$basic_string@DU?$char_traits@D@std@@V?$allocator@D@2@@2@_N_J_KNVallocator@2@Uadl_serializer@nlohmann@@V?$vector@EV?$allocator@E@std@@@2@@nlohmann@@@std@@PEAX@std@@@2@XZ 000000018002b2c0 f i esp.obj
 0001:0002a2c0       ?setbuf@?$basic_streambuf@DU?$char_traits@D@std@@@std@@MEAAPEAV12@PEAD_J@Z 000000018002b2c0 f i esp.obj
 0001:0002a2c0       ?setbuf@?$basic_streambuf@_WU?$char_traits@_W@std@@@std@@MEAAPEAV12@PEA_W_J@Z 000000018002b2c0 f i esp.obj
 0001:0002a2c0       curlx_sotouz               000000018002b2c0 f i libcurl_a:warnless.obj
 0001:0002a2e0       ?_Getcat@?$codecvt@DDU_Mbstatet@@@std@@SA_KPEAPEBVfacet@locale@2@PEBV42@@Z 000000018002b2e0 f i esp.obj
 0001:0002a4c0       ?_Getcat@?$ctype@D@std@@SA_KPEAPEBVfacet@locale@2@PEBV42@@Z 000000018002b4c0 f i esp.obj
 0001:0002a6a0       ?_Getcat@?$ctype@_W@std@@SA_KPEAPEBVfacet@locale@2@PEBV42@@Z 000000018002b6a0 f i esp.obj
 0001:0002a8b0       ?_Gnavail@?$basic_streambuf@DU?$char_traits@D@std@@@std@@IEBA_JXZ 000000018002b8b0 f i esp.obj
 0001:0002a8b0       ?_Gnavail@?$basic_streambuf@_WU?$char_traits@_W@std@@@std@@IEBA_JXZ 000000018002b8b0 f i esp.obj
 0001:0002a8e0       ?_Init@?$basic_filebuf@DU?$char_traits@D@std@@@std@@IEAAXPEAU_iobuf@@W4_Initfl@12@@Z 000000018002b8e0 f i esp.obj
 0001:0002a9c0       ?_Init@ios_base@std@@IEAAXXZ 000000018002b9c0 f i esp.obj
 0001:0002aa60       ?_Initcvt@?$basic_filebuf@DU?$char_traits@D@std@@@std@@IEAAXAEBV?$codecvt@DDU_Mbstatet@@@2@@Z 000000018002ba60 f i esp.obj
 0001:0002ab00       ?_Insert_node@?$_Tree_val@U?$_Tree_simple_types@U?$pair@$$CBV?$basic_string@DU?$char_traits@D@std@@V?$allocator@D@2@@std@@V?$basic_json@Vmap@std@@Vvector@2@V?$basic_string@DU?$char_traits@D@std@@V?$allocator@D@2@@2@_N_J_KNVallocator@2@Uadl_serializer@nlohmann@@V?$vector@EV?$allocator@E@std@@@2@@nlohmann@@@std@@@std@@@std@@QEAAPEAU?$_Tree_node@U?$pair@$$CBV?$basic_string@DU?$char_traits@D@std@@V?$allocator@D@2@@std@@V?$basic_json@Vmap@std@@Vvector@2@V?$basic_string@DU?$char_traits@D@std@@V?$allocator@D@2@@2@_N_J_KNVallocator@2@Uadl_serializer@nlohmann@@V?$vector@EV?$allocator@E@std@@@2@@nlohmann@@@std@@PEAX@2@U?$_Tree_id@PEAU?$_Tree_node@U?$pair@$$CBV?$basic_string@DU?$char_traits@D@std@@V?$allocator@D@2@@std@@V?$basic_json@Vmap@std@@Vvector@2@V?$basic_string@DU?$char_traits@D@std@@V?$allocator@D@2@@2@_N_J_KNVallocator@2@Uadl_serializer@nlohmann@@V?$vector@EV?$allocator@E@std@@@2@@nlohmann@@@std@@PEAX@std@@@2@QEAU32@@Z 000000018002bb00 f i esp.obj
 0001:0002ad80       ?_Insert_x@?$vector@_NV?$allocator@_N@std@@@std@@QEAA_KV?$_Vb_const_iterator@U?$_Wrap_alloc@V?$allocator@I@std@@@std@@@2@_K@Z 000000018002bd80 f i esp.obj
 0001:0002afc0       ?_Lock@?$basic_filebuf@DU?$char_traits@D@std@@@std@@UEAAXXZ 000000018002bfc0 f i esp.obj
 0001:0002afe0       ??3@YAXPEAXUImNewWrapper@@0@Z 000000018002bfe0 f i imgui.obj
 0001:0002afe0       ?_Lock@?$basic_streambuf@DU?$char_traits@D@std@@@std@@UEAAXXZ 000000018002bfe0 f i esp.obj
 0001:0002afe0       ?_Lock@?$basic_streambuf@_WU?$char_traits@_W@std@@@std@@UEAAXXZ 000000018002bfe0 f i esp.obj
 0001:0002afe0       ?_Unlock@?$basic_streambuf@DU?$char_traits@D@std@@@std@@UEAAXXZ 000000018002bfe0 f i esp.obj
 0001:0002afe0       ?_Unlock@?$basic_streambuf@_WU?$char_traits@_W@std@@@std@@UEAAXXZ 000000018002bfe0 f i esp.obj
 0001:0002afe0       ?do_close@?$messages@D@std@@MEBAXH@Z 000000018002bfe0 f i libcpmt:xlocale.obj
 0001:0002afe0       ?do_close@?$messages@G@std@@MEBAXH@Z 000000018002bfe0 f i libcpmt:wlocale.obj
 0001:0002afe0       ?do_close@?$messages@_W@std@@MEBAXH@Z 000000018002bfe0 f i libcpmt:wlocale.obj
 0001:0002afe0       ?imbue@?$basic_streambuf@DU?$char_traits@D@std@@@std@@MEAAXAEBVlocale@2@@Z 000000018002bfe0 f i esp.obj
 0001:0002afe0       ?imbue@?$basic_streambuf@_WU?$char_traits@_W@std@@@std@@MEAAXAEBVlocale@2@@Z 000000018002bfe0 f i esp.obj
 0001:0002afe0       Curl_none_cleanup          000000018002bfe0 f i libcurl_a:vtls.obj
 0001:0002afe0       Curl_none_close_all        000000018002bfe0 f i libcurl_a:vtls.obj
 0001:0002afe0       Curl_none_session_free     000000018002bfe0 f i libcurl_a:vtls.obj
 0001:0002afe0       _Mtx_destroy_in_situ       000000018002bfe0 f i libcpmt:mutex.obj
 0001:0002afe0       __sanitizer_annotate_contiguous_container 000000018002bfe0 f i libcpmt:asan_noop.obj
 0001:0002afe0       __sanitizer_annotate_contiguous_container_default 000000018002bfe0 f i libcpmt:asan_noop.obj
 0001:0002afe0       _guard_check_icall_nop     000000018002bfe0 f i LIBCMT:guard_support.obj
 0001:0002aff0       ?_Lrotate@?$_Tree_val@U?$_Tree_simple_types@U?$pair@$$CBV?$basic_string@DU?$char_traits@D@std@@V?$allocator@D@2@@std@@V?$basic_json@Vmap@std@@Vvector@2@V?$basic_string@DU?$char_traits@D@std@@V?$allocator@D@2@@2@_N_J_KNVallocator@2@Uadl_serializer@nlohmann@@V?$vector@EV?$allocator@E@std@@@2@@nlohmann@@@std@@@std@@@std@@QEAAXPEAU?$_Tree_node@U?$pair@$$CBV?$basic_string@DU?$char_traits@D@std@@V?$allocator@D@2@@std@@V?$basic_json@Vmap@std@@Vvector@2@V?$basic_string@DU?$char_traits@D@std@@V?$allocator@D@2@@2@_N_J_KNVallocator@2@Uadl_serializer@nlohmann@@V?$vector@EV?$allocator@E@std@@@2@@nlohmann@@@std@@PEAX@2@@Z 000000018002bff0 f i esp.obj
 0001:0002b050       ?_Make_ec@std@@YA?AVerror_code@1@W4__std_win_error@@@Z 000000018002c050 f i esp.obj
 0001:0002b080       ?_Osfx@?$basic_ostream@DU?$char_traits@D@std@@@std@@QEAAXXZ 000000018002c080 f i esp.obj
 0001:0002b080       ?_Osfx@?$basic_ostream@_WU?$char_traits@_W@std@@@std@@QEAAXXZ 000000018002c080 f i esp.obj
 0001:0002b140       ?_Peek@?$istreambuf_iterator@DU?$char_traits@D@std@@@std@@AEBADXZ 000000018002c140 f i esp.obj
 0001:0002b1a0       ?_Pnavail@?$basic_streambuf@DU?$char_traits@D@std@@@std@@IEBA_JXZ 000000018002c1a0 f i esp.obj
 0001:0002b1a0       ?_Pnavail@?$basic_streambuf@_WU?$char_traits@_W@std@@@std@@IEBA_JXZ 000000018002c1a0 f i esp.obj
 0001:0002b1c0       ?_Pretty_message@filesystem_error@filesystem@std@@CA?AV?$basic_string@DU?$char_traits@D@std@@V?$allocator@D@2@@3@V?$basic_string_view@DU?$char_traits@D@std@@@3@AEBVpath@23@1@Z 000000018002c1c0 f i esp.obj
 0001:0002b4c0       ?_Range_compare@filesystem@std@@YAHQEB_W000@Z 000000018002c4c0 f i esp.obj
 0001:0002b540       ?_Rehash_for_1@?$_Hash@V?$_Umap_traits@KUrCache@@V?$_Uhash_compare@KU?$hash@K@std@@U?$equal_to@K@2@@std@@V?$allocator@U?$pair@$$CBKUrCache@@@std@@@3@$0A@@std@@@std@@IEAAXXZ 000000018002c540 f i esp.obj
 0001:0002b620       ?_Reset_back@?$basic_filebuf@DU?$char_traits@D@std@@@std@@AEAAXXZ 000000018002c620 f i esp.obj
 0001:0002b660       ?_Rrotate@?$_Tree_val@U?$_Tree_simple_types@U?$pair@$$CBV?$basic_string@DU?$char_traits@D@std@@V?$allocator@D@2@@std@@V?$basic_json@Vmap@std@@Vvector@2@V?$basic_string@DU?$char_traits@D@std@@V?$allocator@D@2@@2@_N_J_KNVallocator@2@Uadl_serializer@nlohmann@@V?$vector@EV?$allocator@E@std@@@2@@nlohmann@@@std@@@std@@@std@@QEAAXPEAU?$_Tree_node@U?$pair@$$CBV?$basic_string@DU?$char_traits@D@std@@V?$allocator@D@2@@std@@V?$basic_json@Vmap@std@@Vvector@2@V?$basic_string@DU?$char_traits@D@std@@V?$allocator@D@2@@2@_N_J_KNVallocator@2@Uadl_serializer@nlohmann@@V?$vector@EV?$allocator@E@std@@@2@@nlohmann@@@std@@PEAX@2@@Z 000000018002c660 f i esp.obj
 0001:0002b6c0       ?_Throw_bad_cast@std@@YAXXZ 000000018002c6c0 f i esp.obj
 0001:0002b6e0       ?_Throw_fs_error@filesystem@std@@YAXPEBDAEBVerror_code@2@AEBVpath@12@@Z 000000018002c6e0 f i esp.obj
 0001:0002b740       ?_Throw_system_error@std@@YAXW4errc@1@@Z 000000018002c740 f i esp.obj
 0001:0002b780       ?_Throw_system_error_from_std_win_error@std@@YAXW4__std_win_error@@@Z 000000018002c780 f i esp.obj
 0001:0002b7c0       ?_Throw_tree_length_error@std@@YAXXZ 000000018002c7c0 f i esp.obj
 0001:0002b7e0       ?_Tidy@?$basic_stringbuf@_WU?$char_traits@_W@std@@V?$allocator@_W@2@@std@@IEAAXXZ 000000018002c7e0 f i esp.obj
 0001:0002b8e0       ?_Tidy@?$vector@U?$pair@_KV?$basic_string@DU?$char_traits@D@std@@V?$allocator@D@2@@std@@@std@@V?$allocator@U?$pair@_KV?$basic_string@DU?$char_traits@D@std@@V?$allocator@D@2@@std@@@std@@@2@@std@@AEAAXXZ 000000018002c8e0 f i esp.obj
 0001:0002b9a0       ?_Tidy@?$vector@V?$basic_json@Vmap@std@@Vvector@2@V?$basic_string@DU?$char_traits@D@std@@V?$allocator@D@2@@2@_N_J_KNVallocator@2@Uadl_serializer@nlohmann@@V?$vector@EV?$allocator@E@std@@@2@@nlohmann@@V?$allocator@V?$basic_json@Vmap@std@@Vvector@2@V?$basic_string@DU?$char_traits@D@std@@V?$allocator@D@2@@2@_N_J_KNVallocator@2@Uadl_serializer@nlohmann@@V?$vector@EV?$allocator@E@std@@@2@@nlohmann@@@std@@@std@@AEAAXXZ 000000018002c9a0 f i esp.obj
 0001:0002ba60       ?_Tidy@?$vector@V?$basic_string@DU?$char_traits@D@std@@V?$allocator@D@2@@std@@V?$allocator@V?$basic_string@DU?$char_traits@D@std@@V?$allocator@D@2@@std@@@2@@std@@AEAAXXZ 000000018002ca60 f i esp.obj
 0001:0002bb00       ?_Tidy@?$vector@V?$tuple@_KV?$basic_string@DU?$char_traits@D@std@@V?$allocator@D@2@@std@@VVector3@@@std@@V?$allocator@V?$tuple@_KV?$basic_string@DU?$char_traits@D@std@@V?$allocator@D@2@@std@@VVector3@@@std@@@2@@std@@AEAAXXZ 000000018002cb00 f i esp.obj
 0001:0002bbc0       ?_Tidy@?$vector@V?$tuple@_KV?$basic_string@DU?$char_traits@D@std@@V?$allocator@D@2@@std@@VVector3@@UImColor@@@std@@V?$allocator@V?$tuple@_KV?$basic_string@DU?$char_traits@D@std@@V?$allocator@D@2@@std@@VVector3@@UImColor@@@std@@@2@@std@@AEAAXXZ 000000018002cbc0 f i esp.obj
 0001:0002bc80       ?_Tidy@?$vector@V?$tuple@_KV?$basic_string@DU?$char_traits@D@std@@V?$allocator@D@2@@std@@VVector3@@V?$time_point@Usteady_clock@chrono@std@@V?$duration@_JU?$ratio@$00$0DLJKMKAA@@std@@@23@@chrono@2@@std@@V?$allocator@V?$tuple@_KV?$basic_string@DU?$char_traits@D@std@@V?$allocator@D@2@@std@@VVector3@@V?$time_point@Usteady_clock@chrono@std@@V?$duration@_JU?$ratio@$00$0DLJKMKAA@@std@@@23@@chrono@2@@std@@@2@@std@@AEAAXXZ 000000018002cc80 f i esp.obj
 0001:0002bd20       ?_Tidy@?$vector@V?$tuple@_KV?$vector@V?$basic_string@DU?$char_traits@D@std@@V?$allocator@D@2@@std@@V?$allocator@V?$basic_string@DU?$char_traits@D@std@@V?$allocator@D@2@@std@@@2@@std@@VVector3@@UImColor@@@std@@V?$allocator@V?$tuple@_KV?$vector@V?$basic_string@DU?$char_traits@D@std@@V?$allocator@D@2@@std@@V?$allocator@V?$basic_string@DU?$char_traits@D@std@@V?$allocator@D@2@@std@@@2@@std@@VVector3@@UImColor@@@std@@@2@@std@@AEAAXXZ 000000018002cd20 f i esp.obj
 0001:0002bdc0       ?_Trim@?$vector@_NV?$allocator@_N@std@@@std@@QEAAX_K@Z 000000018002cdc0 f i esp.obj
 0001:0002be40       ?_Unlock@?$basic_filebuf@DU?$char_traits@D@std@@@std@@UEAAXXZ 000000018002ce40 f i esp.obj
 0001:0002be60       ?_Xlen@?$vector@_NV?$allocator@_N@std@@@std@@SAXXZ 000000018002ce60 f i esp.obj
 0001:0002be80       ?_Xran@?$_String_val@U?$_Simple_types@D@std@@@std@@SAXXZ 000000018002ce80 f i object_loop.obj
 0001:0002be80       ?_Xran@?$_String_val@U?$_Simple_types@G@std@@@std@@SAXXZ 000000018002ce80 f i libcpmt:wlocale.obj
 0001:0002be80       ?_Xran@?$_String_val@U?$_Simple_types@_W@std@@@std@@SAXXZ 000000018002ce80 f i esp.obj
 0001:0002bea0       ?add@?$lexer@V?$basic_json@Vmap@std@@Vvector@2@V?$basic_string@DU?$char_traits@D@std@@V?$allocator@D@2@@2@_N_J_KNVallocator@2@Uadl_serializer@nlohmann@@V?$vector@EV?$allocator@E@std@@@2@@nlohmann@@V?$iterator_input_adapter@V?$_String_const_iterator@V?$_String_val@U?$_Simple_types@D@std@@@std@@@std@@@detail@2@@detail@nlohmann@@AEAAXH@Z 000000018002cea0 f i esp.obj
 0001:0002bee0       ?append@?$basic_string@DU?$char_traits@D@std@@V?$allocator@D@2@@std@@QEAAAEAV12@QEBD_K@Z 000000018002cee0 f i esp.obj
 0001:0002bf70       ?append@?$basic_string@_WU?$char_traits@_W@std@@V?$allocator@_W@2@@std@@QEAAAEAV12@QEB_W_K@Z 000000018002cf70 f i esp.obj
 0001:0002bff0       ?assign@?$basic_string@_WU?$char_traits@_W@std@@V?$allocator@_W@2@@std@@QEAAAEAV12@QEB_W_K@Z 000000018002cff0 f i esp.obj
 0001:0002c060       ?back@?$basic_string@DU?$char_traits@D@std@@V?$allocator@D@2@@std@@QEBAAEBDXZ 000000018002d060 f i esp.obj
 0001:0002c080       ?back@?$vector@_NV?$allocator@_N@std@@@std@@QEAA?AV?$_Vb_reference@U?$_Wrap_alloc@V?$allocator@I@std@@@std@@@2@XZ 000000018002d080 f i esp.obj
 0001:0002c100       ?boolean@?$json_sax_dom_parser@V?$basic_json@Vmap@std@@Vvector@2@V?$basic_string@DU?$char_traits@D@std@@V?$allocator@D@2@@2@_N_J_KNVallocator@2@Uadl_serializer@nlohmann@@V?$vector@EV?$allocator@E@std@@@2@@nlohmann@@@detail@nlohmann@@QEAA_N_N@Z 000000018002d100 f i esp.obj
 0001:0002c1a0       ?clear@ios_base@std@@QEAAXH@Z 000000018002d1a0 f i esp.obj
 0001:0002c220       ?close@?$basic_filebuf@DU?$char_traits@D@std@@@std@@QEAAPEAV12@XZ 000000018002d220 f i esp.obj
 0001:0002c340       ?close@?$basic_ofstream@DU?$char_traits@D@std@@@std@@QEAAXXZ 000000018002d340 f i esp.obj
 0001:0002c3e0       ?copy_clr@@YAXAEAY02MV?$vector@MV?$allocator@M@std@@@std@@@Z 000000018002d3e0 f i esp.obj
 0001:0002c460       ?count_digits@?$serializer@V?$basic_json@Vmap@std@@Vvector@2@V?$basic_string@DU?$char_traits@D@std@@V?$allocator@D@2@@2@_N_J_KNVallocator@2@Uadl_serializer@nlohmann@@V?$vector@EV?$allocator@E@std@@@2@@nlohmann@@@detail@nlohmann@@AEAAI_K@Z 000000018002d460 f i esp.obj
 0001:0002c4c0       ?create@invalid_iterator@detail@nlohmann@@SA?AV123@HAEBV?$basic_string@DU?$char_traits@D@std@@V?$allocator@D@2@@std@@@Z 000000018002d4c0 f i esp.obj
 0001:0002c6e0       ?create@other_error@detail@nlohmann@@SA?AV123@HAEBV?$basic_string@DU?$char_traits@D@std@@V?$allocator@D@2@@std@@@Z 000000018002d6e0 f i esp.obj
 0001:0002c900       ?create@out_of_range@detail@nlohmann@@SA?AV123@HAEBV?$basic_string@DU?$char_traits@D@std@@V?$allocator@D@2@@std@@@Z 000000018002d900 f i esp.obj
 0001:0002cb20       ?create@parse_error@detail@nlohmann@@SA?AV123@HAEBUposition_t@23@AEBV?$basic_string@DU?$char_traits@D@std@@V?$allocator@D@2@@std@@@Z 000000018002db20 f i esp.obj
 0001:0002cfa0       ?create@type_error@detail@nlohmann@@SA?AV123@HAEBV?$basic_string@DU?$char_traits@D@std@@V?$allocator@D@2@@std@@@Z 000000018002dfa0 f i esp.obj
 0001:0002d1c0       ?create_directories@filesystem@std@@YA_NAEBVpath@12@AEAVerror_code@2@@Z 000000018002e1c0 f i esp.obj
 0001:0002d4c0       ?deallocate@?$allocator@D@std@@QEAAXQEAD_K@Z 000000018002e4c0 f i esp.obj
 0001:0002d500       ?deallocate@?$allocator@I@std@@QEAAXQEAI_K@Z 000000018002e500 f i esp.obj
 0001:0002d500       ?deallocate@?$allocator@M@std@@QEAAXQEAM_K@Z 000000018002e500 f i esp.obj
 0001:0002d560       ?deallocate@?$allocator@PEAV?$basic_json@Vmap@std@@Vvector@2@V?$basic_string@DU?$char_traits@D@std@@V?$allocator@D@2@@2@_N_J_KNVallocator@2@Uadl_serializer@nlohmann@@V?$vector@EV?$allocator@E@std@@@2@@nlohmann@@@std@@QEAAXQEAPEAV?$basic_json@Vmap@std@@Vvector@2@V?$basic_string@DU?$char_traits@D@std@@V?$allocator@D@2@@2@_N_J_KNVallocator@2@Uadl_serializer@nlohmann@@V?$vector@EV?$allocator@E@std@@@2@@nlohmann@@_K@Z 000000018002e560 f i esp.obj
 0001:0002d5c0       ?deallocate@?$allocator@U?$pair@_KW4entity_type@@@std@@@std@@QEAAXQEAU?$pair@_KW4entity_type@@@2@_K@Z 000000018002e5c0 f i object_loop.obj
 0001:0002d5c0       ?deallocate@?$allocator@V?$basic_json@Vmap@std@@Vvector@2@V?$basic_string@DU?$char_traits@D@std@@V?$allocator@D@2@@2@_N_J_KNVallocator@2@Uadl_serializer@nlohmann@@V?$vector@EV?$allocator@E@std@@@2@@nlohmann@@@std@@QEAAXQEAV?$basic_json@Vmap@std@@Vvector@2@V?$basic_string@DU?$char_traits@D@std@@V?$allocator@D@2@@2@_N_J_KNVallocator@2@Uadl_serializer@nlohmann@@V?$vector@EV?$allocator@E@std@@@2@@nlohmann@@_K@Z 000000018002e5c0 f i esp.obj
 0001:0002d620       ?deallocate@?$allocator@_W@std@@QEAAXQEA_W_K@Z 000000018002e620 f i esp.obj
 0001:0002d660       ?default_error_condition@_System_error_category@std@@UEBA?AVerror_condition@2@H@Z 000000018002e660 f i esp.obj
 0001:0002d6e0       ?default_error_condition@error_category@std@@UEBA?AVerror_condition@2@H@Z 000000018002e6e0 f i esp.obj
 0001:0002d700       ?destroy@json_value@?$basic_json@Vmap@std@@Vvector@2@V?$basic_string@DU?$char_traits@D@std@@V?$allocator@D@2@@2@_N_J_KNVallocator@2@Uadl_serializer@nlohmann@@V?$vector@EV?$allocator@E@std@@@2@@nlohmann@@QEAAXW4value_t@detail@3@@Z 000000018002e700 f i esp.obj
 0001:0002dc10       ?do_always_noconv@?$codecvt@DDU_Mbstatet@@@std@@MEBA_NXZ 000000018002ec10 f i esp.obj
 0001:0002dc10       __acrt_uninitialize_command_line 000000018002ec10 f i libucrt:argv_data.obj
 0001:0002dc20       ?do_in@?$codecvt@DDU_Mbstatet@@@std@@MEBAHAEAU_Mbstatet@@PEBD1AEAPEBDPEAD3AEAPEAD@Z 000000018002ec20 f i esp.obj
 0001:0002dc20       ?do_out@?$codecvt@DDU_Mbstatet@@@std@@MEBAHAEAU_Mbstatet@@PEBD1AEAPEBDPEAD3AEAPEAD@Z 000000018002ec20 f i esp.obj
 0001:0002dc40       ?do_is@?$ctype@G@std@@MEBAPEBGPEBG0PEAF@Z 000000018002ec40 f i libcpmt:wlocale.obj
 0001:0002dc40       ?do_is@?$ctype@_W@std@@MEBAPEB_WPEB_W0PEAF@Z 000000018002ec40 f i esp.obj
 0001:0002dc60       ?do_is@?$ctype@G@std@@MEBA_NFG@Z 000000018002ec60 f i libcpmt:wlocale.obj
 0001:0002dc60       ?do_is@?$ctype@_W@std@@MEBA_NF_W@Z 000000018002ec60 f i esp.obj
 0001:0002dc90       ?do_narrow@?$ctype@D@std@@MEBADDD@Z 000000018002ec90 f i esp.obj
 0001:0002dc90       ?do_widen@?$ctype@D@std@@MEBADD@Z 000000018002ec90 f i esp.obj
 0001:0002dca0       ?do_narrow@?$ctype@D@std@@MEBAPEBDPEBD0DPEAD@Z 000000018002eca0 f i esp.obj
 0001:0002dcc0       ?do_narrow@?$ctype@_W@std@@MEBAD_WD@Z 000000018002ecc0 f i esp.obj
 0001:0002dd00       ?do_narrow@?$ctype@_W@std@@MEBAPEB_WPEB_W0DPEAD@Z 000000018002ed00 f i esp.obj
 0001:0002dda0       ?do_scan_is@?$ctype@_W@std@@MEBAPEB_WFPEB_W0@Z 000000018002eda0 f i esp.obj
 0001:0002de20       ?do_scan_not@?$ctype@_W@std@@MEBAPEB_WFPEB_W0@Z 000000018002ee20 f i esp.obj
 0001:0002de90       ?do_tolower@?$ctype@D@std@@MEBADD@Z 000000018002ee90 f i esp.obj
 0001:0002dea0       ?do_tolower@?$ctype@D@std@@MEBAPEBDPEADPEBD@Z 000000018002eea0 f i esp.obj
 0001:0002def0       ?do_tolower@?$ctype@_W@std@@MEBAPEB_WPEA_WPEB_W@Z 000000018002eef0 f i esp.obj
 0001:0002df40       ?do_tolower@?$ctype@G@std@@MEBAGG@Z 000000018002ef40 f i libcpmt:wlocale.obj
 0001:0002df40       ?do_tolower@?$ctype@_W@std@@MEBA_W_W@Z 000000018002ef40 f i esp.obj
 0001:0002df50       ?do_toupper@?$ctype@D@std@@MEBADD@Z 000000018002ef50 f i esp.obj
 0001:0002df60       ?do_toupper@?$ctype@D@std@@MEBAPEBDPEADPEBD@Z 000000018002ef60 f i esp.obj
 0001:0002dfb0       ?do_toupper@?$ctype@_W@std@@MEBAPEB_WPEA_WPEB_W@Z 000000018002efb0 f i esp.obj
 0001:0002e000       ?do_toupper@?$ctype@G@std@@MEBAGG@Z 000000018002f000 f i libcpmt:wlocale.obj
 0001:0002e000       ?do_toupper@?$ctype@_W@std@@MEBA_W_W@Z 000000018002f000 f i esp.obj
 0001:0002e020       ?do_widen@?$ctype@D@std@@MEBAPEBDPEBD0PEAD@Z 000000018002f020 f i esp.obj
 0001:0002e040       ?do_widen@?$ctype@_W@std@@MEBAPEBDPEBD0PEA_W@Z 000000018002f040 f i esp.obj
 0001:0002e0e0       ?do_widen@?$ctype@_W@std@@MEBA_WD@Z 000000018002f0e0 f i esp.obj
 0001:0002e140       ?dump@?$serializer@V?$basic_json@Vmap@std@@Vvector@2@V?$basic_string@DU?$char_traits@D@std@@V?$allocator@D@2@@2@_N_J_KNVallocator@2@Uadl_serializer@nlohmann@@V?$vector@EV?$allocator@E@std@@@2@@nlohmann@@@detail@nlohmann@@QEAAXAEBV?$basic_json@Vmap@std@@Vvector@2@V?$basic_string@DU?$char_traits@D@std@@V?$allocator@D@2@@2@_N_J_KNVallocator@2@Uadl_serializer@nlohmann@@V?$vector@EV?$allocator@E@std@@@2@@3@_N1II@Z 000000018002f140 f i esp.obj
 0001:0002ed80       ?dump_escaped@?$serializer@V?$basic_json@Vmap@std@@Vvector@2@V?$basic_string@DU?$char_traits@D@std@@V?$allocator@D@2@@2@_N_J_KNVallocator@2@Uadl_serializer@nlohmann@@V?$vector@EV?$allocator@E@std@@@2@@nlohmann@@@detail@nlohmann@@AEAAXAEBV?$basic_string@DU?$char_traits@D@std@@V?$allocator@D@2@@std@@_N@Z 000000018002fd80 f i esp.obj
 0001:0002f2c0       ?end_array@?$json_sax_dom_callback_parser@V?$basic_json@Vmap@std@@Vvector@2@V?$basic_string@DU?$char_traits@D@std@@V?$allocator@D@2@@2@_N_J_KNVallocator@2@Uadl_serializer@nlohmann@@V?$vector@EV?$allocator@E@std@@@2@@nlohmann@@@detail@nlohmann@@QEAA_NXZ 00000001800302c0 f i esp.obj
 0001:0002f3c0       ?end_object@?$json_sax_dom_callback_parser@V?$basic_json@Vmap@std@@Vvector@2@V?$basic_string@DU?$char_traits@D@std@@V?$allocator@D@2@@2@_N_J_KNVallocator@2@Uadl_serializer@nlohmann@@V?$vector@EV?$allocator@E@std@@@2@@nlohmann@@@detail@nlohmann@@QEAA_NXZ 00000001800303c0 f i esp.obj
 0001:0002f6e0       ?equivalent@error_category@std@@UEBA_NAEBVerror_code@2@H@Z 00000001800306e0 f i esp.obj
 0001:0002f700       ?equivalent@error_category@std@@UEBA_NHAEBVerror_condition@2@@Z 0000000180030700 f i esp.obj
 0001:0002f740       ?erase@?$vector@_NV?$allocator@_N@std@@@std@@QEAA?AV?$_Vb_iterator@U?$_Wrap_alloc@V?$allocator@I@std@@@std@@@2@V?$_Vb_const_iterator@U?$_Wrap_alloc@V?$allocator@I@std@@@std@@@2@@Z 0000000180030740 f i esp.obj
 0001:0002f960       ?exception_message@?$parser@V?$basic_json@Vmap@std@@Vvector@2@V?$basic_string@DU?$char_traits@D@std@@V?$allocator@D@2@@2@_N_J_KNVallocator@2@Uadl_serializer@nlohmann@@V?$vector@EV?$allocator@E@std@@@2@@nlohmann@@V?$iterator_input_adapter@V?$_String_const_iterator@V?$_String_val@U?$_Simple_types@D@std@@@std@@@std@@@detail@2@@detail@nlohmann@@AEAA?AV?$basic_string@DU?$char_traits@D@std@@V?$allocator@D@2@@std@@W4token_type@?$lexer_base@V?$basic_json@Vmap@std@@Vvector@2@V?$basic_string@DU?$char_traits@D@std@@V?$allocator@D@2@@2@_N_J_KNVallocator@2@Uadl_serializer@nlohmann@@V?$vector@EV?$allocator@E@std@@@2@@nlohmann@@@23@AEBV45@@Z 0000000180030960 f i esp.obj
 0001:00030100       ?flush@?$basic_ostream@DU?$char_traits@D@std@@@std@@QEAAAEAV12@XZ 0000000180031100 f i esp.obj
 0001:00030100       ?flush@?$basic_ostream@_WU?$char_traits@_W@std@@@std@@QEAAAEAV12@XZ 0000000180031100 f i esp.obj
 0001:00030240       ?format_buffer@dtoa_impl@detail@nlohmann@@YAPEADPEADHHHH@Z 0000000180031240 f i esp.obj
 0001:00030420       ?get@?$lexer@V?$basic_json@Vmap@std@@Vvector@2@V?$basic_string@DU?$char_traits@D@std@@V?$allocator@D@2@@2@_N_J_KNVallocator@2@Uadl_serializer@nlohmann@@V?$vector@EV?$allocator@E@std@@@2@@nlohmann@@V?$iterator_input_adapter@V?$_String_const_iterator@V?$_String_val@U?$_Simple_types@D@std@@@std@@@std@@@detail@2@@detail@nlohmann@@AEAAHXZ 0000000180031420 f i esp.obj
 0001:000304c0       ?get_codepoint@?$lexer@V?$basic_json@Vmap@std@@Vvector@2@V?$basic_string@DU?$char_traits@D@std@@V?$allocator@D@2@@2@_N_J_KNVallocator@2@Uadl_serializer@nlohmann@@V?$vector@EV?$allocator@E@std@@@2@@nlohmann@@V?$iterator_input_adapter@V?$_String_const_iterator@V?$_String_val@U?$_Simple_types@D@std@@@std@@@std@@@detail@2@@detail@nlohmann@@AEAAHXZ 00000001800314c0 f i esp.obj
 0001:000305e0       ?get_token_string@?$lexer@V?$basic_json@Vmap@std@@Vvector@2@V?$basic_string@DU?$char_traits@D@std@@V?$allocator@D@2@@2@_N_J_KNVallocator@2@Uadl_serializer@nlohmann@@V?$vector@EV?$allocator@E@std@@@2@@nlohmann@@V?$iterator_input_adapter@V?$_String_const_iterator@V?$_String_val@U?$_Simple_types@D@std@@@std@@@std@@@detail@2@@detail@nlohmann@@QEBA?AV?$basic_string@DU?$char_traits@D@std@@V?$allocator@D@2@@std@@XZ 00000001800315e0 f i esp.obj
 0001:00030740       ?grisu2@dtoa_impl@detail@nlohmann@@YAXPEADAEAH1Udiyfp@123@22@Z 0000000180031740 f i esp.obj
 0001:000309a0       ?grisu2_digit_gen@dtoa_impl@detail@nlohmann@@YAXPEADAEAH1Udiyfp@123@22@Z 00000001800319a0 f i esp.obj
 0001:00030c00       ?imbue@?$basic_filebuf@DU?$char_traits@D@std@@@std@@MEAAXAEBVlocale@2@@Z 0000000180031c00 f i esp.obj
 0001:00030c40       ?init@?$basic_ios@DU?$char_traits@D@std@@@std@@IEAAXPEAV?$basic_streambuf@DU?$char_traits@D@std@@@2@_N@Z 0000000180031c40 f i esp.obj
 0001:00030d60       ?is_absolute@path@filesystem@std@@QEBA_NXZ 0000000180031d60 f i esp.obj
 0001:00030de0       ?key@?$json_sax_dom_callback_parser@V?$basic_json@Vmap@std@@Vvector@2@V?$basic_string@DU?$char_traits@D@std@@V?$allocator@D@2@@2@_N_J_KNVallocator@2@Uadl_serializer@nlohmann@@V?$vector@EV?$allocator@E@std@@@2@@nlohmann@@@detail@nlohmann@@QEAA_NAEAV?$basic_string@DU?$char_traits@D@std@@V?$allocator@D@2@@std@@@Z 0000000180031de0 f i esp.obj
 0001:00030f10       ?make_error_code@std@@YA?AVerror_code@1@W4errc@1@@Z 0000000180031f10 f i esp.obj
 0001:00030f30       ?make_error_code@std@@YA?AVerror_code@1@W4io_errc@1@@Z 0000000180031f30 f i esp.obj
 0001:00030f60       ?max_size@?$basic_json@Vmap@std@@Vvector@2@V?$basic_string@DU?$char_traits@D@std@@V?$allocator@D@2@@2@_N_J_KNVallocator@2@Uadl_serializer@nlohmann@@V?$vector@EV?$allocator@E@std@@@2@@nlohmann@@QEBA_KXZ 0000000180031f60 f i esp.obj
 0001:00030fe0       ?message@_Generic_error_category@std@@UEBA?AV?$basic_string@DU?$char_traits@D@std@@V?$allocator@D@2@@2@H@Z 0000000180031fe0 f i esp.obj
 0001:00031040       ?message@_Iostream_error_category2@std@@UEBA?AV?$basic_string@DU?$char_traits@D@std@@V?$allocator@D@2@@2@H@Z 0000000180032040 f i esp.obj
 0001:00031100       ?message@_System_error_category@std@@UEBA?AV?$basic_string@DU?$char_traits@D@std@@V?$allocator@D@2@@2@H@Z 0000000180032100 f i esp.obj
 0001:000311a0       ?name@_Generic_error_category@std@@UEBAPEBDXZ 00000001800321a0 f i esp.obj
 0001:000311b0       ?name@_Iostream_error_category2@std@@UEBAPEBDXZ 00000001800321b0 f i esp.obj
 0001:000311c0       ?name@_System_error_category@std@@UEBAPEBDXZ 00000001800321c0 f i esp.obj
 0001:000311e0       ?name@exception@detail@nlohmann@@KA?AV?$basic_string@DU?$char_traits@D@std@@V?$allocator@D@2@@std@@AEBV45@H@Z 00000001800321e0 f i esp.obj
 0001:000314a0       ?next_byte_in_range@?$lexer@V?$basic_json@Vmap@std@@Vvector@2@V?$basic_string@DU?$char_traits@D@std@@V?$allocator@D@2@@2@_N_J_KNVallocator@2@Uadl_serializer@nlohmann@@V?$vector@EV?$allocator@E@std@@@2@@nlohmann@@V?$iterator_input_adapter@V?$_String_const_iterator@V?$_String_val@U?$_Simple_types@D@std@@@std@@@std@@@detail@2@@detail@nlohmann@@AEAA_NV?$initializer_list@H@std@@@Z 00000001800324a0 f i esp.obj
 0001:00031600       ?null@?$json_sax_dom_parser@V?$basic_json@Vmap@std@@Vvector@2@V?$basic_string@DU?$char_traits@D@std@@V?$allocator@D@2@@2@_N_J_KNVallocator@2@Uadl_serializer@nlohmann@@V?$vector@EV?$allocator@E@std@@@2@@nlohmann@@@detail@nlohmann@@QEAA_NXZ 0000000180032600 f i esp.obj
 0001:000316e0       ?number_float@?$json_sax_dom_parser@V?$basic_json@Vmap@std@@Vvector@2@V?$basic_string@DU?$char_traits@D@std@@V?$allocator@D@2@@2@_N_J_KNVallocator@2@Uadl_serializer@nlohmann@@V?$vector@EV?$allocator@E@std@@@2@@nlohmann@@@detail@nlohmann@@QEAA_NNAEBV?$basic_string@DU?$char_traits@D@std@@V?$allocator@D@2@@std@@@Z 00000001800326e0 f i esp.obj
 0001:00031780       ?number_integer@?$json_sax_dom_parser@V?$basic_json@Vmap@std@@Vvector@2@V?$basic_string@DU?$char_traits@D@std@@V?$allocator@D@2@@2@_N_J_KNVallocator@2@Uadl_serializer@nlohmann@@V?$vector@EV?$allocator@E@std@@@2@@nlohmann@@@detail@nlohmann@@QEAA_N_J@Z 0000000180032780 f i esp.obj
 0001:00031820       ?number_unsigned@?$json_sax_dom_parser@V?$basic_json@Vmap@std@@Vvector@2@V?$basic_string@DU?$char_traits@D@std@@V?$allocator@D@2@@2@_N_J_KNVallocator@2@Uadl_serializer@nlohmann@@V?$vector@EV?$allocator@E@std@@@2@@nlohmann@@@detail@nlohmann@@QEAA_N_K@Z 0000000180032820 f i esp.obj
 0001:000318c0       ?overflow@?$basic_filebuf@DU?$char_traits@D@std@@@std@@MEAAHH@Z 00000001800328c0 f i esp.obj
 0001:00031a70       ?overflow@?$basic_streambuf@DU?$char_traits@D@std@@@std@@MEAAHH@Z 0000000180032a70 f i esp.obj
 0001:00031a70       ?pbackfail@?$basic_streambuf@DU?$char_traits@D@std@@@std@@MEAAHH@Z 0000000180032a70 f i esp.obj
 0001:00031a70       ?underflow@?$basic_streambuf@DU?$char_traits@D@std@@@std@@MEAAHXZ 0000000180032a70 f i esp.obj
 0001:00031a70       Curl_none_check_cxn        0000000180032a70 f i libcurl_a:vtls.obj
 0001:00031a80       ?overflow@?$basic_streambuf@_WU?$char_traits@_W@std@@@std@@MEAAGG@Z 0000000180032a80 f i esp.obj
 0001:00031a80       ?pbackfail@?$basic_streambuf@_WU?$char_traits@_W@std@@@std@@MEAAGG@Z 0000000180032a80 f i esp.obj
 0001:00031a80       ?underflow@?$basic_streambuf@_WU?$char_traits@_W@std@@@std@@MEAAGXZ 0000000180032a80 f i esp.obj
 0001:00031aa0       ?overflow@?$basic_stringbuf@_WU?$char_traits@_W@std@@V?$allocator@_W@2@@std@@MEAAGG@Z 0000000180032aa0 f i esp.obj
 0001:00031ce0       ?parent_path@path@filesystem@std@@QEBA?AV123@XZ 0000000180032ce0 f i esp.obj
 0001:00031de0       ?parse@?$parser@V?$basic_json@Vmap@std@@Vvector@2@V?$basic_string@DU?$char_traits@D@std@@V?$allocator@D@2@@2@_N_J_KNVallocator@2@Uadl_serializer@nlohmann@@V?$vector@EV?$allocator@E@std@@@2@@nlohmann@@V?$iterator_input_adapter@V?$_String_const_iterator@V?$_String_val@U?$_Simple_types@D@std@@@std@@@std@@@detail@2@@detail@nlohmann@@QEAAX_NAEAV?$basic_json@Vmap@std@@Vvector@2@V?$basic_string@DU?$char_traits@D@std@@V?$allocator@D@2@@2@_N_J_KNVallocator@2@Uadl_serializer@nlohmann@@V?$vector@EV?$allocator@E@std@@@2@@3@@Z 0000000180032de0 f i esp.obj
 0001:00032420       ?pbackfail@?$basic_filebuf@DU?$char_traits@D@std@@@std@@MEAAHH@Z 0000000180033420 f i esp.obj
 0001:00032520       ?pbackfail@?$basic_stringbuf@_WU?$char_traits@_W@std@@V?$allocator@_W@2@@std@@MEAAGG@Z 0000000180033520 f i esp.obj
 0001:000325a0       ?pop_back@?$vector@_NV?$allocator@_N@std@@@std@@QEAAXXZ 00000001800335a0 f i esp.obj
 0001:00032640       ?position_string@parse_error@detail@nlohmann@@CA?AV?$basic_string@DU?$char_traits@D@std@@V?$allocator@D@2@@std@@AEBUposition_t@23@@Z 0000000180033640 f i esp.obj
 0001:00032a00       ?push_back@?$vector@_NV?$allocator@_N@std@@@std@@QEAAXAEB_N@Z 0000000180033a00 f i esp.obj
 0001:00032b80       ?put@?$basic_ostream@DU?$char_traits@D@std@@@std@@QEAAAEAV12@D@Z 0000000180033b80 f i esp.obj
 0001:00032d40       ?reset@?$lexer@V?$basic_json@Vmap@std@@Vvector@2@V?$basic_string@DU?$char_traits@D@std@@V?$allocator@D@2@@2@_N_J_KNVallocator@2@Uadl_serializer@nlohmann@@V?$vector@EV?$allocator@E@std@@@2@@nlohmann@@V?$iterator_input_adapter@V?$_String_const_iterator@V?$_String_val@U?$_Simple_types@D@std@@@std@@@std@@@detail@2@@detail@nlohmann@@AEAAXXZ 0000000180033d40 f i esp.obj
 0001:00032dc0       ?resize@?$basic_string@DU?$char_traits@D@std@@V?$allocator@D@2@@std@@QEAAX_KD@Z 0000000180033dc0 f i esp.obj
 0001:00032e60       ?resize@?$basic_string@_WU?$char_traits@_W@std@@V?$allocator@_W@2@@std@@QEAAX_K_W@Z 0000000180033e60 f i esp.obj
 0001:00032f00       ?scan@?$lexer@V?$basic_json@Vmap@std@@Vvector@2@V?$basic_string@DU?$char_traits@D@std@@V?$allocator@D@2@@2@_N_J_KNVallocator@2@Uadl_serializer@nlohmann@@V?$vector@EV?$allocator@E@std@@@2@@nlohmann@@V?$iterator_input_adapter@V?$_String_const_iterator@V?$_String_val@U?$_Simple_types@D@std@@@std@@@std@@@detail@2@@detail@nlohmann@@QEAA?AW4token_type@?$lexer_base@V?$basic_json@Vmap@std@@Vvector@2@V?$basic_string@DU?$char_traits@D@std@@V?$allocator@D@2@@2@_N_J_KNVallocator@2@Uadl_serializer@nlohmann@@V?$vector@EV?$allocator@E@std@@@2@@nlohmann@@@23@XZ 0000000180033f00 f i esp.obj
 0001:00033360       ?scan_comment@?$lexer@V?$basic_json@Vmap@std@@Vvector@2@V?$basic_string@DU?$char_traits@D@std@@V?$allocator@D@2@@2@_N_J_KNVallocator@2@Uadl_serializer@nlohmann@@V?$vector@EV?$allocator@E@std@@@2@@nlohmann@@V?$iterator_input_adapter@V?$_String_const_iterator@V?$_String_val@U?$_Simple_types@D@std@@@std@@@std@@@detail@2@@detail@nlohmann@@AEAA_NXZ 0000000180034360 f i esp.obj
 0001:000335c0       ?scan_literal@?$lexer@V?$basic_json@Vmap@std@@Vvector@2@V?$basic_string@DU?$char_traits@D@std@@V?$allocator@D@2@@2@_N_J_KNVallocator@2@Uadl_serializer@nlohmann@@V?$vector@EV?$allocator@E@std@@@2@@nlohmann@@V?$iterator_input_adapter@V?$_String_const_iterator@V?$_String_val@U?$_Simple_types@D@std@@@std@@@std@@@detail@2@@detail@nlohmann@@AEAA?AW4token_type@?$lexer_base@V?$basic_json@Vmap@std@@Vvector@2@V?$basic_string@DU?$char_traits@D@std@@V?$allocator@D@2@@2@_N_J_KNVallocator@2@Uadl_serializer@nlohmann@@V?$vector@EV?$allocator@E@std@@@2@@nlohmann@@@23@PEBD_KW44523@@Z 00000001800345c0 f i esp.obj
 0001:000336c0       ?scan_number@?$lexer@V?$basic_json@Vmap@std@@Vvector@2@V?$basic_string@DU?$char_traits@D@std@@V?$allocator@D@2@@2@_N_J_KNVallocator@2@Uadl_serializer@nlohmann@@V?$vector@EV?$allocator@E@std@@@2@@nlohmann@@V?$iterator_input_adapter@V?$_String_const_iterator@V?$_String_val@U?$_Simple_types@D@std@@@std@@@std@@@detail@2@@detail@nlohmann@@AEAA?AW4token_type@?$lexer_base@V?$basic_json@Vmap@std@@Vvector@2@V?$basic_string@DU?$char_traits@D@std@@V?$allocator@D@2@@2@_N_J_KNVallocator@2@Uadl_serializer@nlohmann@@V?$vector@EV?$allocator@E@std@@@2@@nlohmann@@@23@XZ 00000001800346c0 f i esp.obj
 0001:00033fc0       ?scan_string@?$lexer@V?$basic_json@Vmap@std@@Vvector@2@V?$basic_string@DU?$char_traits@D@std@@V?$allocator@D@2@@2@_N_J_KNVallocator@2@Uadl_serializer@nlohmann@@V?$vector@EV?$allocator@E@std@@@2@@nlohmann@@V?$iterator_input_adapter@V?$_String_const_iterator@V?$_String_val@U?$_Simple_types@D@std@@@std@@@std@@@detail@2@@detail@nlohmann@@AEAA?AW4token_type@?$lexer_base@V?$basic_json@Vmap@std@@Vvector@2@V?$basic_string@DU?$char_traits@D@std@@V?$allocator@D@2@@2@_N_J_KNVallocator@2@Uadl_serializer@nlohmann@@V?$vector@EV?$allocator@E@std@@@2@@nlohmann@@@23@XZ 0000000180034fc0 f i esp.obj
 0001:00034b20       ?seekoff@?$basic_filebuf@DU?$char_traits@D@std@@@std@@MEAA?AV?$fpos@U_Mbstatet@@@2@_JHH@Z 0000000180035b20 f i esp.obj
 0001:00034bf0       ?seekoff@?$basic_streambuf@DU?$char_traits@D@std@@@std@@MEAA?AV?$fpos@U_Mbstatet@@@2@_JHH@Z 0000000180035bf0 f i esp.obj
 0001:00034bf0       ?seekoff@?$basic_streambuf@_WU?$char_traits@_W@std@@@std@@MEAA?AV?$fpos@U_Mbstatet@@@2@_JHH@Z 0000000180035bf0 f i esp.obj
 0001:00034bf0       ?seekpos@?$basic_streambuf@DU?$char_traits@D@std@@@std@@MEAA?AV?$fpos@U_Mbstatet@@@2@V32@H@Z 0000000180035bf0 f i esp.obj
 0001:00034bf0       ?seekpos@?$basic_streambuf@_WU?$char_traits@_W@std@@@std@@MEAA?AV?$fpos@U_Mbstatet@@@2@V32@H@Z 0000000180035bf0 f i esp.obj
 0001:00034c20       ?seekoff@?$basic_stringbuf@_WU?$char_traits@_W@std@@V?$allocator@_W@2@@std@@MEAA?AV?$fpos@U_Mbstatet@@@2@_JHH@Z 0000000180035c20 f i esp.obj
 0001:00034e00       ?seekpos@?$basic_filebuf@DU?$char_traits@D@std@@@std@@MEAA?AV?$fpos@U_Mbstatet@@@2@V32@H@Z 0000000180035e00 f i esp.obj
 0001:00034ec0       ?seekpos@?$basic_stringbuf@_WU?$char_traits@_W@std@@V?$allocator@_W@2@@std@@MEAA?AV?$fpos@U_Mbstatet@@@2@V32@H@Z 0000000180035ec0 f i esp.obj
 0001:00035020       ?setbuf@?$basic_filebuf@DU?$char_traits@D@std@@@std@@MEAAPEAV?$basic_streambuf@DU?$char_traits@D@std@@@2@PEAD_J@Z 0000000180036020 f i esp.obj
 0001:00035080       ?size@?$basic_string@DU?$char_traits@D@std@@V?$allocator@D@2@@std@@QEBA_KXZ 0000000180036080 f i esp.obj
 0001:000350a0       ?skip_whitespace@?$lexer@V?$basic_json@Vmap@std@@Vvector@2@V?$basic_string@DU?$char_traits@D@std@@V?$allocator@D@2@@2@_N_J_KNVallocator@2@Uadl_serializer@nlohmann@@V?$vector@EV?$allocator@E@std@@@2@@nlohmann@@V?$iterator_input_adapter@V?$_String_const_iterator@V?$_String_val@U?$_Simple_types@D@std@@@std@@@std@@@detail@2@@detail@nlohmann@@QEAAXXZ 00000001800360a0 f i esp.obj
 0001:00035160       ?start_array@?$json_sax_dom_callback_parser@V?$basic_json@Vmap@std@@Vvector@2@V?$basic_string@DU?$char_traits@D@std@@V?$allocator@D@2@@2@_N_J_KNVallocator@2@Uadl_serializer@nlohmann@@V?$vector@EV?$allocator@E@std@@@2@@nlohmann@@@detail@nlohmann@@QEAA_N_K@Z 0000000180036160 f i esp.obj
 0001:000352a0       ?start_object@?$json_sax_dom_callback_parser@V?$basic_json@Vmap@std@@Vvector@2@V?$basic_string@DU?$char_traits@D@std@@V?$allocator@D@2@@2@_N_J_KNVallocator@2@Uadl_serializer@nlohmann@@V?$vector@EV?$allocator@E@std@@@2@@nlohmann@@@detail@nlohmann@@QEAA_N_K@Z 00000001800362a0 f i esp.obj
 0001:000353e0       ?sync@?$basic_filebuf@DU?$char_traits@D@std@@@std@@MEAAHXZ 00000001800363e0 f i esp.obj
 0001:00035430       ?to_string@std@@YA?AV?$basic_string@DU?$char_traits@D@std@@V?$allocator@D@2@@1@H@Z 0000000180036430 f i esp.obj
 0001:000354e0       ?to_string@std@@YA?AV?$basic_string@DU?$char_traits@D@std@@V?$allocator@D@2@@1@_K@Z 00000001800364e0 f i esp.obj
 0001:00035550       ?token_type_name@?$lexer_base@V?$basic_json@Vmap@std@@Vvector@2@V?$basic_string@DU?$char_traits@D@std@@V?$allocator@D@2@@2@_N_J_KNVallocator@2@Uadl_serializer@nlohmann@@V?$vector@EV?$allocator@E@std@@@2@@nlohmann@@@detail@nlohmann@@SAPEBDW4token_type@123@@Z 0000000180036550 f i esp.obj
 0001:00035640       ?type_name@?$basic_json@Vmap@std@@Vvector@2@V?$basic_string@DU?$char_traits@D@std@@V?$allocator@D@2@@2@_N_J_KNVallocator@2@Uadl_serializer@nlohmann@@V?$vector@EV?$allocator@E@std@@@2@@nlohmann@@QEBAPEBDXZ 0000000180036640 f i esp.obj
 0001:000356e0       ?uflow@?$basic_filebuf@DU?$char_traits@D@std@@@std@@MEAAHXZ 00000001800366e0 f i esp.obj
 0001:000359c0       ?uflow@?$basic_streambuf@DU?$char_traits@D@std@@@std@@MEAAHXZ 00000001800369c0 f i esp.obj
 0001:00035a00       ?uflow@?$basic_streambuf@_WU?$char_traits@_W@std@@@std@@MEAAGXZ 0000000180036a00 f i esp.obj
 0001:00035a40       ?underflow@?$basic_filebuf@DU?$char_traits@D@std@@@std@@MEAAHXZ 0000000180036a40 f i esp.obj
 0001:00035ac0       ?underflow@?$basic_stringbuf@_WU?$char_traits@_W@std@@V?$allocator@_W@2@@std@@MEAAGXZ 0000000180036ac0 f i esp.obj
 0001:00035b30       ?what@exception@detail@nlohmann@@UEBAPEBDXZ 0000000180036b30 f i esp.obj
 0001:00035b50       ?what@filesystem_error@filesystem@std@@UEBAPEBDXZ 0000000180036b50 f i esp.obj
 0001:00035b60       ?write@?$basic_ostream@DU?$char_traits@D@std@@@std@@QEAAAEAV12@PEBD_J@Z 0000000180036b60 f i esp.obj
 0001:00035d00       ?write_character@?$output_stream_adapter@D@detail@nlohmann@@UEAAXD@Z 0000000180036d00 f i esp.obj
 0001:00035d10       ?write_characters@?$output_stream_adapter@D@detail@nlohmann@@UEAAXPEBD_K@Z 0000000180036d10 f i esp.obj
 0001:00035d20       ?xsgetn@?$basic_filebuf@DU?$char_traits@D@std@@@std@@MEAA_JPEAD_J@Z 0000000180036d20 f i esp.obj
 0001:00035ee0       ?xsgetn@?$basic_streambuf@DU?$char_traits@D@std@@@std@@MEAA_JPEAD_J@Z 0000000180036ee0 f i esp.obj
 0001:00035fa0       ?xsgetn@?$basic_streambuf@_WU?$char_traits@_W@std@@@std@@MEAA_JPEA_W_J@Z 0000000180036fa0 f i esp.obj
 0001:00036080       ?xsputn@?$basic_filebuf@DU?$char_traits@D@std@@@std@@MEAA_JPEBD_J@Z 0000000180037080 f i esp.obj
 0001:000361c0       ?xsputn@?$basic_streambuf@DU?$char_traits@D@std@@@std@@MEAA_JPEBD_J@Z 00000001800371c0 f i esp.obj
 0001:00036280       ?xsputn@?$basic_streambuf@_WU?$char_traits@_W@std@@@std@@MEAA_JPEB_W_J@Z 0000000180037280 f i esp.obj
 0001:00036350       __local_stdio_printf_options 0000000180037350 f i esp.obj
 0001:00036360       snprintf                   0000000180037360 f i esp.obj
 0001:000363c0       sprintf                    00000001800373c0 f i esp.obj
 0001:00036420       ?find_window@syscalls@@YAPEAUHWND__@@PEBD0@Z 0000000180037420 f   include.obj
 0001:00036740       ?get_async_key_state@syscalls@@YAFF@Z 0000000180037740 f   include.obj
 0001:000369e0       ?get_foreground_window@syscalls@@YAPEAUHWND__@@XZ 00000001800379e0 f   include.obj
 0001:00036c80       ?show_window@syscalls@@YAHPEAUHWND__@@H@Z 0000000180037c80 f   include.obj
 0001:00036f20       ?set_window_pos@syscalls@@YAHPEAUHWND__@@0HHHHI@Z 0000000180037f20 f   include.obj
 0001:00037080       ?get_window@syscalls@@YAPEAUHWND__@@PEAU2@I@Z 0000000180038080 f   include.obj
 0001:000372e0       ?set_window_rgn@syscalls@@YAHPEAUHWND__@@PEAUHRGN__@@H@Z 00000001800382e0 f   include.obj
 0001:00037580       ??$SyscallWin32k@HHHIPEAUHWND__@@PEAU1@HH@@YAHV?$basic_string@DU?$char_traits@D@std@@V?$allocator@D@2@@std@@PEAUHWND__@@1HHHHI@Z 0000000180038580 f i include.obj
 0001:000377a0       ??$_Find_last@V?$basic_string@DU?$char_traits@D@std@@V?$allocator@D@2@@std@@@?$_Hash@V?$_Umap_traits@V?$basic_string@DU?$char_traits@D@std@@V?$allocator@D@2@@std@@IV?$_Uhash_compare@V?$basic_string@DU?$char_traits@D@std@@V?$allocator@D@2@@std@@U?$hash@V?$basic_string@DU?$char_traits@D@std@@V?$allocator@D@2@@std@@@2@U?$equal_to@V?$basic_string@DU?$char_traits@D@std@@V?$allocator@D@2@@std@@@2@@2@V?$allocator@U?$pair@$$CBV?$basic_string@DU?$char_traits@D@std@@V?$allocator@D@2@@std@@I@std@@@2@$0A@@std@@@std@@IEBA?AU?$_Hash_find_last_result@PEAU?$_List_node@U?$pair@$$CBV?$basic_string@DU?$char_traits@D@std@@V?$allocator@D@2@@std@@I@std@@PEAX@std@@@1@AEBV?$basic_string@DU?$char_traits@D@std@@V?$allocator@D@2@@1@_K@Z 00000001800387a0 f i include.obj
 0001:000377a0       ??$_Find_last@V?$basic_string@DU?$char_traits@D@std@@V?$allocator@D@2@@std@@@?$_Hash@V?$_Umap_traits@V?$basic_string@DU?$char_traits@D@std@@V?$allocator@D@2@@std@@VVector4@@V?$_Uhash_compare@V?$basic_string@DU?$char_traits@D@std@@V?$allocator@D@2@@std@@U?$hash@V?$basic_string@DU?$char_traits@D@std@@V?$allocator@D@2@@std@@@2@U?$equal_to@V?$basic_string@DU?$char_traits@D@std@@V?$allocator@D@2@@std@@@2@@2@V?$allocator@U?$pair@$$CBV?$basic_string@DU?$char_traits@D@std@@V?$allocator@D@2@@std@@VVector4@@@std@@@2@$0A@@std@@@std@@IEBA?AU?$_Hash_find_last_result@PEAU?$_List_node@U?$pair@$$CBV?$basic_string@DU?$char_traits@D@std@@V?$allocator@D@2@@std@@VVector4@@@std@@PEAX@std@@@1@AEBV?$basic_string@DU?$char_traits@D@std@@V?$allocator@D@2@@1@_K@Z 00000001800387a0 f i misc.obj
 0001:00037880       ??$_Hash_array_representation@D@std@@YA_KQEBD_K@Z 0000000180038880 f i include.obj
 0001:000378c0       ??$emplace@U?$pair@$$CBV?$basic_string@DU?$char_traits@D@std@@V?$allocator@D@2@@std@@I@std@@@?$_Hash@V?$_Umap_traits@V?$basic_string@DU?$char_traits@D@std@@V?$allocator@D@2@@std@@IV?$_Uhash_compare@V?$basic_string@DU?$char_traits@D@std@@V?$allocator@D@2@@std@@U?$hash@V?$basic_string@DU?$char_traits@D@std@@V?$allocator@D@2@@std@@@2@U?$equal_to@V?$basic_string@DU?$char_traits@D@std@@V?$allocator@D@2@@std@@@2@@2@V?$allocator@U?$pair@$$CBV?$basic_string@DU?$char_traits@D@std@@V?$allocator@D@2@@std@@I@std@@@2@$0A@@std@@@std@@QEAA?AU?$pair@V?$_List_iterator@V?$_List_val@U?$_List_simple_types@U?$pair@$$CBV?$basic_string@DU?$char_traits@D@std@@V?$allocator@D@2@@std@@I@std@@@std@@@std@@@std@@_N@1@$$QEAU?$pair@$$CBV?$basic_string@DU?$char_traits@D@std@@V?$allocator@D@2@@std@@I@1@@Z 00000001800388c0 f i include.obj
 0001:00037be0       ??1?$_Alloc_construct_ptr@V?$allocator@U?$_List_node@U?$pair@$$CBKV?$basic_string@DU?$char_traits@D@std@@V?$allocator@D@2@@std@@@std@@PEAX@std@@@std@@@std@@QEAA@XZ 0000000180038be0 f i object_loop.obj
 0001:00037be0       ??1?$_Alloc_construct_ptr@V?$allocator@U?$_List_node@U?$pair@$$CBV?$basic_string@DU?$char_traits@D@std@@V?$allocator@D@2@@std@@I@std@@PEAX@std@@@std@@@std@@QEAA@XZ 0000000180038be0 f i include.obj
 0001:00037c00       ??1?$_List_node_emplace_op2@V?$allocator@U?$_List_node@U?$pair@$$CBV?$basic_string@DU?$char_traits@D@std@@V?$allocator@D@2@@std@@I@std@@PEAX@std@@@std@@@std@@QEAA@XZ 0000000180038c00 f i include.obj
 0001:00037c40       ?_Assign_grow@?$_Hash_vec@V?$allocator@V?$_List_unchecked_iterator@V?$_List_val@U?$_List_simple_types@U?$pair@$$CBKUrCache@@@std@@@std@@@std@@@std@@@std@@@std@@QEAAX_KV?$_List_unchecked_iterator@V?$_List_val@U?$_List_simple_types@U?$pair@$$CBKUrCache@@@std@@@std@@@std@@@2@@Z 0000000180038c40 f i object_loop.obj
 0001:00037c40       ?_Assign_grow@?$_Hash_vec@V?$allocator@V?$_List_unchecked_iterator@V?$_List_val@U?$_List_simple_types@U?$pair@$$CBKV?$basic_string@DU?$char_traits@D@std@@V?$allocator@D@2@@std@@@std@@@std@@@std@@@std@@@std@@@std@@QEAAX_KV?$_List_unchecked_iterator@V?$_List_val@U?$_List_simple_types@U?$pair@$$CBKV?$basic_string@DU?$char_traits@D@std@@V?$allocator@D@2@@std@@@std@@@std@@@std@@@2@@Z 0000000180038c40 f i object_loop.obj
 0001:00037c40       ?_Assign_grow@?$_Hash_vec@V?$allocator@V?$_List_unchecked_iterator@V?$_List_val@U?$_List_simple_types@U?$pair@$$CBV?$basic_string@DU?$char_traits@D@std@@V?$allocator@D@2@@std@@I@std@@@std@@@std@@@std@@@std@@@std@@QEAAX_KV?$_List_unchecked_iterator@V?$_List_val@U?$_List_simple_types@U?$pair@$$CBV?$basic_string@DU?$char_traits@D@std@@V?$allocator@D@2@@std@@I@std@@@std@@@std@@@2@@Z 0000000180038c40 f i include.obj
 0001:00037c40       ?_Assign_grow@?$_Hash_vec@V?$allocator@V?$_List_unchecked_iterator@V?$_List_val@U?$_List_simple_types@U?$pair@$$CBV?$basic_string@DU?$char_traits@D@std@@V?$allocator@D@2@@std@@VVector4@@@std@@@std@@@std@@@std@@@std@@@std@@QEAAX_KV?$_List_unchecked_iterator@V?$_List_val@U?$_List_simple_types@U?$pair@$$CBV?$basic_string@DU?$char_traits@D@std@@V?$allocator@D@2@@std@@VVector4@@@std@@@std@@@std@@@2@@Z 0000000180038c40 f i misc.obj
 0001:00037d80       ?_Forced_rehash@?$_Hash@V?$_Umap_traits@V?$basic_string@DU?$char_traits@D@std@@V?$allocator@D@2@@std@@IV?$_Uhash_compare@V?$basic_string@DU?$char_traits@D@std@@V?$allocator@D@2@@std@@U?$hash@V?$basic_string@DU?$char_traits@D@std@@V?$allocator@D@2@@std@@@2@U?$equal_to@V?$basic_string@DU?$char_traits@D@std@@V?$allocator@D@2@@std@@@2@@2@V?$allocator@U?$pair@$$CBV?$basic_string@DU?$char_traits@D@std@@V?$allocator@D@2@@std@@I@std@@@2@$0A@@std@@@std@@IEAAX_K@Z 0000000180038d80 f i include.obj
 0001:00037d80       ?_Forced_rehash@?$_Hash@V?$_Umap_traits@V?$basic_string@DU?$char_traits@D@std@@V?$allocator@D@2@@std@@VVector4@@V?$_Uhash_compare@V?$basic_string@DU?$char_traits@D@std@@V?$allocator@D@2@@std@@U?$hash@V?$basic_string@DU?$char_traits@D@std@@V?$allocator@D@2@@std@@@2@U?$equal_to@V?$basic_string@DU?$char_traits@D@std@@V?$allocator@D@2@@std@@@2@@2@V?$allocator@U?$pair@$$CBV?$basic_string@DU?$char_traits@D@std@@V?$allocator@D@2@@std@@VVector4@@@std@@@2@$0A@@std@@@std@@IEAAX_K@Z 0000000180038d80 f i misc.obj
 0001:00038020       ?get_amount@Item@@QEAAHPEAVCSharedMemComms@@@Z 0000000180039020 f   item.obj
 0001:00038040       ?get_uid@Item@@QEAAHPEAVCSharedMemComms@@@Z 0000000180039040 f   item.obj
 0001:00038060       ?get_iid@Item@@QEAAHPEAVCSharedMemComms@@@Z 0000000180039060 f   item.obj
 0001:000380a0       ?is_weapon@Item@@QEAA_NPEAVCSharedMemComms@@@Z 00000001800390a0 f   item.obj
 0001:00038260       ?get_base_projectile@Item@@QEAA_KPEAVCSharedMemComms@@@Z 0000000180039260 f   item.obj
 0001:00038280       ?get_name@Item@@QEAA?AV?$basic_string@DU?$char_traits@D@std@@V?$allocator@D@2@@std@@PEAVCSharedMemComms@@@Z 0000000180039280 f   item.obj
 0001:000382e0       ?get_nice_name@Item@@QEAA?AV?$basic_string@DU?$char_traits@D@std@@V?$allocator@D@2@@std@@PEAVCSharedMemComms@@@Z 00000001800392e0 f   item.obj
 0001:00038340       ?get_bullet_name@Item@@QEAA?AV?$basic_string@DU?$char_traits@D@std@@V?$allocator@D@2@@std@@PEAVCSharedMemComms@@@Z 0000000180039340 f   item.obj
 0001:000383c0       ?get_bullet_amount@Item@@QEAA?AUAmmo@@PEAVCSharedMemComms@@@Z 00000001800393c0 f   item.obj
 0001:00038420       ?get_item@ItemContainer@@QEAAPEAVItem@@PEAVCSharedMemComms@@H@Z 0000000180039420 f   item.obj
 0001:00038480       ?get_belt@Inventory@@QEAAPEAVItemContainer@@PEAVCSharedMemComms@@@Z 0000000180039480 f   item.obj
 0001:000384a0       ??$read@UAmmo@@@CSharedMemComms@@QEAA?AUAmmo@@_K@Z 00000001800394a0 f i item.obj
 0001:00038640       ?read_unicode@CSharedMemComms@@QEAA?AV?$basic_string@DU?$char_traits@D@std@@V?$allocator@D@2@@std@@_KH@Z 0000000180039640 f i item.obj
 0001:000387d0       ?Clamp01@math_additional@@YAMM@Z 00000001800397d0 f   math.obj
 0001:000387f0       ?Lerp@math_additional@@YAMVVector3@@@Z 00000001800397f0 f   math.obj
 0001:00038820       ?keybindh@misc@@YAXXZ      0000000180039820 f   misc.obj
 0001:00038a20       ?thread@misc@@YAHXZ        0000000180039a20 f   misc.obj
 0001:00038e60       ?spoof_admin@@YAXXZ        0000000180039e60 f   misc.obj
 0001:00038ec0       ?no_recoil@@YAXXZ          0000000180039ec0 f   misc.obj
 0001:00039200       ?movement@@YAXXZ           000000018003a200 f   misc.obj
 0001:00039320       ?fast@@YAXXZ               000000018003a320 f   misc.obj
 0001:00039a60       ?atmosphere@@YAXXZ         000000018003aa60 f   misc.obj
 0001:00039a80       ?picus1@@YAXXZ             000000018003aa80 f   misc.obj
 0001:00039ce0       ?flyhack@@YAXXZ            000000018003ace0 f   misc.obj
 0001:0003a4e0       ?slow@@YAXXZ               000000018003b4e0 f   misc.obj
 0001:0003b3e0       ?experimental@@YAXXZ       000000018003c3e0 f   misc.obj
 0001:0003b440       ??$_Invoke@V?$tuple@P6AHXZ@std@@$0A@@thread@std@@CAIPEAX@Z 000000018003c440 f i main.obj
 0001:0003b440       ??$_Invoke@V?$tuple@P6AXXZ@std@@$0A@@thread@std@@CAIPEAX@Z 000000018003c440 f i misc.obj
 0001:0003b480       ??$_Try_emplace@AEBV?$basic_string@DU?$char_traits@D@std@@V?$allocator@D@2@@std@@$$V@?$_Hash@V?$_Umap_traits@V?$basic_string@DU?$char_traits@D@std@@V?$allocator@D@2@@std@@VVector4@@V?$_Uhash_compare@V?$basic_string@DU?$char_traits@D@std@@V?$allocator@D@2@@std@@U?$hash@V?$basic_string@DU?$char_traits@D@std@@V?$allocator@D@2@@std@@@2@U?$equal_to@V?$basic_string@DU?$char_traits@D@std@@V?$allocator@D@2@@std@@@2@@2@V?$allocator@U?$pair@$$CBV?$basic_string@DU?$char_traits@D@std@@V?$allocator@D@2@@std@@VVector4@@@std@@@2@$0A@@std@@@std@@IEAA?AU?$pair@PEAU?$_List_node@U?$pair@$$CBV?$basic_string@DU?$char_traits@D@std@@V?$allocator@D@2@@std@@VVector4@@@std@@PEAX@std@@_N@1@AEBV?$basic_string@DU?$char_traits@D@std@@V?$allocator@D@2@@1@@Z 000000018003c480 f i misc.obj
 0001:0003b720       ??$emplace@AEAV?$basic_string@DU?$char_traits@D@std@@V?$allocator@D@2@@std@@AEAVVector4@@@?$_Hash@V?$_Umap_traits@V?$basic_string@DU?$char_traits@D@std@@V?$allocator@D@2@@std@@VVector4@@V?$_Uhash_compare@V?$basic_string@DU?$char_traits@D@std@@V?$allocator@D@2@@std@@U?$hash@V?$basic_string@DU?$char_traits@D@std@@V?$allocator@D@2@@std@@@2@U?$equal_to@V?$basic_string@DU?$char_traits@D@std@@V?$allocator@D@2@@std@@@2@@2@V?$allocator@U?$pair@$$CBV?$basic_string@DU?$char_traits@D@std@@V?$allocator@D@2@@std@@VVector4@@@std@@@2@$0A@@std@@@std@@QEAA?AU?$pair@V?$_List_iterator@V?$_List_val@U?$_List_simple_types@U?$pair@$$CBV?$basic_string@DU?$char_traits@D@std@@V?$allocator@D@2@@std@@VVector4@@@std@@@std@@@std@@@std@@_N@1@AEAV?$basic_string@DU?$char_traits@D@std@@V?$allocator@D@2@@1@AEAVVector4@@@Z 000000018003c720 f i misc.obj
 0001:0003b9c0       ??$write@E@CSharedMemComms@@QEAA_N_KE@Z 000000018003c9c0 f i misc.obj
 0001:0003bb80       ??1?$_Alloc_construct_ptr@V?$allocator@U?$_List_node@U?$pair@$$CBV?$basic_string@DU?$char_traits@D@std@@V?$allocator@D@2@@std@@VVector4@@@std@@PEAX@std@@@std@@@std@@QEAA@XZ 000000018003cb80 f i misc.obj
 0001:0003bba0       ??1?$_List_node_emplace_op2@V?$allocator@U?$_List_node@U?$pair@$$CBV?$basic_string@DU?$char_traits@D@std@@V?$allocator@D@2@@std@@VVector4@@@std@@PEAX@std@@@std@@@std@@QEAA@XZ 000000018003cba0 f i misc.obj
 0001:0003bbe0       ??1?$list@U?$pair@$$CBV?$basic_string@DU?$char_traits@D@std@@V?$allocator@D@2@@std@@VVector4@@@std@@V?$allocator@U?$pair@$$CBV?$basic_string@DU?$char_traits@D@std@@V?$allocator@D@2@@std@@VVector4@@@std@@@2@@std@@QEAA@XZ 000000018003cbe0 f i misc.obj
 0001:0003bc60       ??1?$unique_ptr@V?$tuple@P6AHXZ@std@@U?$default_delete@V?$tuple@P6AHXZ@std@@@2@@std@@QEAA@XZ 000000018003cc60 f i main.obj
 0001:0003bc60       ??1?$unique_ptr@V?$tuple@P6AXXZ@std@@U?$default_delete@V?$tuple@P6AXXZ@std@@@2@@std@@QEAA@XZ 000000018003cc60 f i misc.obj
 0001:0003bc80       ??1thread@std@@QEAA@XZ     000000018003cc80 f i misc.obj
 0001:0003bca0       ?_Rehash_for_1@?$_Hash@V?$_Umap_traits@V?$basic_string@DU?$char_traits@D@std@@V?$allocator@D@2@@std@@VVector4@@V?$_Uhash_compare@V?$basic_string@DU?$char_traits@D@std@@V?$allocator@D@2@@std@@U?$hash@V?$basic_string@DU?$char_traits@D@std@@V?$allocator@D@2@@std@@@2@U?$equal_to@V?$basic_string@DU?$char_traits@D@std@@V?$allocator@D@2@@std@@@2@@2@V?$allocator@U?$pair@$$CBV?$basic_string@DU?$char_traits@D@std@@V?$allocator@D@2@@std@@VVector4@@@std@@@2@$0A@@std@@@std@@IEAAXXZ 000000018003cca0 f i misc.obj
 0001:0003bd70       ?quatmult@@YA?AVVector3@@PEBV1@PEAVVector4@@@Z 000000018003cd70 f i misc.obj
 0001:0003bf00       ?release@?$unique_ptr@VCSharedMemComms@@U?$default_delete@VCSharedMemComms@@@std@@@std@@QEAAPEAVCSharedMemComms@@XZ 000000018003cf00 f i misc.obj
 0001:0003bf20       ?measure_text@Renderer@@QEAA?AUImVec2@@AEBV?$basic_string@DU?$char_traits@D@std@@V?$allocator@D@2@@std@@@Z 000000018003cf20 f   overlay.obj
 0001:0003bfc0       ?draw_text@Renderer@@QEAAXMMAEBV?$basic_string@DU?$char_traits@D@std@@V?$allocator@D@2@@std@@UImColor@@_N2@Z 000000018003cfc0 f   overlay.obj
 0001:0003c2a0       ?draw_line@Renderer@@QEAAXUImVec2@@0I@Z 000000018003d2a0 f   overlay.obj
 0001:0003c340       ?draw_rectangle@Renderer@@QEAAXMMMMI@Z 000000018003d340 f   overlay.obj
 0001:0003c3c0       ?draw_outline@Renderer@@QEAAXMMMMMI@Z 000000018003d3c0 f   overlay.obj
 0001:0003c540       ?draw_circle@Renderer@@QEAAXMMMI@Z 000000018003d540 f   overlay.obj
 0001:0003c5c0       ?draw_filled_circle@Renderer@@QEAAXMMMI@Z 000000018003d5c0 f   overlay.obj
 0001:0003c620       ?correct_non_utf_8@@YA?AV?$basic_string@DU?$char_traits@D@std@@V?$allocator@D@2@@std@@AEBV12@@Z 000000018003d620 f   overlay.obj
 0001:0003ca40       ?append@?$basic_string@DU?$char_traits@D@std@@V?$allocator@D@2@@std@@QEAAAEAV12@_KD@Z 000000018003da40 f i overlay.obj
 0001:0003cae0       ?get_base_networkable@rust@@YA_KPEAVCSharedMemComms@@@Z 000000018003dae0 f   sdk.obj
 0001:0003cb00       ?get_client_entities@rust@@YA_KPEAVCSharedMemComms@@@Z 000000018003db00 f   sdk.obj
 0001:0003cb20       ?get_entity_realm@rust@@YA_KPEAVCSharedMemComms@@@Z 000000018003db20 f   sdk.obj
 0001:0003cb60       ?get_buffer_list@rust@@YA_KPEAVCSharedMemComms@@@Z 000000018003db60 f   sdk.obj
 0001:0003cb80       ?get_object_list@rust@@YA_KPEAVCSharedMemComms@@@Z 000000018003db80 f   sdk.obj
 0001:0003cba0       ?get_base_entity@rust@@YA_KPEAVCSharedMemComms@@_K@Z 000000018003dba0 f   sdk.obj
 0001:0003cbe0       ?get_model_state@rust@@YA_KPEAVCSharedMemComms@@_K@Z 000000018003dbe0 f   sdk.obj
 0001:0003cc00       ?get_player_visual@rust@@YA_KPEAVCSharedMemComms@@_K@Z 000000018003dc00 f   sdk.obj
 0001:0003cc20       ?get_object_pos_component@rust@@YA_KPEAVCSharedMemComms@@_K@Z 000000018003dc20 f   sdk.obj
 0001:0003cc60       ?get_object_position@rust@@YA?AVVector3@@PEAVCSharedMemComms@@_K@Z 000000018003dc60 f   sdk.obj
 0001:0003cce0       ?get_bone_position@rust@@YA?AVVector3@@PEAVCSharedMemComms@@_KI@Z 000000018003dce0 f   sdk.obj
 0001:0003cd60       ?get_bone_position_from_transform@rust@@YA?AVVector3@@PEAVCSharedMemComms@@_K1I@Z 000000018003dd60 f   sdk.obj
 0001:0003cdc0       ?get_view_matrix@rust@@YA?AVMatrix4x4@@PEAVCSharedMemComms@@@Z 000000018003ddc0 f   sdk.obj
 0001:0003cec0       ?get_camera_position@rust@@YA?AVVector3@@PEAVCSharedMemComms@@@Z 000000018003dec0 f   sdk.obj
 0001:0003cfa0       ?world_to_screen@rust@@YA_NAEBVVector3@@AEAVVector2@@VMatrix4x4@@_N@Z 000000018003dfa0 f   sdk.obj
 0001:0003d180       ?use_weapon_prediction@rust@@YA_NXZ 000000018003e180 f   sdk.obj
 0001:0003d1e0       ?scan_for_class@rust@@YA_KPEAVCSharedMemComms@@PEBD@Z 000000018003e1e0 f   sdk.obj
 0001:0003d720       ?mono_field_static_get_value@rust@@YA_KPEAVCSharedMemComms@@_K1@Z 000000018003e720 f   sdk.obj
 0001:0003d7c0       ?euler_angles@rust@@YA?AVVector3@@VVector4@@@Z 000000018003e7c0 f   sdk.obj
 0001:0003d9e0       ?rotate_point@rust@@YA?AVVector3@@V2@0M@Z 000000018003e9e0 f   sdk.obj
 0001:0003daa0       ?RotatePoint@rust@@YA?AVVector2@@V2@0M_N@Z 000000018003eaa0 f   sdk.obj
 0001:0003db80       ?get_bullet_speed@rust@@YAMXZ 000000018003eb80 f   sdk.obj
 0001:0003dbc0       ?get_bullet_gravity@rust@@YAMXZ 000000018003ebc0 f   sdk.obj
 0001:0003dc00       ?get_bullet_drag@rust@@YAMXZ 000000018003ec00 f   sdk.obj
 0001:0003dc40       ?get_object_size@rust@@YAIPEAVCSharedMemComms@@@Z 000000018003ec40 f   sdk.obj
 0001:0003dde0       ?get_class_name@rust@@YA?AV?$basic_string@DU?$char_traits@D@std@@V?$allocator@D@2@@std@@PEAVCSharedMemComms@@_K@Z 000000018003ede0 f   sdk.obj
 0001:0003dea0       ?normalize_angle@@YAMM@Z   000000018003eea0 f   sdk.obj
 0001:0003dee0       ?normalize_angles@@YA?AVVector3@@V1@@Z 000000018003eee0 f   sdk.obj
 0001:0003dfa0       ??$read@U_IMAGE_DOS_HEADER@@@CSharedMemComms@@QEAA?AU_IMAGE_DOS_HEADER@@_K@Z 000000018003efa0 f i sdk.obj
 0001:0003e1c0       ??$read@U_IMAGE_SECTION_HEADER@@@CSharedMemComms@@QEAA?AU_IMAGE_SECTION_HEADER@@_K@Z 000000018003f1c0 f i sdk.obj
 0001:0003e3c0       ??$read@VMatrix4x4@@@CSharedMemComms@@QEAA?AVMatrix4x4@@_K@Z 000000018003f3c0 f i sdk.obj
 0001:0003e640       ?bullet_gravity@@YAMPEBD@Z 000000018003f640 f i sdk.obj
 0001:0003ec20       ?get_bullet_dragg@@YAMPEBD@Z 000000018003fc20 f i sdk.obj
 0001:0003f200       ?get_bullet_velocity@@YAMPEBD0@Z 0000000180040200 f i sdk.obj
 0001:000407e0       ?is_prediction_available@@YAMPEBD@Z 00000001800417e0 f i sdk.obj
 0001:00040e80       ?read_ascii@CSharedMemComms@@QEAA?AV?$basic_string@DU?$char_traits@D@std@@V?$allocator@D@2@@std@@_K0@Z 0000000180041e80 f i sdk.obj
 0001:00040f40       ?ExpHandler@@YAJPEAU_EXCEPTION_POINTERS@@@Z 0000000180041f40 f   main.obj
 0001:00041100       ?OnDetach@@YAXXZ           0000000180042100 f   main.obj
 0001:00041140       ?MainThread@@YAKPEAX@Z     0000000180042140 f   main.obj
 0001:00041e60       DllMain                    0000000180042e60 f   main.obj
 0001:00041ea0       ??$?4U?$default_delete@VCSharedMemComms@@@std@@$0A@@?$unique_ptr@VCSharedMemComms@@U?$default_delete@VCSharedMemComms@@@std@@@std@@QEAAAEAV01@$$QEAV01@@Z 0000000180042ea0 f i main.obj
 0001:00041f30       ??$sprintf_s@$0BAA@@@YAHAEAY0BAA@DPEBDZZ 0000000180042f30 f i main.obj
 0001:00041fa0       ??0CSharedMemComms@@QEAA@PEBD_N@Z 0000000180042fa0 f i main.obj
 0001:00042220       ?Initialize@CSharedMemComms@@QEAAXXZ 0000000180043220 f i main.obj
 0001:000422a0       ?setup@object@@YAXXZ       00000001800432a0 f   object_loop.obj
 0001:00042400       ?refresh_game@object@@YAXXZ 0000000180043400 f   object_loop.obj
 0001:00042a80       ?main@object@@YAXXZ        0000000180043a80 f   object_loop.obj
 0001:00048300       ?hash_fnv64_string@@YA_KPEBD_K@Z 0000000180049300 f   object_loop.obj
 0001:00048340       ?hash_fnv64_data@@YA_KPEBX_K1@Z 0000000180049340 f   object_loop.obj
 0001:00048380       ?hash_fnv32_string@@YAIPEBDI@Z 0000000180049380 f   object_loop.obj
 0001:000483c0       ?hash_fnv32_data@@YAIPEBX_KI@Z 00000001800493c0 f   object_loop.obj
 0001:00048400       ?hash_constfnv64_string@@YA_KPEBD@Z 0000000180049400 f   object_loop.obj
 0001:000486a0       ?hash_constfnv32_string@@YAIPEBD@Z 00000001800496a0 f   object_loop.obj
 0001:00048980       ?SteamID3To64@@YA_K_K@Z    0000000180049980 f   object_loop.obj
 0001:000489a0       ?raid_esp@@YAXXZ           00000001800499a0 f   object_loop.obj
 0001:000495c0       ??$_Assign_counted_range@PEAU?$pair@_KV?$basic_string@DU?$char_traits@D@std@@V?$allocator@D@2@@std@@@std@@@?$vector@U?$pair@_KV?$basic_string@DU?$char_traits@D@std@@V?$allocator@D@2@@std@@@std@@V?$allocator@U?$pair@_KV?$basic_string@DU?$char_traits@D@std@@V?$allocator@D@2@@std@@@std@@@2@@std@@AEAAXPEAU?$pair@_KV?$basic_string@DU?$char_traits@D@std@@V?$allocator@D@2@@std@@@1@_K@Z 000000018004a5c0 f i object_loop.obj
 0001:000497c0       ??$_Assign_counted_range@PEAU?$pair@_KW4entity_type@@@std@@@?$vector@U?$pair@_KW4entity_type@@@std@@V?$allocator@U?$pair@_KW4entity_type@@@std@@@2@@std@@AEAAXPEAU?$pair@_KW4entity_type@@@1@_K@Z 000000018004a7c0 f i object_loop.obj
 0001:000499e0       ??$_Assign_counted_range@PEAV?$basic_string@DU?$char_traits@D@std@@V?$allocator@D@2@@std@@@?$vector@V?$basic_string@DU?$char_traits@D@std@@V?$allocator@D@2@@std@@V?$allocator@V?$basic_string@DU?$char_traits@D@std@@V?$allocator@D@2@@std@@@2@@std@@AEAAXPEAV?$basic_string@DU?$char_traits@D@std@@V?$allocator@D@2@@1@_K@Z 000000018004a9e0 f i object_loop.obj
 0001:00049c00       ??$_Assign_counted_range@PEAV?$tuple@_KV?$basic_string@DU?$char_traits@D@std@@V?$allocator@D@2@@std@@VVector3@@@std@@@?$vector@V?$tuple@_KV?$basic_string@DU?$char_traits@D@std@@V?$allocator@D@2@@std@@VVector3@@@std@@V?$allocator@V?$tuple@_KV?$basic_string@DU?$char_traits@D@std@@V?$allocator@D@2@@std@@VVector3@@@std@@@2@@std@@AEAAXPEAV?$tuple@_KV?$basic_string@DU?$char_traits@D@std@@V?$allocator@D@2@@std@@VVector3@@@1@_K@Z 000000018004ac00 f i object_loop.obj
 0001:00049e60       ??$_Assign_counted_range@PEAV?$tuple@_KV?$basic_string@DU?$char_traits@D@std@@V?$allocator@D@2@@std@@VVector3@@UImColor@@@std@@@?$vector@V?$tuple@_KV?$basic_string@DU?$char_traits@D@std@@V?$allocator@D@2@@std@@VVector3@@UImColor@@@std@@V?$allocator@V?$tuple@_KV?$basic_string@DU?$char_traits@D@std@@V?$allocator@D@2@@std@@VVector3@@UImColor@@@std@@@2@@std@@AEAAXPEAV?$tuple@_KV?$basic_string@DU?$char_traits@D@std@@V?$allocator@D@2@@std@@VVector3@@UImColor@@@1@_K@Z 000000018004ae60 f i object_loop.obj
 0001:0004a100       ??$_Assign_counted_range@PEAV?$tuple@_KV?$vector@V?$basic_string@DU?$char_traits@D@std@@V?$allocator@D@2@@std@@V?$allocator@V?$basic_string@DU?$char_traits@D@std@@V?$allocator@D@2@@std@@@2@@std@@VVector3@@UImColor@@@std@@@?$vector@V?$tuple@_KV?$vector@V?$basic_string@DU?$char_traits@D@std@@V?$allocator@D@2@@std@@V?$allocator@V?$basic_string@DU?$char_traits@D@std@@V?$allocator@D@2@@std@@@2@@std@@VVector3@@UImColor@@@std@@V?$allocator@V?$tuple@_KV?$vector@V?$basic_string@DU?$char_traits@D@std@@V?$allocator@D@2@@std@@V?$allocator@V?$basic_string@DU?$char_traits@D@std@@V?$allocator@D@2@@std@@@2@@std@@VVector3@@UImColor@@@std@@@2@@std@@AEAAXPEAV?$tuple@_KV?$vector@V?$basic_string@DU?$char_traits@D@std@@V?$allocator@D@2@@std@@V?$allocator@V?$basic_string@DU?$char_traits@D@std@@V?$allocator@D@2@@std@@@2@@std@@VVector3@@UImColor@@@1@_K@Z 000000018004b100 f i object_loop.obj
 0001:0004a460       ??$_Destroy_range@V?$allocator@U?$pair@_KV?$basic_string@DU?$char_traits@D@std@@V?$allocator@D@2@@std@@@std@@@std@@@std@@YAXPEAU?$pair@_KV?$basic_string@DU?$char_traits@D@std@@V?$allocator@D@2@@std@@@0@QEAU10@AEAV?$allocator@U?$pair@_KV?$basic_string@DU?$char_traits@D@std@@V?$allocator@D@2@@std@@@std@@@0@@Z 000000018004b460 f i object_loop.obj
 0001:0004a4a0       ??$_Destroy_range@V?$allocator@V?$basic_string@DU?$char_traits@D@std@@V?$allocator@D@2@@std@@@std@@@std@@YAXPEAV?$basic_string@DU?$char_traits@D@std@@V?$allocator@D@2@@0@QEAV10@AEAV?$allocator@V?$basic_string@DU?$char_traits@D@std@@V?$allocator@D@2@@std@@@0@@Z 000000018004b4a0 f i object_loop.obj
 0001:0004a4e0       ??$_Destroy_range@V?$allocator@V?$tuple@_KV?$basic_string@DU?$char_traits@D@std@@V?$allocator@D@2@@std@@VVector3@@@std@@@std@@@std@@YAXPEAV?$tuple@_KV?$basic_string@DU?$char_traits@D@std@@V?$allocator@D@2@@std@@VVector3@@@0@QEAV10@AEAV?$allocator@V?$tuple@_KV?$basic_string@DU?$char_traits@D@std@@V?$allocator@D@2@@std@@VVector3@@@std@@@0@@Z 000000018004b4e0 f i object_loop.obj
 0001:0004a520       ??$_Destroy_range@V?$allocator@V?$tuple@_KV?$basic_string@DU?$char_traits@D@std@@V?$allocator@D@2@@std@@VVector3@@UImColor@@@std@@@std@@@std@@YAXPEAV?$tuple@_KV?$basic_string@DU?$char_traits@D@std@@V?$allocator@D@2@@std@@VVector3@@UImColor@@@0@QEAV10@AEAV?$allocator@V?$tuple@_KV?$basic_string@DU?$char_traits@D@std@@V?$allocator@D@2@@std@@VVector3@@UImColor@@@std@@@0@@Z 000000018004b520 f i object_loop.obj
 0001:0004a560       ??$_Destroy_range@V?$allocator@V?$tuple@_KV?$basic_string@DU?$char_traits@D@std@@V?$allocator@D@2@@std@@VVector3@@V?$time_point@Usteady_clock@chrono@std@@V?$duration@_JU?$ratio@$00$0DLJKMKAA@@std@@@23@@chrono@2@@std@@@std@@@std@@YAXPEAV?$tuple@_KV?$basic_string@DU?$char_traits@D@std@@V?$allocator@D@2@@std@@VVector3@@V?$time_point@Usteady_clock@chrono@std@@V?$duration@_JU?$ratio@$00$0DLJKMKAA@@std@@@23@@chrono@2@@0@QEAV10@AEAV?$allocator@V?$tuple@_KV?$basic_string@DU?$char_traits@D@std@@V?$allocator@D@2@@std@@VVector3@@V?$time_point@Usteady_clock@chrono@std@@V?$duration@_JU?$ratio@$00$0DLJKMKAA@@std@@@23@@chrono@2@@std@@@0@@Z 000000018004b560 f i object_loop.obj
 0001:0004a5a0       ??$_Destroy_range@V?$allocator@V?$tuple@_KV?$vector@V?$basic_string@DU?$char_traits@D@std@@V?$allocator@D@2@@std@@V?$allocator@V?$basic_string@DU?$char_traits@D@std@@V?$allocator@D@2@@std@@@2@@std@@VVector3@@UImColor@@@std@@@std@@@std@@YAXPEAV?$tuple@_KV?$vector@V?$basic_string@DU?$char_traits@D@std@@V?$allocator@D@2@@std@@V?$allocator@V?$basic_string@DU?$char_traits@D@std@@V?$allocator@D@2@@std@@@2@@std@@VVector3@@UImColor@@@0@QEAV10@AEAV?$allocator@V?$tuple@_KV?$vector@V?$basic_string@DU?$char_traits@D@std@@V?$allocator@D@2@@std@@V?$allocator@V?$basic_string@DU?$char_traits@D@std@@V?$allocator@D@2@@std@@@2@@std@@VVector3@@UImColor@@@std@@@0@@Z 000000018004b5a0 f i object_loop.obj
 0001:0004a5e0       ??$_Emplace_reallocate@AEAU?$pair@_KV?$basic_string@DU?$char_traits@D@std@@V?$allocator@D@2@@std@@@std@@@?$vector@U?$pair@_KV?$basic_string@DU?$char_traits@D@std@@V?$allocator@D@2@@std@@@std@@V?$allocator@U?$pair@_KV?$basic_string@DU?$char_traits@D@std@@V?$allocator@D@2@@std@@@std@@@2@@std@@AEAAPEAU?$pair@_KV?$basic_string@DU?$char_traits@D@std@@V?$allocator@D@2@@std@@@1@QEAU21@AEAU21@@Z 000000018004b5e0 f i object_loop.obj
 0001:0004a860       ??$_Emplace_reallocate@AEAU?$pair@_KW4entity_type@@@std@@@?$vector@U?$pair@_KW4entity_type@@@std@@V?$allocator@U?$pair@_KW4entity_type@@@std@@@2@@std@@AEAAPEAU?$pair@_KW4entity_type@@@1@QEAU21@AEAU21@@Z 000000018004b860 f i object_loop.obj
 0001:0004aa20       ??$_Emplace_reallocate@AEAV?$basic_string@DU?$char_traits@D@std@@V?$allocator@D@2@@std@@@?$vector@V?$basic_string@DU?$char_traits@D@std@@V?$allocator@D@2@@std@@V?$allocator@V?$basic_string@DU?$char_traits@D@std@@V?$allocator@D@2@@std@@@2@@std@@AEAAPEAV?$basic_string@DU?$char_traits@D@std@@V?$allocator@D@2@@1@QEAV21@AEAV21@@Z 000000018004ba20 f i object_loop.obj
 0001:0004abc0       ??$_Emplace_reallocate@AEAV?$tuple@_KV?$basic_string@DU?$char_traits@D@std@@V?$allocator@D@2@@std@@VVector3@@UImColor@@@std@@@?$vector@V?$tuple@_KV?$basic_string@DU?$char_traits@D@std@@V?$allocator@D@2@@std@@VVector3@@UImColor@@@std@@V?$allocator@V?$tuple@_KV?$basic_string@DU?$char_traits@D@std@@V?$allocator@D@2@@std@@VVector3@@UImColor@@@std@@@2@@std@@AEAAPEAV?$tuple@_KV?$basic_string@DU?$char_traits@D@std@@V?$allocator@D@2@@std@@VVector3@@UImColor@@@1@QEAV21@AEAV21@@Z 000000018004bbc0 f i object_loop.obj
 0001:0004abc0       ??$_Emplace_reallocate@AEBV?$tuple@_KV?$basic_string@DU?$char_traits@D@std@@V?$allocator@D@2@@std@@VVector3@@UImColor@@@std@@@?$vector@V?$tuple@_KV?$basic_string@DU?$char_traits@D@std@@V?$allocator@D@2@@std@@VVector3@@UImColor@@@std@@V?$allocator@V?$tuple@_KV?$basic_string@DU?$char_traits@D@std@@V?$allocator@D@2@@std@@VVector3@@UImColor@@@std@@@2@@std@@AEAAPEAV?$tuple@_KV?$basic_string@DU?$char_traits@D@std@@V?$allocator@D@2@@std@@VVector3@@UImColor@@@1@QEAV21@AEBV21@@Z 000000018004bbc0 f i object_loop.obj
 0001:0004ade0       ??$_Emplace_reallocate@AEAV?$tuple@_KV?$basic_string@DU?$char_traits@D@std@@V?$allocator@D@2@@std@@VVector3@@V?$time_point@Usteady_clock@chrono@std@@V?$duration@_JU?$ratio@$00$0DLJKMKAA@@std@@@23@@chrono@2@@std@@@?$vector@V?$tuple@_KV?$basic_string@DU?$char_traits@D@std@@V?$allocator@D@2@@std@@VVector3@@V?$time_point@Usteady_clock@chrono@std@@V?$duration@_JU?$ratio@$00$0DLJKMKAA@@std@@@23@@chrono@2@@std@@V?$allocator@V?$tuple@_KV?$basic_string@DU?$char_traits@D@std@@V?$allocator@D@2@@std@@VVector3@@V?$time_point@Usteady_clock@chrono@std@@V?$duration@_JU?$ratio@$00$0DLJKMKAA@@std@@@23@@chrono@2@@std@@@2@@std@@AEAAPEAV?$tuple@_KV?$basic_string@DU?$char_traits@D@std@@V?$allocator@D@2@@std@@VVector3@@V?$time_point@Usteady_clock@chrono@std@@V?$duration@_JU?$ratio@$00$0DLJKMKAA@@std@@@23@@chrono@2@@1@QEAV21@AEAV21@@Z 000000018004bde0 f i object_loop.obj
 0001:0004b020       ??$_Emplace_reallocate@AEAV?$tuple@_KV?$vector@V?$basic_string@DU?$char_traits@D@std@@V?$allocator@D@2@@std@@V?$allocator@V?$basic_string@DU?$char_traits@D@std@@V?$allocator@D@2@@std@@@2@@std@@VVector3@@UImColor@@@std@@@?$vector@V?$tuple@_KV?$vector@V?$basic_string@DU?$char_traits@D@std@@V?$allocator@D@2@@std@@V?$allocator@V?$basic_string@DU?$char_traits@D@std@@V?$allocator@D@2@@std@@@2@@std@@VVector3@@UImColor@@@std@@V?$allocator@V?$tuple@_KV?$vector@V?$basic_string@DU?$char_traits@D@std@@V?$allocator@D@2@@std@@V?$allocator@V?$basic_string@DU?$char_traits@D@std@@V?$allocator@D@2@@std@@@2@@std@@VVector3@@UImColor@@@std@@@2@@std@@AEAAPEAV?$tuple@_KV?$vector@V?$basic_string@DU?$char_traits@D@std@@V?$allocator@D@2@@std@@V?$allocator@V?$basic_string@DU?$char_traits@D@std@@V?$allocator@D@2@@std@@@2@@std@@VVector3@@UImColor@@@1@QEAV21@AEAV21@@Z 000000018004c020 f i object_loop.obj
 0001:0004b260       ??$_Emplace_reallocate@AEBV?$tuple@_KPEADVVector3@@@std@@@?$vector@V?$tuple@_KV?$basic_string@DU?$char_traits@D@std@@V?$allocator@D@2@@std@@VVector3@@@std@@V?$allocator@V?$tuple@_KV?$basic_string@DU?$char_traits@D@std@@V?$allocator@D@2@@std@@VVector3@@@std@@@2@@std@@AEAAPEAV?$tuple@_KV?$basic_string@DU?$char_traits@D@std@@V?$allocator@D@2@@std@@VVector3@@@1@QEAV21@AEBV?$tuple@_KPEADVVector3@@@1@@Z 000000018004c260 f i object_loop.obj
 0001:0004b480       ??$_Emplace_reallocate@AEBV?$tuple@_KV?$basic_string@DU?$char_traits@D@std@@V?$allocator@D@2@@std@@VVector3@@@std@@@?$vector@V?$tuple@_KV?$basic_string@DU?$char_traits@D@std@@V?$allocator@D@2@@std@@VVector3@@@std@@V?$allocator@V?$tuple@_KV?$basic_string@DU?$char_traits@D@std@@V?$allocator@D@2@@std@@VVector3@@@std@@@2@@std@@AEAAPEAV?$tuple@_KV?$basic_string@DU?$char_traits@D@std@@V?$allocator@D@2@@std@@VVector3@@@1@QEAV21@AEBV21@@Z 000000018004c480 f i object_loop.obj
 0001:0004b680       ??$_Free_non_head@V?$allocator@U?$_List_node@U?$pair@$$CBKUrCache@@@std@@PEAX@std@@@std@@@?$_List_node@U?$pair@$$CBKUrCache@@@std@@PEAX@std@@SAXAEAV?$allocator@U?$_List_node@U?$pair@$$CBKUrCache@@@std@@PEAX@std@@@1@PEAU01@@Z 000000018004c680 f i object_loop.obj
 0001:0004b700       ??$_Traits_find@U?$char_traits@D@std@@@std@@YA_KQEBD_K101@Z 000000018004c700 f i object_loop.obj
 0001:0004b7e0       ??$_Try_emplace@K$$V@?$_Hash@V?$_Umap_traits@KV?$basic_string@DU?$char_traits@D@std@@V?$allocator@D@2@@std@@V?$_Uhash_compare@KU?$hash@K@std@@U?$equal_to@K@2@@2@V?$allocator@U?$pair@$$CBKV?$basic_string@DU?$char_traits@D@std@@V?$allocator@D@2@@std@@@std@@@2@$0A@@std@@@std@@IEAA?AU?$pair@PEAU?$_List_node@U?$pair@$$CBKV?$basic_string@DU?$char_traits@D@std@@V?$allocator@D@2@@std@@@std@@PEAX@std@@_N@1@$$QEAK@Z 000000018004c7e0 f i object_loop.obj
 0001:0004ba40       ??$_Uninitialized_move@PEAU?$pair@_KV?$basic_string@DU?$char_traits@D@std@@V?$allocator@D@2@@std@@@std@@V?$allocator@U?$pair@_KV?$basic_string@DU?$char_traits@D@std@@V?$allocator@D@2@@std@@@std@@@2@@std@@YAPEAU?$pair@_KV?$basic_string@DU?$char_traits@D@std@@V?$allocator@D@2@@std@@@0@QEAU10@0PEAU10@AEAV?$allocator@U?$pair@_KV?$basic_string@DU?$char_traits@D@std@@V?$allocator@D@2@@std@@@std@@@0@@Z 000000018004ca40 f i object_loop.obj
 0001:0004bac0       ??$_Uninitialized_move@PEAV?$basic_string@DU?$char_traits@D@std@@V?$allocator@D@2@@std@@V?$allocator@V?$basic_string@DU?$char_traits@D@std@@V?$allocator@D@2@@std@@@2@@std@@YAPEAV?$basic_string@DU?$char_traits@D@std@@V?$allocator@D@2@@0@QEAV10@0PEAV10@AEAV?$allocator@V?$basic_string@DU?$char_traits@D@std@@V?$allocator@D@2@@std@@@0@@Z 000000018004cac0 f i object_loop.obj
 0001:0004bb30       ??$_Uninitialized_move@PEAV?$tuple@_KV?$basic_string@DU?$char_traits@D@std@@V?$allocator@D@2@@std@@VVector3@@@std@@V?$allocator@V?$tuple@_KV?$basic_string@DU?$char_traits@D@std@@V?$allocator@D@2@@std@@VVector3@@@std@@@2@@std@@YAPEAV?$tuple@_KV?$basic_string@DU?$char_traits@D@std@@V?$allocator@D@2@@std@@VVector3@@@0@QEAV10@0PEAV10@AEAV?$allocator@V?$tuple@_KV?$basic_string@DU?$char_traits@D@std@@V?$allocator@D@2@@std@@VVector3@@@std@@@0@@Z 000000018004cb30 f i object_loop.obj
 0001:0004bbc0       ??$_Uninitialized_move@PEAV?$tuple@_KV?$basic_string@DU?$char_traits@D@std@@V?$allocator@D@2@@std@@VVector3@@UImColor@@@std@@V?$allocator@V?$tuple@_KV?$basic_string@DU?$char_traits@D@std@@V?$allocator@D@2@@std@@VVector3@@UImColor@@@std@@@2@@std@@YAPEAV?$tuple@_KV?$basic_string@DU?$char_traits@D@std@@V?$allocator@D@2@@std@@VVector3@@UImColor@@@0@QEAV10@0PEAV10@AEAV?$allocator@V?$tuple@_KV?$basic_string@DU?$char_traits@D@std@@V?$allocator@D@2@@std@@VVector3@@UImColor@@@std@@@0@@Z 000000018004cbc0 f i object_loop.obj
 0001:0004bc60       ??$_Uninitialized_move@PEAV?$tuple@_KV?$basic_string@DU?$char_traits@D@std@@V?$allocator@D@2@@std@@VVector3@@V?$time_point@Usteady_clock@chrono@std@@V?$duration@_JU?$ratio@$00$0DLJKMKAA@@std@@@23@@chrono@2@@std@@V?$allocator@V?$tuple@_KV?$basic_string@DU?$char_traits@D@std@@V?$allocator@D@2@@std@@VVector3@@V?$time_point@Usteady_clock@chrono@std@@V?$duration@_JU?$ratio@$00$0DLJKMKAA@@std@@@23@@chrono@2@@std@@@2@@std@@YAPEAV?$tuple@_KV?$basic_string@DU?$char_traits@D@std@@V?$allocator@D@2@@std@@VVector3@@V?$time_point@Usteady_clock@chrono@std@@V?$duration@_JU?$ratio@$00$0DLJKMKAA@@std@@@23@@chrono@2@@0@QEAV10@0PEAV10@AEAV?$allocator@V?$tuple@_KV?$basic_string@DU?$char_traits@D@std@@V?$allocator@D@2@@std@@VVector3@@V?$time_point@Usteady_clock@chrono@std@@V?$duration@_JU?$ratio@$00$0DLJKMKAA@@std@@@23@@chrono@2@@std@@@0@@Z 000000018004cc60 f i object_loop.obj
 0001:0004bd00       ??$_Uninitialized_move@PEAV?$tuple@_KV?$vector@V?$basic_string@DU?$char_traits@D@std@@V?$allocator@D@2@@std@@V?$allocator@V?$basic_string@DU?$char_traits@D@std@@V?$allocator@D@2@@std@@@2@@std@@VVector3@@UImColor@@@std@@V?$allocator@V?$tuple@_KV?$vector@V?$basic_string@DU?$char_traits@D@std@@V?$allocator@D@2@@std@@V?$allocator@V?$basic_string@DU?$char_traits@D@std@@V?$allocator@D@2@@std@@@2@@std@@VVector3@@UImColor@@@std@@@2@@std@@YAPEAV?$tuple@_KV?$vector@V?$basic_string@DU?$char_traits@D@std@@V?$allocator@D@2@@std@@V?$allocator@V?$basic_string@DU?$char_traits@D@std@@V?$allocator@D@2@@std@@@2@@std@@VVector3@@UImColor@@@0@QEAV10@0PEAV10@AEAV?$allocator@V?$tuple@_KV?$vector@V?$basic_string@DU?$char_traits@D@std@@V?$allocator@D@2@@std@@V?$allocator@V?$basic_string@DU?$char_traits@D@std@@V?$allocator@D@2@@std@@@2@@std@@VVector3@@UImColor@@@std@@@0@@Z 000000018004cd00 f i object_loop.obj
 0001:0004bd90       ??$construct@V?$tuple@_KV?$basic_string@DU?$char_traits@D@std@@V?$allocator@D@2@@std@@VVector3@@@std@@AEBV?$tuple@_KPEADVVector3@@@2@@?$_Default_allocator_traits@V?$allocator@V?$tuple@_KV?$basic_string@DU?$char_traits@D@std@@V?$allocator@D@2@@std@@VVector3@@@std@@@std@@@std@@SAXAEAV?$allocator@V?$tuple@_KV?$basic_string@DU?$char_traits@D@std@@V?$allocator@D@2@@std@@VVector3@@@std@@@1@QEAV?$tuple@_KV?$basic_string@DU?$char_traits@D@std@@V?$allocator@D@2@@std@@VVector3@@@1@AEBV?$tuple@_KPEADVVector3@@@1@@Z 000000018004cd90 f i object_loop.obj
 0001:0004be00       ??$construct@V?$tuple@_KV?$basic_string@DU?$char_traits@D@std@@V?$allocator@D@2@@std@@VVector3@@UImColor@@@std@@AEAV12@@?$_Default_allocator_traits@V?$allocator@V?$tuple@_KV?$basic_string@DU?$char_traits@D@std@@V?$allocator@D@2@@std@@VVector3@@UImColor@@@std@@@std@@@std@@SAXAEAV?$allocator@V?$tuple@_KV?$basic_string@DU?$char_traits@D@std@@V?$allocator@D@2@@std@@VVector3@@UImColor@@@std@@@1@QEAV?$tuple@_KV?$basic_string@DU?$char_traits@D@std@@V?$allocator@D@2@@std@@VVector3@@UImColor@@@1@AEAV31@@Z 000000018004ce00 f i object_loop.obj
 0001:0004be60       ??$emplace@AEAKAEAUrCache@@@?$_Hash@V?$_Umap_traits@KUrCache@@V?$_Uhash_compare@KU?$hash@K@std@@U?$equal_to@K@2@@std@@V?$allocator@U?$pair@$$CBKUrCache@@@std@@@3@$0A@@std@@@std@@QEAA?AU?$pair@V?$_List_iterator@V?$_List_val@U?$_List_simple_types@U?$pair@$$CBKUrCache@@@std@@@std@@@std@@@std@@_N@1@AEAKAEAUrCache@@@Z 000000018004ce60 f i object_loop.obj
 0001:0004c0e0       ??$emplace@AEA_KAEAV?$basic_string@DU?$char_traits@D@std@@V?$allocator@D@2@@std@@@?$_Hash@V?$_Umap_traits@KV?$basic_string@DU?$char_traits@D@std@@V?$allocator@D@2@@std@@V?$_Uhash_compare@KU?$hash@K@std@@U?$equal_to@K@2@@2@V?$allocator@U?$pair@$$CBKV?$basic_string@DU?$char_traits@D@std@@V?$allocator@D@2@@std@@@std@@@2@$0A@@std@@@std@@QEAA?AU?$pair@V?$_List_iterator@V?$_List_val@U?$_List_simple_types@U?$pair@$$CBKV?$basic_string@DU?$char_traits@D@std@@V?$allocator@D@2@@std@@@std@@@std@@@std@@@std@@_N@1@AEA_KAEAV?$basic_string@DU?$char_traits@D@std@@V?$allocator@D@2@@1@@Z 000000018004d0e0 f i object_loop.obj
 0001:0004c0e0       ??$emplace@_KAEAV?$basic_string@DU?$char_traits@D@std@@V?$allocator@D@2@@std@@@?$_Hash@V?$_Umap_traits@KV?$basic_string@DU?$char_traits@D@std@@V?$allocator@D@2@@std@@V?$_Uhash_compare@KU?$hash@K@std@@U?$equal_to@K@2@@2@V?$allocator@U?$pair@$$CBKV?$basic_string@DU?$char_traits@D@std@@V?$allocator@D@2@@std@@@std@@@2@$0A@@std@@@std@@QEAA?AU?$pair@V?$_List_iterator@V?$_List_val@U?$_List_simple_types@U?$pair@$$CBKV?$basic_string@DU?$char_traits@D@std@@V?$allocator@D@2@@std@@@std@@@std@@@std@@@std@@_N@1@$$QEA_KAEAV?$basic_string@DU?$char_traits@D@std@@V?$allocator@D@2@@1@@Z 000000018004d0e0 f i object_loop.obj
 0001:0004c3a0       ??$emplace_back@AEAV?$basic_string@DU?$char_traits@D@std@@V?$allocator@D@2@@std@@@?$vector@V?$basic_string@DU?$char_traits@D@std@@V?$allocator@D@2@@std@@V?$allocator@V?$basic_string@DU?$char_traits@D@std@@V?$allocator@D@2@@std@@@2@@std@@QEAA?A_TAEAV?$basic_string@DU?$char_traits@D@std@@V?$allocator@D@2@@1@@Z 000000018004d3a0 f i object_loop.obj
 0001:0004c3e0       ??$emplace_back@AEAV?$tuple@_KV?$basic_string@DU?$char_traits@D@std@@V?$allocator@D@2@@std@@VVector3@@UImColor@@@std@@@?$vector@V?$tuple@_KV?$basic_string@DU?$char_traits@D@std@@V?$allocator@D@2@@std@@VVector3@@UImColor@@@std@@V?$allocator@V?$tuple@_KV?$basic_string@DU?$char_traits@D@std@@V?$allocator@D@2@@std@@VVector3@@UImColor@@@std@@@2@@std@@QEAA?A_TAEAV?$tuple@_KV?$basic_string@DU?$char_traits@D@std@@V?$allocator@D@2@@std@@VVector3@@UImColor@@@1@@Z 000000018004d3e0 f i object_loop.obj
 0001:0004c3e0       ??$emplace_back@AEBV?$tuple@_KV?$basic_string@DU?$char_traits@D@std@@V?$allocator@D@2@@std@@VVector3@@UImColor@@@std@@@?$vector@V?$tuple@_KV?$basic_string@DU?$char_traits@D@std@@V?$allocator@D@2@@std@@VVector3@@UImColor@@@std@@V?$allocator@V?$tuple@_KV?$basic_string@DU?$char_traits@D@std@@V?$allocator@D@2@@std@@VVector3@@UImColor@@@std@@@2@@std@@QEAA?A_TAEBV?$tuple@_KV?$basic_string@DU?$char_traits@D@std@@V?$allocator@D@2@@std@@VVector3@@UImColor@@@1@@Z 000000018004d3e0 f i object_loop.obj
 0001:0004c480       ??$find@X@?$_Hash@V?$_Umap_traits@KV?$basic_string@DU?$char_traits@D@std@@V?$allocator@D@2@@std@@V?$_Uhash_compare@KU?$hash@K@std@@U?$equal_to@K@2@@2@V?$allocator@U?$pair@$$CBKV?$basic_string@DU?$char_traits@D@std@@V?$allocator@D@2@@std@@@std@@@2@$0A@@std@@@std@@QEAA?AV?$_List_iterator@V?$_List_val@U?$_List_simple_types@U?$pair@$$CBKV?$basic_string@DU?$char_traits@D@std@@V?$allocator@D@2@@std@@@std@@@std@@@std@@@1@AEBK@Z 000000018004d480 f i object_loop.obj
 0001:0004c520       ??$make_tuple@AEA_KAEAV?$basic_string@DU?$char_traits@D@std@@V?$allocator@D@2@@std@@AEAVVector3@@AEAUImColor@@@std@@YA?AV?$tuple@_KV?$basic_string@DU?$char_traits@D@std@@V?$allocator@D@2@@std@@VVector3@@UImColor@@@0@AEA_KAEAV?$basic_string@DU?$char_traits@D@std@@V?$allocator@D@2@@0@AEAVVector3@@AEAUImColor@@@Z 000000018004d520 f i object_loop.obj
 0001:0004c580       ??$sleep_for@_JU?$ratio@$00$0DLJKMKAA@@std@@@this_thread@std@@YAXAEBV?$duration@_JU?$ratio@$00$0DLJKMKAA@@std@@@chrono@1@@Z 000000018004d580 f i object_loop.obj
 0001:0004c5f0       ??0?$basic_string@DU?$char_traits@D@std@@V?$allocator@D@2@@std@@QEAA@XZ 000000018004d5f0 f i object_loop.obj
 0001:0004c610       ??0?$tuple@_KV?$basic_string@DU?$char_traits@D@std@@V?$allocator@D@2@@std@@VVector3@@@std@@QEAA@AEBV01@@Z 000000018004d610 f i object_loop.obj
 0001:0004c660       ??0?$tuple@_KV?$basic_string@DU?$char_traits@D@std@@V?$allocator@D@2@@std@@VVector3@@UImColor@@@std@@QEAA@AEBV01@@Z 000000018004d660 f i object_loop.obj
 0001:0004c6b0       ??0ImColor@@QEAA@MMMM@Z    000000018004d6b0 f i object_loop.obj
 0001:0004c6e0       ??0locker@br@@QEAA@AEAUmutex@1@_N@Z 000000018004d6e0 f i object_loop.obj
 0001:0004c780       ??0rCache@@QEAA@AEBU0@@Z   000000018004d780 f i object_loop.obj
 0001:0004c940       ??1?$_Hash@V?$_Uset_traits@KV?$_Uhash_compare@KU?$hash@K@std@@U?$equal_to@K@2@@std@@V?$allocator@K@2@$0A@@std@@@std@@QEAA@XZ 000000018004d940 f i object_loop.obj
 0001:0004ca00       ??1?$_List_node_emplace_op2@V?$allocator@U?$_List_node@U?$pair@$$CBKV?$basic_string@DU?$char_traits@D@std@@V?$allocator@D@2@@std@@@std@@PEAX@std@@@std@@@std@@QEAA@XZ 000000018004da00 f i object_loop.obj
 0001:0004ca40       ??1?$list@KV?$allocator@K@std@@@std@@QEAA@XZ 000000018004da40 f i object_loop.obj
 0001:0004caa0       ??1?$list@U?$pair@$$CBKUrCache@@@std@@V?$allocator@U?$pair@$$CBKUrCache@@@std@@@2@@std@@QEAA@XZ 000000018004daa0 f i object_loop.obj
 0001:0004cae0       ??1?$list@U?$pair@$$CBKV?$basic_string@DU?$char_traits@D@std@@V?$allocator@D@2@@std@@@std@@V?$allocator@U?$pair@$$CBKV?$basic_string@DU?$char_traits@D@std@@V?$allocator@D@2@@std@@@std@@@2@@std@@QEAA@XZ 000000018004dae0 f i object_loop.obj
 0001:0004cb50       ??1?$pair@_KV?$basic_string@DU?$char_traits@D@std@@V?$allocator@D@2@@std@@@std@@QEAA@XZ 000000018004db50 f i object_loop.obj
 0001:0004cb60       ??1?$tuple@_KV?$basic_string@DU?$char_traits@D@std@@V?$allocator@D@2@@std@@VVector3@@@std@@QEAA@XZ 000000018004db60 f i object_loop.obj
 0001:0004cb70       ??1?$tuple@_KV?$basic_string@DU?$char_traits@D@std@@V?$allocator@D@2@@std@@VVector3@@UImColor@@@std@@QEAA@XZ 000000018004db70 f i object_loop.obj
 0001:0004cb80       ??1?$tuple@_KV?$basic_string@DU?$char_traits@D@std@@V?$allocator@D@2@@std@@VVector3@@V?$time_point@Usteady_clock@chrono@std@@V?$duration@_JU?$ratio@$00$0DLJKMKAA@@std@@@23@@chrono@2@@std@@QEAA@XZ 000000018004db80 f i object_loop.obj
 0001:0004cb90       ??1?$tuple@_KV?$vector@V?$basic_string@DU?$char_traits@D@std@@V?$allocator@D@2@@std@@V?$allocator@V?$basic_string@DU?$char_traits@D@std@@V?$allocator@D@2@@std@@@2@@std@@VVector3@@UImColor@@@std@@QEAA@XZ 000000018004db90 f i object_loop.obj
 0001:0004cba0       ??1rCache@@QEAA@XZ         000000018004dba0 f i object_loop.obj
 0001:0004cbe0       ??4?$basic_string@DU?$char_traits@D@std@@V?$allocator@D@2@@std@@QEAAAEAV01@AEBV01@@Z 000000018004dbe0 f i object_loop.obj
 0001:0004cc10       ??4?$basic_string@DU?$char_traits@D@std@@V?$allocator@D@2@@std@@QEAAAEAV01@QEBD@Z 000000018004dc10 f i object_loop.obj
 0001:0004cc40       ??A?$unordered_map@KV?$basic_string@DU?$char_traits@D@std@@V?$allocator@D@2@@std@@U?$hash@K@2@U?$equal_to@K@2@V?$allocator@U?$pair@$$CBKV?$basic_string@DU?$char_traits@D@std@@V?$allocator@D@2@@std@@@std@@@2@@std@@QEAAAEAV?$basic_string@DU?$char_traits@D@std@@V?$allocator@D@2@@1@$$QEAK@Z 000000018004dc40 f i object_loop.obj
 0001:0004cc60       ?_Buy_raw@?$vector@V?$basic_string@DU?$char_traits@D@std@@V?$allocator@D@2@@std@@V?$allocator@V?$basic_string@DU?$char_traits@D@std@@V?$allocator@D@2@@std@@@2@@std@@AEAAX_K@Z 000000018004dc60 f i object_loop.obj
 0001:0004cd00       ?_Change_array@?$vector@V?$basic_string@DU?$char_traits@D@std@@V?$allocator@D@2@@std@@V?$allocator@V?$basic_string@DU?$char_traits@D@std@@V?$allocator@D@2@@std@@@2@@std@@AEAAXQEAV?$basic_string@DU?$char_traits@D@std@@V?$allocator@D@2@@2@_K1@Z 000000018004dd00 f i object_loop.obj
 0001:0004cdc0       ?_Change_array@?$vector@V?$tuple@_KV?$basic_string@DU?$char_traits@D@std@@V?$allocator@D@2@@std@@VVector3@@@std@@V?$allocator@V?$tuple@_KV?$basic_string@DU?$char_traits@D@std@@V?$allocator@D@2@@std@@VVector3@@@std@@@2@@std@@AEAAXQEAV?$tuple@_KV?$basic_string@DU?$char_traits@D@std@@V?$allocator@D@2@@std@@VVector3@@@2@_K1@Z 000000018004ddc0 f i object_loop.obj
 0001:0004cea0       ?_Change_array@?$vector@V?$tuple@_KV?$basic_string@DU?$char_traits@D@std@@V?$allocator@D@2@@std@@VVector3@@UImColor@@@std@@V?$allocator@V?$tuple@_KV?$basic_string@DU?$char_traits@D@std@@V?$allocator@D@2@@std@@VVector3@@UImColor@@@std@@@2@@std@@AEAAXQEAV?$tuple@_KV?$basic_string@DU?$char_traits@D@std@@V?$allocator@D@2@@std@@VVector3@@UImColor@@@2@_K1@Z 000000018004dea0 f i object_loop.obj
 0001:0004cfa0       ?_Clear_and_reserve_geometric@?$vector@U?$pair@_KV?$basic_string@DU?$char_traits@D@std@@V?$allocator@D@2@@std@@@std@@V?$allocator@U?$pair@_KV?$basic_string@DU?$char_traits@D@std@@V?$allocator@D@2@@std@@@std@@@2@@std@@AEAAX_K@Z 000000018004dfa0 f i object_loop.obj
 0001:0004d160       ?_Clear_and_reserve_geometric@?$vector@V?$tuple@_KV?$basic_string@DU?$char_traits@D@std@@V?$allocator@D@2@@std@@VVector3@@@std@@V?$allocator@V?$tuple@_KV?$basic_string@DU?$char_traits@D@std@@V?$allocator@D@2@@std@@VVector3@@@std@@@2@@std@@AEAAX_K@Z 000000018004e160 f i object_loop.obj
 0001:0004d320       ?_Clear_and_reserve_geometric@?$vector@V?$tuple@_KV?$basic_string@DU?$char_traits@D@std@@V?$allocator@D@2@@std@@VVector3@@UImColor@@@std@@V?$allocator@V?$tuple@_KV?$basic_string@DU?$char_traits@D@std@@V?$allocator@D@2@@std@@VVector3@@UImColor@@@std@@@2@@std@@AEAAX_K@Z 000000018004e320 f i object_loop.obj
 0001:0004d4e0       ?_Forced_rehash@?$_Hash@V?$_Umap_traits@KV?$basic_string@DU?$char_traits@D@std@@V?$allocator@D@2@@std@@V?$_Uhash_compare@KU?$hash@K@std@@U?$equal_to@K@2@@2@V?$allocator@U?$pair@$$CBKV?$basic_string@DU?$char_traits@D@std@@V?$allocator@D@2@@std@@@std@@@2@$0A@@std@@@std@@IEAAX_K@Z 000000018004e4e0 f i object_loop.obj
 0001:0004d6c0       ?_Rehash_for_1@?$_Hash@V?$_Umap_traits@KV?$basic_string@DU?$char_traits@D@std@@V?$allocator@D@2@@std@@V?$_Uhash_compare@KU?$hash@K@std@@U?$equal_to@K@2@@2@V?$allocator@U?$pair@$$CBKV?$basic_string@DU?$char_traits@D@std@@V?$allocator@D@2@@std@@@std@@@2@$0A@@std@@@std@@IEAAXXZ 000000018004e6c0 f i object_loop.obj
 0001:0004d790       ?c_str@?$basic_string@DU?$char_traits@D@std@@V?$allocator@D@2@@std@@QEBAPEBDXZ 000000018004e790 f i object_loop.obj
 0001:0004d7a0       ?deallocate@?$allocator@V?$basic_string@DU?$char_traits@D@std@@V?$allocator@D@2@@std@@@std@@QEAAXQEAV?$basic_string@DU?$char_traits@D@std@@V?$allocator@D@2@@2@_K@Z 000000018004e7a0 f i object_loop.obj
 0001:0004d800       ?deallocate@?$allocator@V?$tuple@_KV?$basic_string@DU?$char_traits@D@std@@V?$allocator@D@2@@std@@VVector3@@@std@@@std@@QEAAXQEAV?$tuple@_KV?$basic_string@DU?$char_traits@D@std@@V?$allocator@D@2@@std@@VVector3@@@2@_K@Z 000000018004e800 f i object_loop.obj
 0001:0004d840       ?deallocate@?$allocator@V?$tuple@_KV?$basic_string@DU?$char_traits@D@std@@V?$allocator@D@2@@std@@VVector3@@UImColor@@@std@@@std@@QEAAXQEAV?$tuple@_KV?$basic_string@DU?$char_traits@D@std@@V?$allocator@D@2@@std@@VVector3@@UImColor@@@2@_K@Z 000000018004e840 f i object_loop.obj
 0001:0004d8a0       ?deallocate@?$allocator@V?$tuple@_KV?$basic_string@DU?$char_traits@D@std@@V?$allocator@D@2@@std@@VVector3@@V?$time_point@Usteady_clock@chrono@std@@V?$duration@_JU?$ratio@$00$0DLJKMKAA@@std@@@23@@chrono@2@@std@@@std@@QEAAXQEAV?$tuple@_KV?$basic_string@DU?$char_traits@D@std@@V?$allocator@D@2@@std@@VVector3@@V?$time_point@Usteady_clock@chrono@std@@V?$duration@_JU?$ratio@$00$0DLJKMKAA@@std@@@23@@chrono@2@@2@_K@Z 000000018004e8a0 f i object_loop.obj
 0001:0004d8a0       ?deallocate@?$allocator@V?$tuple@_KV?$vector@V?$basic_string@DU?$char_traits@D@std@@V?$allocator@D@2@@std@@V?$allocator@V?$basic_string@DU?$char_traits@D@std@@V?$allocator@D@2@@std@@@2@@std@@VVector3@@UImColor@@@std@@@std@@QEAAXQEAV?$tuple@_KV?$vector@V?$basic_string@DU?$char_traits@D@std@@V?$allocator@D@2@@std@@V?$allocator@V?$basic_string@DU?$char_traits@D@std@@V?$allocator@D@2@@std@@@2@@std@@VVector3@@UImColor@@@2@_K@Z 000000018004e8a0 f i object_loop.obj
 0001:0004d8f0       ?distance@Vector3@@QEBAMV1@@Z 000000018004e8f0 f i object_loop.obj
 0001:0004d940       ?empty@Vector3@@QEBA_NXZ   000000018004e940 f i object_loop.obj
 0001:0004d980       ?find@?$basic_string@_WU?$char_traits@_W@std@@V?$allocator@_W@2@@std@@QEBA_KQEB_W_K@Z 000000018004e980 f i object_loop.obj
 0001:0004daa0       ?find@CSharedMemComms@@QEAA_KI@Z 000000018004eaa0 f i object_loop.obj
 0001:0004db80       ?get_username_steam64@steam@@YAX_KAEAV?$basic_string@DU?$char_traits@D@std@@V?$allocator@D@2@@std@@@Z 000000018004eb80 f   steam.obj
 0001:0004de20       ?RequestData@@YA?AW4CURLcode@@PEBDAEAV?$basic_string@DU?$char_traits@D@std@@V?$allocator@D@2@@std@@@Z 000000018004ee20 f   steam.obj
 0001:0004dec0       ?get_position_injected@unity@@YA?AVVector3@@PEAVCSharedMemComms@@_K@Z 000000018004eec0 f   unity.obj
 0001:0004e1e0       ?get_component@unity@@YA_KPEAVCSharedMemComms@@_KPEBD@Z 000000018004f1e0 f   unity.obj
 0001:0004e680       ??$read@UTransformAccessReadOnly@@@CSharedMemComms@@QEAA?AUTransformAccessReadOnly@@_K@Z 000000018004f680 f i unity.obj
 0001:0004e680       ??$read@UTransformData@@@CSharedMemComms@@QEAA?AUTransformData@@_K@Z 000000018004f680 f i unity.obj
 0001:0004e840       ?CreateContext@ImGui@@YAPEAUImGuiContext@@PEAUImFontAtlas@@@Z 000000018004f840 f   imgui.obj
 0001:0004e8c0       ?DestroyContext@ImGui@@YAXPEAUImGuiContext@@@Z 000000018004f8c0 f   imgui.obj
 0001:0004e940       ?GetCurrentContext@ImGui@@YAPEAUImGuiContext@@XZ 000000018004f940 f   imgui.obj
 0001:0004e960       ?SetCurrentContext@ImGui@@YAXPEAUImGuiContext@@@Z 000000018004f960 f   imgui.obj
 0001:0004e980       ?GetIO@ImGui@@YAAEAUImGuiIO@@XZ 000000018004f980 f   imgui.obj
 0001:0004e9a0       ?GetStyle@ImGui@@YAAEAUImGuiStyle@@XZ 000000018004f9a0 f   imgui.obj
 0001:0004e9c0       ?NewFrame@ImGui@@YAXXZ     000000018004f9c0 f   imgui.obj
 0001:0004f620       ?EndFrame@ImGui@@YAXXZ     0000000180050620 f   imgui.obj
 0001:0004f940       ?Render@ImGui@@YAXXZ       0000000180050940 f   imgui.obj
 0001:0004fd60       ?GetDrawData@ImGui@@YAPEAUImDrawData@@XZ 0000000180050d60 f   imgui.obj
 0001:0004fd80       ?ShowMetricsWindow@ImGui@@YAXPEA_N@Z 0000000180050d80 f   imgui.obj
 0001:0004fda0       ?GetVersion@ImGui@@YAPEBDXZ 0000000180050da0 f   imgui.obj
 0001:0004fdc0       ?Begin@ImGui@@YA_NPEBDPEA_NH@Z 0000000180050dc0 f   imgui.obj
 0001:00052040       ?End@ImGui@@YAXXZ          0000000180053040 f   imgui.obj
 0001:000522a0       ?BeginChild@ImGui@@YA_NPEBDAEBUImVec2@@_NH@Z 00000001800532a0 f   imgui.obj
 0001:00052360       ?BeginChild@ImGui@@YA_NIAEBUImVec2@@_NH@Z 0000000180053360 f   imgui.obj
 0001:000523a0       ?EndChild@ImGui@@YAXXZ     00000001800533a0 f   imgui.obj
 0001:00052620       ?IsWindowAppearing@ImGui@@YA_NXZ 0000000180053620 f   imgui.obj
 0001:00052640       ?IsWindowCollapsed@ImGui@@YA_NXZ 0000000180053640 f   imgui.obj
 0001:00052660       ?IsWindowFocused@ImGui@@YA_NH@Z 0000000180053660 f   imgui.obj
 0001:00052740       ?IsWindowHovered@ImGui@@YA_NH@Z 0000000180053740 f   imgui.obj
 0001:00052880       ?GetWindowDrawList@ImGui@@YAPEAUImDrawList@@XZ 0000000180053880 f   imgui.obj
 0001:000528c0       ?GetWindowPos@ImGui@@YA?AUImVec2@@XZ 00000001800538c0 f   imgui.obj
 0001:00052900       ?GetWindowSize@ImGui@@YA?AUImVec2@@XZ 0000000180053900 f   imgui.obj
 0001:00052940       ?GetWindowWidth@ImGui@@YAMXZ 0000000180053940 f   imgui.obj
 0001:00052960       ?GetWindowHeight@ImGui@@YAMXZ 0000000180053960 f   imgui.obj
 0001:00052980       ?SetNextWindowPos@ImGui@@YAXAEBUImVec2@@H0@Z 0000000180053980 f   imgui.obj
 0001:000529e0       ?SetNextWindowSize@ImGui@@YAXAEBUImVec2@@H@Z 00000001800539e0 f   imgui.obj
 0001:00052a20       ?SetNextWindowSizeConstraints@ImGui@@YAXAEBUImVec2@@0P6AXPEAUImGuiSizeCallbackData@@@ZPEAX@Z 0000000180053a20 f   imgui.obj
 0001:00052a60       ?SetNextWindowContentSize@ImGui@@YAXAEBUImVec2@@@Z 0000000180053a60 f   imgui.obj
 0001:00052aa0       ?SetNextWindowCollapsed@ImGui@@YAX_NH@Z 0000000180053aa0 f   imgui.obj
 0001:00052ae0       ?SetNextWindowFocus@ImGui@@YAXXZ 0000000180053ae0 f   imgui.obj
 0001:00052b00       ?SetNextWindowBgAlpha@ImGui@@YAXM@Z 0000000180053b00 f   imgui.obj
 0001:00052b20       ?SetWindowPos@ImGui@@YAXAEBUImVec2@@H@Z 0000000180053b20 f   imgui.obj
 0001:00052b40       ?SetWindowSize@ImGui@@YAXAEBUImVec2@@H@Z 0000000180053b40 f   imgui.obj
 0001:00052b60       ?SetWindowCollapsed@ImGui@@YAX_NH@Z 0000000180053b60 f   imgui.obj
 0001:00052ba0       ?SetWindowFocus@ImGui@@YAXXZ 0000000180053ba0 f   imgui.obj
 0001:00052bc0       ?SetWindowFontScale@ImGui@@YAXM@Z 0000000180053bc0 f   imgui.obj
 0001:00052c20       ?SetWindowPos@ImGui@@YAXPEBDAEBUImVec2@@H@Z 0000000180053c20 f   imgui.obj
 0001:00052cc0       ?SetWindowSize@ImGui@@YAXPEBDAEBUImVec2@@H@Z 0000000180053cc0 f   imgui.obj
 0001:00052d60       ?SetWindowCollapsed@ImGui@@YAXPEBD_NH@Z 0000000180053d60 f   imgui.obj
 0001:00052e00       ?SetWindowFocus@ImGui@@YAXPEBD@Z 0000000180053e00 f   imgui.obj
 0001:00052f00       ?GetContentRegionMax@ImGui@@YA?AUImVec2@@XZ 0000000180053f00 f   imgui.obj
 0001:00052f60       ?GetContentRegionAvail@ImGui@@YA?AUImVec2@@XZ 0000000180053f60 f   imgui.obj
 0001:00052fc0       ?GetWindowContentRegionMin@ImGui@@YA?AUImVec2@@XZ 0000000180053fc0 f   imgui.obj
 0001:00053000       ?GetWindowContentRegionMax@ImGui@@YA?AUImVec2@@XZ 0000000180054000 f   imgui.obj
 0001:00053040       ?GetWindowContentRegionWidth@ImGui@@YAMXZ 0000000180054040 f   imgui.obj
 0001:00053080       ?GetScrollX@ImGui@@YAMXZ   0000000180054080 f   imgui.obj
 0001:000530a0       ?GetScrollY@ImGui@@YAMXZ   00000001800540a0 f   imgui.obj
 0001:000530c0       ?GetScrollMaxX@ImGui@@YAMXZ 00000001800540c0 f   imgui.obj
 0001:000530e0       ?GetScrollMaxY@ImGui@@YAMXZ 00000001800540e0 f   imgui.obj
 0001:00053100       ?SetScrollX@ImGui@@YAXM@Z  0000000180054100 f   imgui.obj
 0001:00053140       ?SetScrollY@ImGui@@YAXM@Z  0000000180054140 f   imgui.obj
 0001:00053180       ?SetScrollHereX@ImGui@@YAXM@Z 0000000180054180 f   imgui.obj
 0001:00053200       ?SetScrollHereY@ImGui@@YAXM@Z 0000000180054200 f   imgui.obj
 0001:00053280       ?SetScrollFromPosX@ImGui@@YAXMM@Z 0000000180054280 f   imgui.obj
 0001:000532c0       ?SetScrollFromPosY@ImGui@@YAXMM@Z 00000001800542c0 f   imgui.obj
 0001:000532e0       ?PushFont@ImGui@@YAXPEAUImFont@@@Z 00000001800542e0 f   imgui.obj
 0001:00053440       ?PopFont@ImGui@@YAXXZ      0000000180054440 f   imgui.obj
 0001:000534e0       ?PushStyleColor@ImGui@@YAXHI@Z 00000001800544e0 f   imgui.obj
 0001:000535c0       ?PushStyleColor@ImGui@@YAXHAEBUImVec4@@@Z 00000001800545c0 f   imgui.obj
 0001:00053640       ?PopStyleColor@ImGui@@YAXH@Z 0000000180054640 f   imgui.obj
 0001:000536a0       ?PushStyleVar@ImGui@@YAXHM@Z 00000001800546a0 f   imgui.obj
 0001:00053740       ?PushStyleVar@ImGui@@YAXHAEBUImVec2@@@Z 0000000180054740 f   imgui.obj
 0001:000537e0       ?PopStyleVar@ImGui@@YAXH@Z 00000001800547e0 f   imgui.obj
 0001:00053a40       ?GetStyleColorVec4@ImGui@@YAAEBUImVec4@@H@Z 0000000180054a40 f   imgui.obj
 0001:00053a60       ?GetFont@ImGui@@YAPEAUImFont@@XZ 0000000180054a60 f   imgui.obj
 0001:00053a80       ?GetFontSize@ImGui@@YAMXZ  0000000180054a80 f   imgui.obj
 0001:00053aa0       ?GetFontTexUvWhitePixel@ImGui@@YA?AUImVec2@@XZ 0000000180054aa0 f   imgui.obj
 0001:00053ac0       ?GetColorU32@ImGui@@YAIHM@Z 0000000180054ac0 f   imgui.obj
 0001:00053b20       ?GetColorU32@ImGui@@YAIAEBUImVec4@@@Z 0000000180054b20 f   imgui.obj
 0001:00053b60       ?GetColorU32@ImGui@@YAII@Z 0000000180054b60 f   imgui.obj
 0001:00053ba0       ?PushItemWidth@ImGui@@YAXM@Z 0000000180054ba0 f   imgui.obj
 0001:00053c40       ?PopItemWidth@ImGui@@YAXXZ 0000000180054c40 f   imgui.obj
 0001:00053ca0       ?SetNextItemWidth@ImGui@@YAXM@Z 0000000180054ca0 f   imgui.obj
 0001:00053cc0       ?CalcItemWidth@ImGui@@YAMXZ 0000000180054cc0 f   imgui.obj
 0001:00053d40       ?PushTextWrapPos@ImGui@@YAXM@Z 0000000180054d40 f   imgui.obj
 0001:00053de0       ?PopTextWrapPos@ImGui@@YAXXZ 0000000180054de0 f   imgui.obj
 0001:00053e40       ?PushAllowKeyboardFocus@ImGui@@YAX_N@Z 0000000180054e40 f   imgui.obj
 0001:00053e60       ?PopAllowKeyboardFocus@ImGui@@YAXXZ 0000000180054e60 f   imgui.obj
 0001:00053ec0       ?PushButtonRepeat@ImGui@@YAX_N@Z 0000000180054ec0 f   imgui.obj
 0001:00053ee0       ?PopButtonRepeat@ImGui@@YAXXZ 0000000180054ee0 f   imgui.obj
 0001:00053f40       ?SameLine@ImGui@@YAXMM@Z   0000000180054f40 f   imgui.obj
 0001:00054000       ?Indent@ImGui@@YAXM@Z      0000000180055000 f   imgui.obj
 0001:00054060       ?Unindent@ImGui@@YAXM@Z    0000000180055060 f   imgui.obj
 0001:000540c0       ?BeginGroup@ImGui@@YAXXZ   00000001800550c0 f   imgui.obj
 0001:000541e0       ?EndGroup@ImGui@@YAXXZ     00000001800551e0 f   imgui.obj
 0001:000544e0       ?GetCursorPos@ImGui@@YA?AUImVec2@@XZ 00000001800554e0 f   imgui.obj
 0001:00054540       ?GetCursorPosX@ImGui@@YAMXZ 0000000180055540 f   imgui.obj
 0001:00054580       ?GetCursorPosY@ImGui@@YAMXZ 0000000180055580 f   imgui.obj
 0001:000545c0       ?SetCursorPos@ImGui@@YAXAEBUImVec2@@@Z 00000001800555c0 f   imgui.obj
 0001:00054640       ?SetCursorPosX@ImGui@@YAXM@Z 0000000180055640 f   imgui.obj
 0001:000546a0       ?SetCursorPosY@ImGui@@YAXM@Z 00000001800556a0 f   imgui.obj
 0001:00054700       ?GetCursorStartPos@ImGui@@YA?AUImVec2@@XZ 0000000180055700 f   imgui.obj
 0001:00054740       ?GetCursorScreenPos@ImGui@@YA?AUImVec2@@XZ 0000000180055740 f   imgui.obj
 0001:00054780       ?SetCursorScreenPos@ImGui@@YAXAEBUImVec2@@@Z 0000000180055780 f   imgui.obj
 0001:000547e0       ?GetTextLineHeight@ImGui@@YAMXZ 00000001800557e0 f   imgui.obj
 0001:00054800       ?GetTextLineHeightWithSpacing@ImGui@@YAMXZ 0000000180055800 f   imgui.obj
 0001:00054820       ?GetFrameHeight@ImGui@@YAMXZ 0000000180055820 f   imgui.obj
 0001:00054860       ?GetFrameHeightWithSpacing@ImGui@@YAMXZ 0000000180055860 f   imgui.obj
 0001:000548a0       ?PushID@ImGui@@YAXPEBD@Z   00000001800558a0 f   imgui.obj
 0001:00054940       ?PushID@ImGui@@YAXPEBD0@Z  0000000180055940 f   imgui.obj
 0001:000549e0       ?PushID@ImGui@@YAXPEBX@Z   00000001800559e0 f   imgui.obj
 0001:00054b20       ?PushID@ImGui@@YAXH@Z      0000000180055b20 f   imgui.obj
 0001:00054c00       ?PopID@ImGui@@YAXXZ        0000000180055c00 f   imgui.obj
 0001:00054c20       ?GetID@ImGui@@YAIPEBD@Z    0000000180055c20 f   imgui.obj
 0001:00054c80       ?GetID@ImGui@@YAIPEBD0@Z   0000000180055c80 f   imgui.obj
 0001:00054d00       ?GetID@ImGui@@YAIPEBX@Z    0000000180055d00 f   imgui.obj
 0001:00054e00       ?BeginTooltip@ImGui@@YAXXZ 0000000180055e00 f   imgui.obj
 0001:00054e20       ?EndTooltip@ImGui@@YAXXZ   0000000180055e20 f   imgui.obj
 0001:00054e40       ?SetTooltip@ImGui@@YAXPEBDZZ 0000000180055e40 f   imgui.obj
 0001:00054ea0       ?SetTooltipV@ImGui@@YAXPEBDPEAD@Z 0000000180055ea0 f   imgui.obj
 0001:00054ee0       ?BeginPopup@ImGui@@YA_NPEBDH@Z 0000000180055ee0 f   imgui.obj
 0001:00054f80       ?BeginPopupModal@ImGui@@YA_NPEBDPEA_NH@Z 0000000180055f80 f   imgui.obj
 0001:00055100       ?EndPopup@ImGui@@YAXXZ     0000000180056100 f   imgui.obj
 0001:00055160       ?OpenPopup@ImGui@@YAXPEBDH@Z 0000000180056160 f   imgui.obj
 0001:000551e0       ?OpenPopupOnItemClick@ImGui@@YAXPEBDH@Z 00000001800561e0 f   imgui.obj
 0001:00055360       ?CloseCurrentPopup@ImGui@@YAXXZ 0000000180056360 f   imgui.obj
 0001:00055420       ?BeginPopupContextItem@ImGui@@YA_NPEBDH@Z 0000000180056420 f   imgui.obj
 0001:00055660       ?BeginPopupContextWindow@ImGui@@YA_NPEBDH@Z 0000000180056660 f   imgui.obj
 0001:000557c0       ?BeginPopupContextVoid@ImGui@@YA_NPEBDH@Z 00000001800567c0 f   imgui.obj
 0001:00055920       ?IsPopupOpen@ImGui@@YA_NPEBDH@Z 0000000180056920 f   imgui.obj
 0001:000559a0       ?LogToTTY@ImGui@@YAXH@Z    00000001800569a0 f   imgui.obj
 0001:00055a20       ?LogToFile@ImGui@@YAXHPEBD@Z 0000000180056a20 f   imgui.obj
 0001:00055aa0       ?LogToClipboard@ImGui@@YAXH@Z 0000000180056aa0 f   imgui.obj
 0001:00055b20       ?LogFinish@ImGui@@YAXXZ    0000000180056b20 f   imgui.obj
 0001:00055c20       ?LogButtons@ImGui@@YAXXZ   0000000180056c20 f   imgui.obj
 0001:00055f00       ?LogText@ImGui@@YAXPEBDZZ  0000000180056f00 f   imgui.obj
 0001:00056000       ?BeginDragDropSource@ImGui@@YA_NH@Z 0000000180057000 f   imgui.obj
 0001:000563a0       ?SetDragDropPayload@ImGui@@YA_NPEBDPEBX_KH@Z 00000001800573a0 f   imgui.obj
 0001:000564e0       ?EndDragDropSource@ImGui@@YAXXZ 00000001800574e0 f   imgui.obj
 0001:00056520       ?BeginDragDropTarget@ImGui@@YA_NXZ 0000000180057520 f   imgui.obj
 0001:000565e0       ?AcceptDragDropPayload@ImGui@@YAPEBUImGuiPayload@@PEBDH@Z 00000001800575e0 f   imgui.obj
 0001:000568a0       ?EndDragDropTarget@ImGui@@YAXXZ 00000001800578a0 f   imgui.obj
 0001:000568c0       ?GetDragDropPayload@ImGui@@YAPEBUImGuiPayload@@XZ 00000001800578c0 f   imgui.obj
 0001:00056900       ?PushClipRect@ImGui@@YAXAEBUImVec2@@0_N@Z 0000000180057900 f   imgui.obj
 0001:000569a0       ?PopClipRect@ImGui@@YAXXZ  00000001800579a0 f   imgui.obj
 0001:00056a20       ?SetItemDefaultFocus@ImGui@@YAXXZ 0000000180057a20 f   imgui.obj
 0001:00056be0       ?SetKeyboardFocusHere@ImGui@@YAXH@Z 0000000180057be0 f   imgui.obj
 0001:00056c20       ?IsItemHovered@ImGui@@YA_NH@Z 0000000180057c20 f   imgui.obj
 0001:00056d40       ?IsItemActive@ImGui@@YA_NXZ 0000000180057d40 f   imgui.obj
 0001:00056d80       ?IsItemFocused@ImGui@@YA_NXZ 0000000180057d80 f   imgui.obj
 0001:00056dc0       ?IsItemClicked@ImGui@@YA_NH@Z 0000000180057dc0 f   imgui.obj
 0001:00056ec0       ?IsItemVisible@ImGui@@YA_NXZ 0000000180057ec0 f   imgui.obj
 0001:00056f20       ?IsItemEdited@ImGui@@YA_NXZ 0000000180057f20 f   imgui.obj
 0001:00056f40       ?IsItemActivated@ImGui@@YA_NXZ 0000000180057f40 f   imgui.obj
 0001:00056f80       ?IsItemDeactivated@ImGui@@YA_NXZ 0000000180057f80 f   imgui.obj
 0001:00056fe0       ?IsItemDeactivatedAfterEdit@ImGui@@YA_NXZ 0000000180057fe0 f   imgui.obj
 0001:00057060       ?IsItemToggledOpen@ImGui@@YA_NXZ 0000000180058060 f   imgui.obj
 0001:00057080       ?IsAnyItemHovered@ImGui@@YA_NXZ 0000000180058080 f   imgui.obj
 0001:000570c0       ?IsAnyItemActive@ImGui@@YA_NXZ 00000001800580c0 f   imgui.obj
 0001:000570e0       ?IsAnyItemFocused@ImGui@@YA_NXZ 00000001800580e0 f   imgui.obj
 0001:00057120       ?GetItemRectMin@ImGui@@YA?AUImVec2@@XZ 0000000180058120 f   imgui.obj
 0001:00057160       ?GetItemRectMax@ImGui@@YA?AUImVec2@@XZ 0000000180058160 f   imgui.obj
 0001:000571a0       ?GetItemRectSize@ImGui@@YA?AUImVec2@@XZ 00000001800581a0 f   imgui.obj
 0001:00057200       ?SetItemAllowOverlap@ImGui@@YAXXZ 0000000180058200 f   imgui.obj
 0001:00057240       ?IsRectVisible@ImGui@@YA_NAEBUImVec2@@@Z 0000000180058240 f   imgui.obj
 0001:000572a0       ?IsRectVisible@ImGui@@YA_NAEBUImVec2@@0@Z 00000001800582a0 f   imgui.obj
 0001:00057320       ?GetTime@ImGui@@YANXZ      0000000180058320 f   imgui.obj
 0001:00057340       ?GetFrameCount@ImGui@@YAHXZ 0000000180058340 f   imgui.obj
 0001:00057360       ?GetBackgroundDrawList@ImGui@@YAPEAUImDrawList@@XZ 0000000180058360 f   imgui.obj
 0001:00057380       ?GetForegroundDrawList@ImGui@@YAPEAUImDrawList@@XZ 0000000180058380 f   imgui.obj
 0001:000573a0       ?GetDrawListSharedData@ImGui@@YAPEAUImDrawListSharedData@@XZ 00000001800583a0 f   imgui.obj
 0001:000573c0       ?GetStyleColorName@ImGui@@YAPEBDH@Z 00000001800583c0 f   imgui.obj
 0001:00057640       ?SetStateStorage@ImGui@@YAXPEAUImGuiStorage@@@Z 0000000180058640 f   imgui.obj
 0001:00057680       ?GetStateStorage@ImGui@@YAPEAUImGuiStorage@@XZ 0000000180058680 f   imgui.obj
 0001:000576a0       ?CalcListClipping@ImGui@@YAXHMPEAH0@Z 00000001800586a0 f   imgui.obj
 0001:00057800       ?BeginChildFrame@ImGui@@YA_NIAEBUImVec2@@H@Z 0000000180058800 f   imgui.obj
 0001:00057a60       ?EndChildFrame@ImGui@@YAXXZ 0000000180058a60 f   imgui.obj
 0001:00057a80       ?CalcTextSize@ImGui@@YA?AUImVec2@@PEBD0_NM@Z 0000000180058a80 f   imgui.obj
 0001:00057b80       ?ColorConvertU32ToFloat4@ImGui@@YA?AUImVec4@@I@Z 0000000180058b80 f   imgui.obj
 0001:00057c00       ?ColorConvertFloat4ToU32@ImGui@@YAIAEBUImVec4@@@Z 0000000180058c00 f   imgui.obj
 0001:00057cc0       ?ColorConvertRGBtoHSV@ImGui@@YAXMMMAEAM00@Z 0000000180058cc0 f   imgui.obj
 0001:00057d80       ?ColorConvertHSVtoRGB@ImGui@@YAXMMMAEAM00@Z 0000000180058d80 f   imgui.obj
 0001:00057f40       ?GetKeyIndex@ImGui@@YAHH@Z 0000000180058f40 f   imgui.obj
 0001:00057f60       ?IsKeyDown@ImGui@@YA_NH@Z  0000000180058f60 f   imgui.obj
 0001:00057f80       ?IsKeyPressed@ImGui@@YA_NH_N@Z 0000000180058f80 f   imgui.obj
 0001:00058020       ?IsKeyReleased@ImGui@@YA_NH@Z 0000000180059020 f   imgui.obj
 0001:00058060       ?GetKeyPressedAmount@ImGui@@YAHHMM@Z 0000000180059060 f   imgui.obj
 0001:00058100       ?CaptureKeyboardFromApp@ImGui@@YAX_N@Z 0000000180059100 f   imgui.obj
 0001:00058120       ?IsMouseDown@ImGui@@YA_NH@Z 0000000180059120 f   imgui.obj
 0001:00058140       ?IsMouseClicked@ImGui@@YA_NH_N@Z 0000000180059140 f   imgui.obj
 0001:000581c0       ?IsMouseReleased@ImGui@@YA_NH@Z 00000001800591c0 f   imgui.obj
 0001:000581e0       ?IsMouseDoubleClicked@ImGui@@YA_NH@Z 00000001800591e0 f   imgui.obj
 0001:00058200       ?IsMouseHoveringRect@ImGui@@YA_NAEBUImVec2@@0_N@Z 0000000180059200 f   imgui.obj
 0001:00058300       ?IsMousePosValid@ImGui@@YA_NPEBUImVec2@@@Z 0000000180059300 f   imgui.obj
 0001:00058340       ?IsAnyMouseDown@ImGui@@YA_NXZ 0000000180059340 f   imgui.obj
 0001:00058380       ?GetMousePos@ImGui@@YA?AUImVec2@@XZ 0000000180059380 f   imgui.obj
 0001:000583a0       ?GetMousePosOnOpeningCurrentPopup@ImGui@@YA?AUImVec2@@XZ 00000001800593a0 f   imgui.obj
 0001:00058400       ?IsMouseDragging@ImGui@@YA_NHM@Z 0000000180059400 f   imgui.obj
 0001:00058440       ?GetMouseDragDelta@ImGui@@YA?AUImVec2@@HM@Z 0000000180059440 f   imgui.obj
 0001:00058520       ?ResetMouseDragDelta@ImGui@@YAXH@Z 0000000180059520 f   imgui.obj
 0001:00058560       ?GetMouseCursor@ImGui@@YAHXZ 0000000180059560 f   imgui.obj
 0001:00058580       ?SetMouseCursor@ImGui@@YAXH@Z 0000000180059580 f   imgui.obj
 0001:000585a0       ?CaptureMouseFromApp@ImGui@@YAX_N@Z 00000001800595a0 f   imgui.obj
 0001:000585c0       ?GetClipboardText@ImGui@@YAPEBDXZ 00000001800595c0 f   imgui.obj
 0001:00058600       ?SetClipboardText@ImGui@@YAXPEBD@Z 0000000180059600 f   imgui.obj
 0001:00058640       ?LoadIniSettingsFromDisk@ImGui@@YAXPEBD@Z 0000000180059640 f   imgui.obj
 0001:00058780       ?LoadIniSettingsFromMemory@ImGui@@YAXPEBD_K@Z 0000000180059780 f   imgui.obj
 0001:00058b20       ?SaveIniSettingsToDisk@ImGui@@YAXPEBD@Z 0000000180059b20 f   imgui.obj
 0001:00058c80       ?SaveIniSettingsToMemory@ImGui@@YAPEBDPEA_K@Z 0000000180059c80 f   imgui.obj
 0001:00058da0       ?DebugCheckVersionAndDataLayout@ImGui@@YA_NPEBD_K11111@Z 0000000180059da0 f   imgui.obj
 0001:00058e40       ?SetAllocatorFunctions@ImGui@@YAXP6APEAX_KPEAX@ZP6AX11@Z1@Z 0000000180059e40 f   imgui.obj
 0001:00058e60       ?MemAlloc@ImGui@@YAPEAX_K@Z 0000000180059e60 f   imgui.obj
 0001:00058ea0       ?MemFree@ImGui@@YAXPEAX@Z  0000000180059ea0 f   imgui.obj
 0001:00058ee0       ??0ImGuiStyle@@QEAA@XZ     0000000180059ee0 f   imgui.obj
 0001:00059060       ?ScaleAllSizes@ImGuiStyle@@QEAAXM@Z 000000018005a060 f   imgui.obj
 0001:00059380       ?AddInputCharacter@ImGuiIO@@QEAAXI@Z 000000018005a380 f   imgui.obj
 0001:00059400       ?AddInputCharacterUTF16@ImGuiIO@@QEAAXG@Z 000000018005a400 f   imgui.obj
 0001:000595a0       ?AddInputCharactersUTF8@ImGuiIO@@QEAAXPEBD@Z 000000018005a5a0 f   imgui.obj
 0001:00059680       ?ClearInputCharacters@ImGuiIO@@QEAAXXZ 000000018005a680 f   imgui.obj
 0001:000596c0       ??0ImGuiIO@@QEAA@XZ        000000018005a6c0 f   imgui.obj
 0001:00059a60       ??0ImGuiTextFilter@@QEAA@PEBD@Z 000000018005aa60 f   imgui.obj
 0001:00059ac0       ?Draw@ImGuiTextFilter@@QEAA_NPEBDM@Z 000000018005aac0 f   imgui.obj
 0001:00059b40       ?PassFilter@ImGuiTextFilter@@QEBA_NPEBD0@Z 000000018005ab40 f   imgui.obj
 0001:00059da0       ?Build@ImGuiTextFilter@@QEAAXXZ 000000018005ada0 f   imgui.obj
 0001:0005a000       ?split@ImGuiTextRange@ImGuiTextFilter@@QEBAXDPEAU?$ImVector@UImGuiTextRange@ImGuiTextFilter@@@@@Z 000000018005b000 f   imgui.obj
 0001:0005a140       ?append@ImGuiTextBuffer@@QEAAXPEBD0@Z 000000018005b140 f   imgui.obj
 0001:0005a220       ?appendf@ImGuiTextBuffer@@QEAAXPEBDZZ 000000018005b220 f   imgui.obj
 0001:0005a260       ?appendfv@ImGuiTextBuffer@@QEAAXPEBDPEAD@Z 000000018005b260 f   imgui.obj
 0001:0005a3a0       ?GetInt@ImGuiStorage@@QEBAHIH@Z 000000018005b3a0 f   imgui.obj
 0001:0005a420       ?SetInt@ImGuiStorage@@QEAAXIH@Z 000000018005b420 f   imgui.obj
 0001:0005a4c0       ?GetBool@ImGuiStorage@@QEBA_NI_N@Z 000000018005b4c0 f   imgui.obj
 0001:0005a540       ?SetBool@ImGuiStorage@@QEAAXI_N@Z 000000018005b540 f   imgui.obj
 0001:0005a5e0       ?GetFloat@ImGuiStorage@@QEBAMIM@Z 000000018005b5e0 f   imgui.obj
 0001:0005a660       ?SetFloat@ImGuiStorage@@QEAAXIM@Z 000000018005b660 f   imgui.obj
 0001:0005a700       ?GetVoidPtr@ImGuiStorage@@QEBAPEAXI@Z 000000018005b700 f   imgui.obj
 0001:0005a780       ?SetVoidPtr@ImGuiStorage@@QEAAXIPEAX@Z 000000018005b780 f   imgui.obj
 0001:0005a820       ?GetIntRef@ImGuiStorage@@QEAAPEAHIH@Z 000000018005b820 f   imgui.obj
 0001:0005a8c0       ?GetBoolRef@ImGuiStorage@@QEAAPEA_NI_N@Z 000000018005b8c0 f   imgui.obj
 0001:0005a980       ?GetFloatRef@ImGuiStorage@@QEAAPEAMIM@Z 000000018005b980 f   imgui.obj
 0001:0005aa20       ?GetVoidPtrRef@ImGuiStorage@@QEAAPEAPEAXIPEAX@Z 000000018005ba20 f   imgui.obj
 0001:0005aac0       ?SetAllInt@ImGuiStorage@@QEAAXH@Z 000000018005bac0 f   imgui.obj
 0001:0005ab00       ?BuildSortByKey@ImGuiStorage@@QEAAXXZ 000000018005bb00 f   imgui.obj
 0001:0005ab40       ??0ImGuiListClipper@@QEAA@XZ 000000018005bb40 f   imgui.obj
 0001:0005ab60       ??1ImGuiListClipper@@QEAA@XZ 000000018005bb60 f   imgui.obj
 0001:0005ab80       ?Begin@ImGuiListClipper@@QEAAXHM@Z 000000018005bb80 f   imgui.obj
 0001:0005abc0       ?End@ImGuiListClipper@@QEAAXXZ 000000018005bbc0 f   imgui.obj
 0001:0005ac20       ?Step@ImGuiListClipper@@QEAA_NXZ 000000018005bc20 f   imgui.obj
 0001:0005af20       ?ImHashData@@YAIPEBX_KI@Z  000000018005bf20 f   imgui.obj
 0001:0005af80       ?ImHashStr@@YAIPEBD_KI@Z   000000018005bf80 f   imgui.obj
 0001:0005b040       ?ImAlphaBlendColors@@YAIII@Z 000000018005c040 f   imgui.obj
 0001:0005b100       ?ImStricmp@@YAHPEBD0@Z     000000018005c100 f   imgui.obj
 0001:0005b1a0       ?ImStrnicmp@@YAHPEBD0_K@Z  000000018005c1a0 f   imgui.obj
 0001:0005b220       ?ImStrncpy@@YAXPEADPEBD_K@Z 000000018005c220 f   imgui.obj
 0001:0005b260       ?ImStrdup@@YAPEADPEBD@Z    000000018005c260 f   imgui.obj
 0001:0005b2e0       ?ImStrdupcpy@@YAPEADPEADPEA_KPEBD@Z 000000018005c2e0 f   imgui.obj
 0001:0005b3c0       ?ImStrchrRange@@YAPEBDPEBD0D@Z 000000018005c3c0 f   imgui.obj
 0001:0005b3e0       ?ImStrlenW@@YAHPEBG@Z      000000018005c3e0 f   imgui.obj
 0001:0005b420       ?ImStreolRange@@YAPEBDPEBD0@Z 000000018005c420 f   imgui.obj
 0001:0005b460       ?ImStrbolW@@YAPEBGPEBG0@Z  000000018005c460 f   imgui.obj
 0001:0005b4a0       ?ImStristr@@YAPEBDPEBD000@Z 000000018005c4a0 f   imgui.obj
 0001:0005b580       ?ImStrTrimBlanks@@YAXPEAD@Z 000000018005c580 f   imgui.obj
 0001:0005b620       ?ImStrSkipBlank@@YAPEBDPEBD@Z 000000018005c620 f   imgui.obj
 0001:0005b640       ?ImFormatString@@YAHPEAD_KPEBDZZ 000000018005c640 f   imgui.obj
 0001:0005b780       ?ImFormatStringV@@YAHPEAD_KPEBD0@Z 000000018005c780 f   imgui.obj
 0001:0005b8c0       ?ImTextStrToUtf8@@YAHPEADHPEBG1@Z 000000018005c8c0 f   imgui.obj
 0001:0005b9a0       ?ImTextCharFromUtf8@@YAHPEAIPEBD1@Z 000000018005c9a0 f   imgui.obj
 0001:0005bb60       ?ImTextStrFromUtf8@@YAHPEAGHPEBD1PEAPEBD@Z 000000018005cb60 f   imgui.obj
 0001:0005be40       ?ImTextCountCharsFromUtf8@@YAHPEBD0@Z 000000018005ce40 f   imgui.obj
 0001:0005c0e0       ?ImTextCountUtf8BytesFromChar@@YAHPEBD0@Z 000000018005d0e0 f   imgui.obj
 0001:0005c100       ?ImTextCountUtf8BytesFromStr@@YAHPEBG0@Z 000000018005d100 f   imgui.obj
 0001:0005c160       ?ImFileOpen@@YAPEAU_iobuf@@PEBD0@Z 000000018005d160 f   imgui.obj
 0001:0005c2c0       ?ImFileClose@@YA_NPEAU_iobuf@@@Z 000000018005d2c0 f   imgui.obj
 0001:0005c2e0       ?ImFileGetSize@@YA_KPEAU_iobuf@@@Z 000000018005d2e0 f   imgui.obj
 0001:0005c360       ?ImFileRead@@YA_KPEAX_K1PEAU_iobuf@@@Z 000000018005d360 f   imgui.obj
 0001:0005c380       ?ImFileWrite@@YA_KPEBX_K1PEAU_iobuf@@@Z 000000018005d380 f   imgui.obj
 0001:0005c3a0       ?ImFileLoadToMemory@@YAPEAXPEBD0PEA_KH@Z 000000018005d3a0 f   imgui.obj
 0001:0005c520       ?ImBezierClosestPoint@@YA?AUImVec2@@AEBU1@0000H@Z 000000018005d520 f   imgui.obj
 0001:0005c780       ?ImBezierClosestPointCasteljau@@YA?AUImVec2@@AEBU1@0000M@Z 000000018005d780 f   imgui.obj
 0001:0005c840       ?ImLineClosestPoint@@YA?AUImVec2@@AEBU1@00@Z 000000018005d840 f   imgui.obj
 0001:0005c900       ?ImTriangleContainsPoint@@YA_NAEBUImVec2@@000@Z 000000018005d900 f   imgui.obj
 0001:0005ca00       ?ImTriangleClosestPoint@@YA?AUImVec2@@AEBU1@000@Z 000000018005da00 f   imgui.obj
 0001:0005cce0       ?ImTriangleBarycentricCoords@@YAXAEBUImVec2@@000AEAM11@Z 000000018005dce0 f   imgui.obj
 0001:0005ce00       ?ImGetDirQuadrantFromDelta@@YAHMM@Z 000000018005de00 f   imgui.obj
 0001:0005ce40       ?FlattenIntoSingleLayer@ImDrawDataBuilder@@QEAAXXZ 000000018005de40 f   imgui.obj
 0001:0005cf00       ??0ImGuiWindow@@QEAA@PEAUImGuiContext@@PEBD@Z 000000018005df00 f   imgui.obj
 0001:0005d480       ??1ImGuiWindow@@QEAA@XZ    000000018005e480 f   imgui.obj
 0001:0005d620       ?GetID@ImGuiWindow@@QEAAIPEBD0@Z 000000018005e620 f   imgui.obj
 0001:0005d6a0       ?GetID@ImGuiWindow@@QEAAIPEBX@Z 000000018005e6a0 f   imgui.obj
 0001:0005d7a0       ?GetID@ImGuiWindow@@QEAAIH@Z 000000018005e7a0 f   imgui.obj
 0001:0005d860       ?GetIDNoKeepAlive@ImGuiWindow@@QEAAIPEBD0@Z 000000018005e860 f   imgui.obj
 0001:0005d8a0       ?GetIDNoKeepAlive@ImGuiWindow@@QEAAIPEBX@Z 000000018005e8a0 f   imgui.obj
 0001:0005d980       ?GetIDNoKeepAlive@ImGuiWindow@@QEAAIH@Z 000000018005e980 f   imgui.obj
 0001:0005da00       ?GetIDFromRectangle@ImGuiWindow@@QEAAIAEBUImRect@@@Z 000000018005ea00 f   imgui.obj
 0001:0005dbe0       ?FindWindowByID@ImGui@@YAPEAUImGuiWindow@@I@Z 000000018005ebe0 f   imgui.obj
 0001:0005dc60       ?FindWindowByName@ImGui@@YAPEAUImGuiWindow@@PEBD@Z 000000018005ec60 f   imgui.obj
 0001:0005dcc0       ?UpdateWindowParentAndRootLinks@ImGui@@YAXPEAUImGuiWindow@@H0@Z 000000018005ecc0 f   imgui.obj
 0001:0005dd60       ?CalcWindowExpectedSize@ImGui@@YA?AUImVec2@@PEAUImGuiWindow@@@Z 000000018005ed60 f   imgui.obj
 0001:0005ddc0       ?IsWindowChildOf@ImGui@@YA_NPEAUImGuiWindow@@0@Z 000000018005edc0 f   imgui.obj
 0001:0005de00       ?IsWindowNavFocusable@ImGui@@YA_NPEAUImGuiWindow@@@Z 000000018005ee00 f   imgui.obj
 0001:0005de40       ?GetWindowAllowedExtentRect@ImGui@@YA?AUImRect@@PEAUImGuiWindow@@@Z 000000018005ee40 f   imgui.obj
 0001:0005dee0       ?SetWindowPos@ImGui@@YAXPEAUImGuiWindow@@AEBUImVec2@@H@Z 000000018005eee0 f   imgui.obj
 0001:0005dfc0       ?SetWindowSize@ImGui@@YAXPEAUImGuiWindow@@AEBUImVec2@@H@Z 000000018005efc0 f   imgui.obj
 0001:0005e040       ?SetWindowCollapsed@ImGui@@YAXPEAUImGuiWindow@@_NH@Z 000000018005f040 f   imgui.obj
 0001:0005e080       ?SetWindowHitTestHole@ImGui@@YAXPEAUImGuiWindow@@AEBUImVec2@@1@Z 000000018005f080 f   imgui.obj
 0001:0005e0e0       ?FocusWindow@ImGui@@YAXPEAUImGuiWindow@@@Z 000000018005f0e0 f   imgui.obj
 0001:0005e300       ?FocusTopMostWindowUnderOne@ImGui@@YAXPEAUImGuiWindow@@0@Z 000000018005f300 f   imgui.obj
 0001:0005e3e0       ?BringWindowToFocusFront@ImGui@@YAXPEAUImGuiWindow@@@Z 000000018005f3e0 f   imgui.obj
 0001:0005e4a0       ?BringWindowToDisplayFront@ImGui@@YAXPEAUImGuiWindow@@@Z 000000018005f4a0 f   imgui.obj
 0001:0005e560       ?BringWindowToDisplayBack@ImGui@@YAXPEAUImGuiWindow@@@Z 000000018005f560 f   imgui.obj
 0001:0005e600       ?SetCurrentFont@ImGui@@YAXPEAUImFont@@@Z 000000018005f600 f   imgui.obj
 0001:0005e6c0       ?Initialize@ImGui@@YAXPEAUImGuiContext@@@Z 000000018005f6c0 f   imgui.obj
 0001:0005e8c0       ?Shutdown@ImGui@@YAXPEAUImGuiContext@@@Z 000000018005f8c0 f   imgui.obj
 0001:0005efa0       ?UpdateHoveredWindowAndCaptureFlags@ImGui@@YAXXZ 000000018005ffa0 f   imgui.obj
 0001:0005f300       ?StartMouseMovingWindow@ImGui@@YAXPEAUImGuiWindow@@@Z 0000000180060300 f   imgui.obj
 0001:0005f3a0       ?UpdateMouseMovingWindowNewFrame@ImGui@@YAXXZ 00000001800603a0 f   imgui.obj
 0001:0005f500       ?UpdateMouseMovingWindowEndFrame@ImGui@@YAXXZ 0000000180060500 f   imgui.obj
 0001:0005f7c0       ?MarkIniSettingsDirty@ImGui@@YAXXZ 00000001800607c0 f   imgui.obj
 0001:0005f800       ?MarkIniSettingsDirty@ImGui@@YAXPEAUImGuiWindow@@@Z 0000000180060800 f   imgui.obj
 0001:0005f840       ?ClearIniSettings@ImGui@@YAXXZ 0000000180060840 f   imgui.obj
 0001:0005f900       ?CreateNewWindowSettings@ImGui@@YAPEAUImGuiWindowSettings@@PEBD@Z 0000000180060900 f   imgui.obj
 0001:0005fa00       ?FindWindowSettings@ImGui@@YAPEAUImGuiWindowSettings@@I@Z 0000000180060a00 f   imgui.obj
 0001:0005fa60       ?FindOrCreateWindowSettings@ImGui@@YAPEAUImGuiWindowSettings@@PEBD@Z 0000000180060a60 f   imgui.obj
 0001:0005fb20       ?FindSettingsHandler@ImGui@@YAPEAUImGuiSettingsHandler@@PEBD@Z 0000000180060b20 f   imgui.obj
 0001:0005fbe0       ?SetNextWindowScroll@ImGui@@YAXAEBUImVec2@@@Z 0000000180060be0 f   imgui.obj
 0001:0005fc20       ?SetScrollX@ImGui@@YAXPEAUImGuiWindow@@M@Z 0000000180060c20 f   imgui.obj
 0001:0005fc40       ?SetScrollY@ImGui@@YAXPEAUImGuiWindow@@M@Z 0000000180060c40 f   imgui.obj
 0001:0005fc60       ?SetScrollFromPosX@ImGui@@YAXPEAUImGuiWindow@@MM@Z 0000000180060c60 f   imgui.obj
 0001:0005fca0       ?SetScrollFromPosY@ImGui@@YAXPEAUImGuiWindow@@MM@Z 0000000180060ca0 f   imgui.obj
 0001:0005fd80       ?ScrollToBringRectIntoView@ImGui@@YA?AUImVec2@@PEAUImGuiWindow@@AEBUImRect@@@Z 0000000180060d80 f   imgui.obj
 0001:0005ff80       ?SetActiveID@ImGui@@YAXIPEAUImGuiWindow@@@Z 0000000180060f80 f   imgui.obj
 0001:00060060       ?SetFocusID@ImGui@@YAXIPEAUImGuiWindow@@@Z 0000000180061060 f   imgui.obj
 0001:00060140       ?ClearActiveID@ImGui@@YAXXZ 0000000180061140 f   imgui.obj
 0001:000601a0       ?GetHoveredID@ImGui@@YAIXZ 00000001800611a0 f   imgui.obj
 0001:000601e0       ?SetHoveredID@ImGui@@YAXI@Z 00000001800611e0 f   imgui.obj
 0001:00060220       ?KeepAliveID@ImGui@@YAXI@Z 0000000180061220 f   imgui.obj
 0001:00060260       ?MarkItemEdited@ImGui@@YAXI@Z 0000000180061260 f   imgui.obj
 0001:000602a0       ?PushOverrideID@ImGui@@YAXI@Z 00000001800612a0 f   imgui.obj
 0001:00060320       ?GetIDWithSeed@ImGui@@YAIPEBD0I@Z 0000000180061320 f   imgui.obj
 0001:00060380       ?ItemSize@ImGui@@YAXAEBUImVec2@@M@Z 0000000180061380 f   imgui.obj
 0001:000604c0       ?ItemSize@ImGui@@YAXAEBUImRect@@M@Z 00000001800614c0 f   imgui.obj
 0001:00060500       ?ItemAdd@ImGui@@YA_NAEBUImRect@@IPEBU2@@Z 0000000180061500 f   imgui.obj
 0001:00060660       ?ItemHoverable@ImGui@@YA_NAEBUImRect@@I@Z 0000000180061660 f   imgui.obj
 0001:000607e0       ?IsClippedEx@ImGui@@YA_NAEBUImRect@@I_N@Z 00000001800617e0 f   imgui.obj
 0001:00060860       ?SetLastItemData@ImGui@@YAXPEAUImGuiWindow@@IHAEBUImRect@@@Z 0000000180061860 f   imgui.obj
 0001:00060880       ?FocusableItemRegister@ImGui@@YA_NPEAUImGuiWindow@@I@Z 0000000180061880 f   imgui.obj
 0001:00060980       ?FocusableItemUnregister@ImGui@@YAXPEAUImGuiWindow@@@Z 0000000180061980 f   imgui.obj
 0001:000609a0       ?CalcItemSize@ImGui@@YA?AUImVec2@@U2@MM@Z 00000001800619a0 f   imgui.obj
 0001:00060ac0       ?CalcWrapWidthForPos@ImGui@@YAMAEBUImVec2@@M@Z 0000000180061ac0 f   imgui.obj
 0001:00060b20       ?PushMultiItemsWidths@ImGui@@YAXHM@Z 0000000180061b20 f   imgui.obj
 0001:00060ca0       ?PushItemFlag@ImGui@@YAXH_N@Z 0000000180061ca0 f   imgui.obj
 0001:00060d40       ?PopItemFlag@ImGui@@YAXXZ  0000000180061d40 f   imgui.obj
 0001:00060da0       ?IsItemToggledSelection@ImGui@@YA_NXZ 0000000180061da0 f   imgui.obj
 0001:00060dc0       ?GetContentRegionMaxAbs@ImGui@@YA?AUImVec2@@XZ 0000000180061dc0 f   imgui.obj
 0001:00060e00       ?LogBegin@ImGui@@YAXW4ImGuiLogType@@H@Z 0000000180061e00 f   imgui.obj
 0001:00060e60       ?LogToBuffer@ImGui@@YAXH@Z 0000000180061e60 f   imgui.obj
 0001:00060ee0       ?BeginChildEx@ImGui@@YA_NPEBDIAEBUImVec2@@_NH@Z 0000000180061ee0 f   imgui.obj
 0001:00061100       ?OpenPopupEx@ImGui@@YAXIH@Z 0000000180062100 f   imgui.obj
 0001:00061340       ?ClosePopupToLevel@ImGui@@YAXH_N@Z 0000000180062340 f   imgui.obj
 0001:00061440       ?ClosePopupsOverWindow@ImGui@@YAXPEAUImGuiWindow@@_N@Z 0000000180062440 f   imgui.obj
 0001:00061520       ?IsPopupOpen@ImGui@@YA_NIH@Z 0000000180062520 f   imgui.obj
 0001:000615c0       ?BeginPopupEx@ImGui@@YA_NIH@Z 00000001800625c0 f   imgui.obj
 0001:00061660       ?BeginTooltipEx@ImGui@@YAXHH@Z 0000000180062660 f   imgui.obj
 0001:00061820       ?GetTopMostPopupModal@ImGui@@YAPEAUImGuiWindow@@XZ 0000000180062820 f   imgui.obj
 0001:00061880       ?FindBestWindowPosForPopup@ImGui@@YA?AUImVec2@@PEAUImGuiWindow@@@Z 0000000180062880 f   imgui.obj
 0001:00061b80       ?FindBestWindowPosForPopupEx@ImGui@@YA?AUImVec2@@AEBU2@0PEAHAEBUImRect@@2W4ImGuiPopupPositionPolicy@@@Z 0000000180062b80 f   imgui.obj
 0001:00061f00       ?NavInitWindow@ImGui@@YAXPEAUImGuiWindow@@_N@Z 0000000180062f00 f   imgui.obj
 0001:00061fc0       ?NavMoveRequestButNoResultYet@ImGui@@YA_NXZ 0000000180062fc0 f   imgui.obj
 0001:00062000       ?NavMoveRequestCancel@ImGui@@YAXXZ 0000000180063000 f   imgui.obj
 0001:00062040       ?NavMoveRequestForward@ImGui@@YAXHHAEBUImRect@@H@Z 0000000180063040 f   imgui.obj
 0001:000620c0       ?NavMoveRequestTryWrapping@ImGui@@YAXPEAUImGuiWindow@@H@Z 00000001800630c0 f   imgui.obj
 0001:000620e0       ?GetNavInputAmount@ImGui@@YAMHW4ImGuiInputReadMode@@@Z 00000001800630e0 f   imgui.obj
 0001:000621e0       ?GetNavInputAmount2d@ImGui@@YA?AUImVec2@@HW4ImGuiInputReadMode@@MM@Z 00000001800631e0 f   imgui.obj
 0001:00062420       ?CalcTypematicRepeatAmount@ImGui@@YAHMMMM@Z 0000000180063420 f   imgui.obj
 0001:000624a0       ?ActivateItem@ImGui@@YAXI@Z 00000001800634a0 f   imgui.obj
 0001:000624c0       ?SetNavID@ImGui@@YAXIHI@Z  00000001800634c0 f   imgui.obj
 0001:00062500       ?SetNavIDWithRectRel@ImGui@@YAXIHIAEBUImRect@@@Z 0000000180063500 f   imgui.obj
 0001:00062560       ?PushFocusScope@ImGui@@YAXI@Z 0000000180063560 f   imgui.obj
 0001:00062600       ?PopFocusScope@ImGui@@YAXXZ 0000000180063600 f   imgui.obj
 0001:00062640       ?IsMouseDragPastThreshold@ImGui@@YA_NHM@Z 0000000180063640 f   imgui.obj
 0001:00062680       ?GetMergedKeyModFlags@ImGui@@YAHXZ 0000000180063680 f   imgui.obj
 0001:000626e0       ?BeginDragDropTargetCustom@ImGui@@YA_NAEBUImRect@@I@Z 00000001800636e0 f   imgui.obj
 0001:000627a0       ?ClearDragDrop@ImGui@@YAXXZ 00000001800637a0 f   imgui.obj
 0001:00062880       ?IsDragDropPayloadBeingAccepted@ImGui@@YA_NXZ 0000000180063880 f   imgui.obj
 0001:000628c0       ?RenderText@ImGui@@YAXUImVec2@@PEBD1_N@Z 00000001800638c0 f   imgui.obj
 0001:00062a00       ?RenderTextWrapped@ImGui@@YAXUImVec2@@PEBD1M@Z 0000000180063a00 f   imgui.obj
 0001:00062b00       ?RenderTextClipped@ImGui@@YAXAEBUImVec2@@0PEBD1PEBU2@0PEBUImRect@@@Z 0000000180063b00 f   imgui.obj
 0001:00062be0       ?RenderTextClippedEx@ImGui@@YAXPEAUImDrawList@@AEBUImVec2@@1PEBD2PEBU3@1PEBUImRect@@@Z 0000000180063be0 f   imgui.obj
 0001:00062e60       ?RenderTextEllipsis@ImGui@@YAXPEAUImDrawList@@AEBUImVec2@@1MMPEBD2PEBU3@@Z 0000000180063e60 f   imgui.obj
 0001:00063300       ?RenderFrame@ImGui@@YAXUImVec2@@0I_NM@Z 0000000180064300 f   imgui.obj
 0001:000634c0       ?RenderFrameBorder@ImGui@@YAXUImVec2@@0M@Z 00000001800644c0 f   imgui.obj
 0001:00063640       ?RenderNavHighlight@ImGui@@YAXAEBUImRect@@IH@Z 0000000180064640 f   imgui.obj
 0001:00063900       ?FindRenderedTextEnd@ImGui@@YAPEBDPEBD0@Z 0000000180064900 f   imgui.obj
 0001:00063940       ?LogRenderedText@ImGui@@YAXPEBUImVec2@@PEBD1@Z 0000000180064940 f   imgui.obj
 0001:00063ae0       ?GetWindowResizeID@ImGui@@YAIPEAUImGuiWindow@@H@Z 0000000180064ae0 f   imgui.obj
 0001:00063ba0       ?GcCompactTransientWindowBuffers@ImGui@@YAXPEAUImGuiWindow@@@Z 0000000180064ba0 f   imgui.obj
 0001:00063d60       ?GcAwakeTransientWindowBuffers@ImGui@@YAXPEAUImGuiWindow@@@Z 0000000180064d60 f   imgui.obj
 0001:000647a0       stbsp_vsprintf             00000001800657a0 f   imgui.obj
 0001:000647e0       stbsp_vsnprintf            00000001800657e0 f   imgui.obj
 0001:00064920       stbsp_sprintf              0000000180065920 f   imgui.obj
 0001:00064960       stbsp_snprintf             0000000180065960 f   imgui.obj
 0001:00064a80       stbsp_vsprintfcb           0000000180065a80 f   imgui.obj
 0001:00066880       stbsp_set_separators       0000000180067880 f   imgui.obj
 0001:000669b0       ??0?$ImVector@PEAUImDrawList@@@@QEAA@XZ 00000001800679b0 f i imgui.obj
 0001:000669c0       ??0ImGuiContext@@QEAA@PEAUImFontAtlas@@@Z 00000001800679c0 f i imgui.obj
 0001:00067300       ??0ImGuiWindowTempData@@QEAA@XZ 0000000180068300 f i imgui.obj
 0001:00067460       ??1?$ImChunkStream@UImGuiWindowSettings@@@@QEAA@XZ 0000000180068460 f i imgui.obj
 0001:00067460       ??1ImGuiStorage@@QEAA@XZ   0000000180068460 f i imgui.obj
 0001:00067460       ??1ImGuiTextBuffer@@QEAA@XZ 0000000180068460 f i imgui.obj
 0001:000674a0       ??1?$ImPool@UImGuiTabBar@@@@QEAA@XZ 00000001800684a0 f i imgui.obj
 0001:00067510       ??1?$ImVector@D@@QEAA@XZ   0000000180068510 f i imgui.obj
 0001:00067510       ??1?$ImVector@E@@QEAA@XZ   0000000180068510 f i imgui.obj
 0001:00067510       ??1?$ImVector@G@@QEAA@XZ   0000000180068510 f i imgui.obj
 0001:00067510       ??1?$ImVector@I@@QEAA@XZ   0000000180068510 f i imgui.obj
 0001:00067510       ??1?$ImVector@PEAUImDrawList@@@@QEAA@XZ 0000000180068510 f i imgui.obj
 0001:00067510       ??1?$ImVector@PEAUImFont@@@@QEAA@XZ 0000000180068510 f i imgui.obj
 0001:00067510       ??1?$ImVector@PEAUImGuiWindow@@@@QEAA@XZ 0000000180068510 f i imgui.obj
 0001:00067510       ??1?$ImVector@UImGuiColorMod@@@@QEAA@XZ 0000000180068510 f i imgui.obj
 0001:00067510       ??1?$ImVector@UImGuiColumns@@@@QEAA@XZ 0000000180068510 f i imgui.obj
 0001:00067510       ??1?$ImVector@UImGuiPopupData@@@@QEAA@XZ 0000000180068510 f i imgui.obj
 0001:00067510       ??1?$ImVector@UImGuiPtrOrIndex@@@@QEAA@XZ 0000000180068510 f i imgui.obj
 0001:00067510       ??1?$ImVector@UImGuiSettingsHandler@@@@QEAA@XZ 0000000180068510 f i imgui.obj
 0001:00067510       ??1?$ImVector@UImGuiShrinkWidthItem@@@@QEAA@XZ 0000000180068510 f i imgui.obj
 0001:00067510       ??1?$ImVector@UImGuiStyleMod@@@@QEAA@XZ 0000000180068510 f i imgui.obj
 0001:00067510       ??1?$ImVector@UImGuiTextRange@ImGuiTextFilter@@@@QEAA@XZ 0000000180068510 f i imgui.obj
 0001:00067550       ??1ImDrawData@@QEAA@XZ     0000000180068550 f i imgui.obj
 0001:00067570       ??1ImDrawDataBuilder@@QEAA@XZ 0000000180068570 f i imgui.obj
 0001:000675a0       ??1ImDrawList@@QEAA@XZ     00000001800685a0 f i imgui.obj
 0001:00067700       ??1ImGuiContext@@QEAA@XZ   0000000180068700 f i imgui.obj
 0001:00067b20       ??1ImGuiIO@@QEAA@XZ        0000000180068b20 f i imgui.obj
 0001:00067b60       ??1ImGuiInputTextState@@QEAA@XZ 0000000180068b60 f i imgui.obj
 0001:00067c00       ??1ImGuiWindowTempData@@QEAA@XZ 0000000180068c00 f i imgui.obj
 0001:000683c0       ?CalcFontSize@ImGuiWindow@@QEBAMXZ 00000001800693c0 f i imgui.obj
 0001:00068c00       ?Clear@?$ImPool@UImGuiTabBar@@@@QEAAXXZ 0000000180069c00 f i imgui.obj
 0001:00068d50       ?ClipWithFull@ImRect@@QEAAXAEBU1@@Z 0000000180069d50 f i imgui.obj
 0001:0006e1c0       ?TitleBarRect@ImGuiWindow@@QEBA?AUImRect@@XZ 000000018006f1c0 f i imgui.obj
 0001:0006f6a0       ?insert@?$ImVector@UImGuiStoragePair@ImGuiStorage@@@@QEAAPEAUImGuiStoragePair@ImGuiStorage@@PEBU23@AEBU23@@Z 00000001800706a0 f i imgui.obj
 0001:0006f7e0       ?push_back@?$ImVector@H@@QEAAXAEBH@Z 00000001800707e0 f i imgui.obj
 0001:0006f840       ?push_back@?$ImVector@UImGuiColorMod@@@@QEAAXAEBUImGuiColorMod@@@Z 0000000180070840 f i imgui.obj
 0001:0006f960       ?push_back@?$ImVector@UImGuiPopupData@@@@QEAAXAEBUImGuiPopupData@@@Z 0000000180070960 f i imgui.obj
 0001:0006f9e0       ?push_back@?$ImVector@UImGuiStyleMod@@@@QEAAXAEBUImGuiStyleMod@@@Z 00000001800709e0 f i imgui.obj
 0001:0006fb00       ?reserve@?$ImVector@D@@QEAAXH@Z 0000000180070b00 f i imgui.obj
 0001:0006fba0       ?reserve@?$ImVector@G@@QEAAXH@Z 0000000180070ba0 f i imgui.obj
 0001:0006fc40       ?reserve@?$ImVector@H@@QEAAXH@Z 0000000180070c40 f i imgui.obj
 0001:0006fc40       ?reserve@?$ImVector@I@@QEAAXH@Z 0000000180070c40 f i imgui.obj
 0001:0006fc40       ?reserve@?$ImVector@M@@QEAAXH@Z 0000000180070c40 f i imgui.obj
 0001:0006fd00       ?reserve@?$ImVector@PEAUImDrawList@@@@QEAAXH@Z 0000000180070d00 f i imgui.obj
 0001:0006fd00       ?reserve@?$ImVector@PEAUImGuiWindow@@@@QEAAXH@Z 0000000180070d00 f i imgui.obj
 0001:0006fdc0       ?reserve@?$ImVector@UImGuiPopupData@@@@QEAAXH@Z 0000000180070dc0 f i imgui.obj
 0001:0006fe80       ?reserve@?$ImVector@UImGuiTextRange@ImGuiTextFilter@@@@QEAAXH@Z 0000000180070e80 f i imgui.obj
 0001:0006ff30       ?resize@?$ImVector@D@@QEAAXH@Z 0000000180070f30 f i imgui.obj
 0001:0006ff80       ?resize@?$ImVector@E@@QEAAXH@Z 0000000180070f80 f i imgui.obj
 0001:00070080       ?resize@?$ImVector@UImGuiGroupData@@@@QEAAXH@Z 0000000180071080 f i imgui.obj
 0001:00070eb0       __local_stdio_scanf_options 0000000180071eb0 f i imgui.obj
 0001:00070ec0       sscanf                     0000000180071ec0 f i imgui.obj
 0001:00070f20       ?StyleColorsDark@ImGui@@YAXPEAUImGuiStyle@@@Z 0000000180071f20 f   imgui_draw.obj
 0001:00071820       ?StyleColorsClassic@ImGui@@YAXPEAUImGuiStyle@@@Z 0000000180072820 f   imgui_draw.obj
 0001:00071e80       ?StyleColorsLight@ImGui@@YAXPEAUImGuiStyle@@@Z 0000000180072e80 f   imgui_draw.obj
 0001:00072780       ?ClearFreeMemory@ImDrawListSplitter@@QEAAXXZ 0000000180073780 f   imgui_draw.obj
 0001:00072860       ?Split@ImDrawListSplitter@@QEAAXPEAUImDrawList@@H@Z 0000000180073860 f   imgui_draw.obj
 0001:00072ae0       ?Merge@ImDrawListSplitter@@QEAAXPEAUImDrawList@@@Z 0000000180073ae0 f   imgui_draw.obj
 0001:00072f20       ?SetCurrentChannel@ImDrawListSplitter@@QEAAXPEAUImDrawList@@H@Z 0000000180073f20 f   imgui_draw.obj
 0001:00073000       ?PushClipRect@ImDrawList@@QEAAXUImVec2@@0_N@Z 0000000180074000 f   imgui_draw.obj
 0001:00073120       ?PushClipRectFullScreen@ImDrawList@@QEAAXXZ 0000000180074120 f   imgui_draw.obj
 0001:000731e0       ?PopClipRect@ImDrawList@@QEAAXXZ 00000001800741e0 f   imgui_draw.obj
 0001:00073240       ?PushTextureID@ImDrawList@@QEAAXPEAX@Z 0000000180074240 f   imgui_draw.obj
 0001:000732e0       ?PopTextureID@ImDrawList@@QEAAXXZ 00000001800742e0 f   imgui_draw.obj
 0001:00073340       ?AddLine@ImDrawList@@QEAAXAEBUImVec2@@0IM@Z 0000000180074340 f   imgui_draw.obj
 0001:000734c0       ?AddRect@ImDrawList@@QEAAXAEBUImVec2@@0IMHM@Z 00000001800744c0 f   imgui_draw.obj
 0001:000735e0       ?AddRectFilled@ImDrawList@@QEAAXAEBUImVec2@@0IMH@Z 00000001800745e0 f   imgui_draw.obj
 0001:00073780       ?AddRectFilledMultiColor@ImDrawList@@QEAAXAEBUImVec2@@0IIII@Z 0000000180074780 f   imgui_draw.obj
 0001:00073960       ?AddQuad@ImDrawList@@QEAAXAEBUImVec2@@000IM@Z 0000000180074960 f   imgui_draw.obj
 0001:00073a00       ?AddQuadFilled@ImDrawList@@QEAAXAEBUImVec2@@000I@Z 0000000180074a00 f   imgui_draw.obj
 0001:00073aa0       ?AddTriangle@ImDrawList@@QEAAXAEBUImVec2@@00IM@Z 0000000180074aa0 f   imgui_draw.obj
 0001:00073b40       ?AddTriangleFilled@ImDrawList@@QEAAXAEBUImVec2@@00I@Z 0000000180074b40 f   imgui_draw.obj
 0001:00073bc0       ?AddCircle@ImDrawList@@QEAAXAEBUImVec2@@MIHM@Z 0000000180074bc0 f   imgui_draw.obj
 0001:00073d60       ?AddCircleFilled@ImDrawList@@QEAAXAEBUImVec2@@MIH@Z 0000000180074d60 f   imgui_draw.obj
 0001:00073ea0       ?AddNgon@ImDrawList@@QEAAXAEBUImVec2@@MIHM@Z 0000000180074ea0 f   imgui_draw.obj
 0001:00073f60       ?AddNgonFilled@ImDrawList@@QEAAXAEBUImVec2@@MIH@Z 0000000180074f60 f   imgui_draw.obj
 0001:00074000       ?AddText@ImDrawList@@QEAAXAEBUImVec2@@IPEBD1@Z 0000000180075000 f   imgui_draw.obj
 0001:000740a0       ?AddText@ImDrawList@@QEAAXPEBUImFont@@MAEBUImVec2@@IPEBD2MPEBUImVec4@@@Z 00000001800750a0 f   imgui_draw.obj
 0001:000741c0       ?AddPolyline@ImDrawList@@QEAAXPEBUImVec2@@HI_NM@Z 00000001800751c0 f   imgui_draw.obj
 0001:00075180       ?AddConvexPolyFilled@ImDrawList@@QEAAXPEBUImVec2@@HI@Z 0000000180076180 f   imgui_draw.obj
 0001:00075740       ?AddBezierCurve@ImDrawList@@QEAAXAEBUImVec2@@000IMH@Z 0000000180076740 f   imgui_draw.obj
 0001:00075a20       ?AddImage@ImDrawList@@QEAAXPEAXAEBUImVec2@@111I@Z 0000000180076a20 f   imgui_draw.obj
 0001:00075b00       ?AddImageQuad@ImDrawList@@QEAAXPEAXAEBUImVec2@@1111111I@Z 0000000180076b00 f   imgui_draw.obj
 0001:00075ca0       ?AddImageRounded@ImDrawList@@QEAAXPEAXAEBUImVec2@@111IMH@Z 0000000180076ca0 f   imgui_draw.obj
 0001:00075e00       ?PathArcTo@ImDrawList@@QEAAXAEBUImVec2@@MMMH@Z 0000000180076e00 f   imgui_draw.obj
 0001:00075f80       ?PathArcToFast@ImDrawList@@QEAAXAEBUImVec2@@MHH@Z 0000000180076f80 f   imgui_draw.obj
 0001:00076100       ?PathBezierCurveTo@ImDrawList@@QEAAXAEBUImVec2@@00H@Z 0000000180077100 f   imgui_draw.obj
 0001:00076360       ?PathRect@ImDrawList@@QEAAXAEBUImVec2@@0MH@Z 0000000180077360 f   imgui_draw.obj
 0001:00076760       ?AddCallback@ImDrawList@@QEAAXP6AXPEBU1@PEBUImDrawCmd@@@ZPEAX@Z 0000000180077760 f   imgui_draw.obj
 0001:000767e0       ?AddDrawCmd@ImDrawList@@QEAAXXZ 00000001800777e0 f   imgui_draw.obj
 0001:000768a0       ?CloneOutput@ImDrawList@@QEBAPEAU1@XZ 00000001800778a0 f   imgui_draw.obj
 0001:00076ba0       ?PrimReserve@ImDrawList@@QEAAXHH@Z 0000000180077ba0 f   imgui_draw.obj
 0001:00076c80       ?PrimUnreserve@ImDrawList@@QEAAXHH@Z 0000000180077c80 f   imgui_draw.obj
 0001:00076ca0       ?PrimRect@ImDrawList@@QEAAXAEBUImVec2@@0I@Z 0000000180077ca0 f   imgui_draw.obj
 0001:00076dc0       ?PrimRectUV@ImDrawList@@QEAAXAEBUImVec2@@000I@Z 0000000180077dc0 f   imgui_draw.obj
 0001:00076f20       ?PrimQuadUV@ImDrawList@@QEAAXAEBUImVec2@@0000000I@Z 0000000180077f20 f   imgui_draw.obj
 0001:00077040       ?_ResetForNewFrame@ImDrawList@@QEAAXXZ 0000000180078040 f   imgui_draw.obj
 0001:000771e0       ?_ClearFreeMemory@ImDrawList@@QEAAXXZ 00000001800781e0 f   imgui_draw.obj
 0001:000772c0       ?_PopUnusedDrawCmd@ImDrawList@@QEAAXXZ 00000001800782c0 f   imgui_draw.obj
 0001:00077300       ?_OnChangedClipRect@ImDrawList@@QEAAXXZ 0000000180078300 f   imgui_draw.obj
 0001:000773c0       ?_OnChangedTextureID@ImDrawList@@QEAAXXZ 00000001800783c0 f   imgui_draw.obj
 0001:00077480       ?_OnChangedVtxOffset@ImDrawList@@QEAAXXZ 0000000180078480 f   imgui_draw.obj
 0001:000774c0       ?DeIndexAllBuffers@ImDrawData@@QEAAXXZ 00000001800784c0 f   imgui_draw.obj
 0001:000776a0       ?ScaleClipRects@ImDrawData@@QEAAXAEBUImVec2@@@Z 00000001800786a0 f   imgui_draw.obj
 0001:00077760       ??0ImFontConfig@@QEAA@XZ   0000000180078760 f   imgui_draw.obj
 0001:000777e0       ?AddText@ImFontGlyphRangesBuilder@@QEAAXPEBD0@Z 00000001800787e0 f   imgui_draw.obj
 0001:00077880       ?AddRanges@ImFontGlyphRangesBuilder@@QEAAXPEBG@Z 0000000180078880 f   imgui_draw.obj
 0001:000778e0       ?BuildRanges@ImFontGlyphRangesBuilder@@QEAAXPEAU?$ImVector@G@@@Z 00000001800788e0 f   imgui_draw.obj
 0001:00077b00       ??0ImFontAtlas@@QEAA@XZ    0000000180078b00 f   imgui_draw.obj
 0001:00077ba0       ??1ImFontAtlas@@QEAA@XZ    0000000180078ba0 f   imgui_draw.obj
 0001:00077c00       ?AddFont@ImFontAtlas@@QEAAPEAUImFont@@PEBUImFontConfig@@@Z 0000000180078c00 f   imgui_draw.obj
 0001:00077ec0       ?AddFontDefault@ImFontAtlas@@QEAAPEAUImFont@@PEBUImFontConfig@@@Z 0000000180078ec0 f   imgui_draw.obj
 0001:000781e0       ?AddFontFromFileTTF@ImFontAtlas@@QEAAPEAUImFont@@PEBDMPEBUImFontConfig@@PEBG@Z 00000001800791e0 f   imgui_draw.obj
 0001:00078500       ?AddFontFromMemoryTTF@ImFontAtlas@@QEAAPEAUImFont@@PEAXHMPEBUImFontConfig@@PEBG@Z 0000000180079500 f   imgui_draw.obj
 0001:00078680       ?AddFontFromMemoryCompressedTTF@ImFontAtlas@@QEAAPEAUImFont@@PEBXHMPEBUImFontConfig@@PEBG@Z 0000000180079680 f   imgui_draw.obj
 0001:00078960       ?AddFontFromMemoryCompressedBase85TTF@ImFontAtlas@@QEAAPEAUImFont@@PEBDMPEBUImFontConfig@@PEBG@Z 0000000180079960 f   imgui_draw.obj
 0001:00078ae0       ?ClearInputData@ImFontAtlas@@QEAAXXZ 0000000180079ae0 f   imgui_draw.obj
 0001:00078c00       ?ClearTexData@ImFontAtlas@@QEAAXXZ 0000000180079c00 f   imgui_draw.obj
 0001:00078c40       ?ClearFonts@ImFontAtlas@@QEAAXXZ 0000000180079c40 f   imgui_draw.obj
 0001:00078d00       ?Clear@ImFontAtlas@@QEAAXXZ 0000000180079d00 f   imgui_draw.obj
 0001:00078ee0       ?Build@ImFontAtlas@@QEAA_NXZ 0000000180079ee0 f   imgui_draw.obj
 0001:00078f00       ?GetTexDataAsAlpha8@ImFontAtlas@@QEAAXPEAPEAEPEAH11@Z 0000000180079f00 f   imgui_draw.obj
 0001:00078fa0       ?GetTexDataAsRGBA32@ImFontAtlas@@QEAAXPEAPEAEPEAH11@Z 0000000180079fa0 f   imgui_draw.obj
 0001:000790a0       ?GetGlyphRangesDefault@ImFontAtlas@@QEAAPEBGXZ 000000018007a0a0 f   imgui_draw.obj
 0001:000790c0       ?GetGlyphRangesKorean@ImFontAtlas@@QEAAPEBGXZ 000000018007a0c0 f   imgui_draw.obj
 0001:000790e0       ?GetGlyphRangesJapanese@ImFontAtlas@@QEAAPEBGXZ 000000018007a0e0 f   imgui_draw.obj
 0001:00079140       ?GetGlyphRangesChineseFull@ImFontAtlas@@QEAAPEBGXZ 000000018007a140 f   imgui_draw.obj
 0001:00079160       ?GetGlyphRangesChineseSimplifiedCommon@ImFontAtlas@@QEAAPEBGXZ 000000018007a160 f   imgui_draw.obj
 0001:000791e0       ?GetGlyphRangesCyrillic@ImFontAtlas@@QEAAPEBGXZ 000000018007a1e0 f   imgui_draw.obj
 0001:00079200       ?GetGlyphRangesThai@ImFontAtlas@@QEAAPEBGXZ 000000018007a200 f   imgui_draw.obj
 0001:00079220       ?GetGlyphRangesVietnamese@ImFontAtlas@@QEAAPEBGXZ 000000018007a220 f   imgui_draw.obj
 0001:00079240       ?AddCustomRectRegular@ImFontAtlas@@QEAAHHH@Z 000000018007a240 f   imgui_draw.obj
 0001:000792a0       ?AddCustomRectFontGlyph@ImFontAtlas@@QEAAHPEAUImFont@@GHHMAEBUImVec2@@@Z 000000018007a2a0 f   imgui_draw.obj
 0001:00079320       ?CalcCustomRectUV@ImFontAtlas@@QEBAXPEBUImFontAtlasCustomRect@@PEAUImVec2@@1@Z 000000018007a320 f   imgui_draw.obj
 0001:000793a0       ?GetMouseCursorTexData@ImFontAtlas@@QEAA_NHPEAUImVec2@@0QEAU2@1@Z 000000018007a3a0 f   imgui_draw.obj
 0001:000794c0       ??0ImFont@@QEAA@XZ         000000018007a4c0 f   imgui_draw.obj
 0001:00079520       ??1ImFont@@QEAA@XZ         000000018007a520 f   imgui_draw.obj
 0001:00079580       ?FindGlyph@ImFont@@QEBAPEBUImFontGlyph@@G@Z 000000018007a580 f   imgui_draw.obj
 0001:000795c0       ?FindGlyphNoFallback@ImFont@@QEBAPEBUImFontGlyph@@G@Z 000000018007a5c0 f   imgui_draw.obj
 0001:00079600       ?CalcTextSizeA@ImFont@@QEBA?AUImVec2@@MMMPEBD0PEAPEBD@Z 000000018007a600 f   imgui_draw.obj
 0001:00079880       ?CalcWordWrapPositionA@ImFont@@QEBAPEBDMPEBD0M@Z 000000018007a880 f   imgui_draw.obj
 0001:00079a60       ?RenderChar@ImFont@@QEBAXPEAUImDrawList@@MUImVec2@@IG@Z 000000018007aa60 f   imgui_draw.obj
 0001:00079c00       ?RenderText@ImFont@@QEBAXPEAUImDrawList@@MUImVec2@@IAEBUImVec4@@PEBD3M_N@Z 000000018007ac00 f   imgui_draw.obj
 0001:0007a2c0       ?BuildLookupTable@ImFont@@QEAAXXZ 000000018007b2c0 f   imgui_draw.obj
 0001:0007a680       ?ClearOutputData@ImFont@@QEAAXXZ 000000018007b680 f   imgui_draw.obj
 0001:0007a700       ?GrowIndex@ImFont@@QEAAXH@Z 000000018007b700 f   imgui_draw.obj
 0001:0007a880       ?AddGlyph@ImFont@@QEAAXPEBUImFontConfig@@GMMMMMMMMM@Z 000000018007b880 f   imgui_draw.obj
 0001:0007aaa0       ?AddRemapChar@ImFont@@QEAAXGG_N@Z 000000018007baa0 f   imgui_draw.obj
 0001:0007ab60       ?SetGlyphVisible@ImFont@@QEAAXG_N@Z 000000018007bb60 f   imgui_draw.obj
 0001:0007abc0       ?SetFallbackChar@ImFont@@QEAAXG@Z 000000018007bbc0 f   imgui_draw.obj
 0001:0007abe0       ?IsGlyphRangeUnused@ImFont@@QEAA_NII@Z 000000018007bbe0 f   imgui_draw.obj
 0001:0007ac40       ?ImBezierCalc@@YA?AUImVec2@@AEBU1@000M@Z 000000018007bc40 f   imgui_draw.obj
 0001:0007ad00       ??0ImDrawListSharedData@@QEAA@XZ 000000018007bd00 f   imgui_draw.obj
 0001:0007ae00       ?SetCircleSegmentMaxError@ImDrawListSharedData@@QEAAXM@Z 000000018007be00 f   imgui_draw.obj
 0001:0007aee0       ?RenderColorRectWithAlphaCheckerboard@ImGui@@YAXPEAUImDrawList@@UImVec2@@1IM1MH@Z 000000018007bee0 f   imgui_draw.obj
 0001:0007b200       ?RenderArrow@ImGui@@YAXPEAUImDrawList@@UImVec2@@IHM@Z 000000018007c200 f   imgui_draw.obj
 0001:0007b3e0       ?RenderBullet@ImGui@@YAXPEAUImDrawList@@UImVec2@@I@Z 000000018007c3e0 f   imgui_draw.obj
 0001:0007b480       ?RenderCheckMark@ImGui@@YAXPEAUImDrawList@@UImVec2@@IM@Z 000000018007c480 f   imgui_draw.obj
 0001:0007b6a0       ?RenderMouseCursor@ImGui@@YAXPEAUImDrawList@@UImVec2@@MHIII@Z 000000018007c6a0 f   imgui_draw.obj
 0001:0007bae0       ?RenderArrowPointingAt@ImGui@@YAXPEAUImDrawList@@UImVec2@@1HI@Z 000000018007cae0 f   imgui_draw.obj
 0001:0007be60       ?RenderRectFilledRangeH@ImGui@@YAXPEAUImDrawList@@AEBUImRect@@IMMM@Z 000000018007ce60 f   imgui_draw.obj
 0001:0007c4c0       ?RenderRectFilledWithHole@ImGui@@YAXPEAUImDrawList@@UImRect@@1IM@Z 000000018007d4c0 f   imgui_draw.obj
 0001:0007c820       ?ShadeVertsLinearColorGradientKeepAlpha@ImGui@@YAXPEAUImDrawList@@HHUImVec2@@1II@Z 000000018007d820 f   imgui_draw.obj
 0001:0007ccc0       ?ShadeVertsLinearUV@ImGui@@YAXPEAUImDrawList@@HHAEBUImVec2@@111_N@Z 000000018007dcc0 f   imgui_draw.obj
 0001:0007d100       ?ImFontAtlasBuildWithStbTruetype@@YA_NPEAUImFontAtlas@@@Z 000000018007e100 f   imgui_draw.obj
 0001:0007e4e0       ?ImFontAtlasBuildInit@@YAXPEAUImFontAtlas@@@Z 000000018007f4e0 f   imgui_draw.obj
 0001:0007e5c0       ?ImFontAtlasBuildSetupFont@@YAXPEAUImFontAtlas@@PEAUImFont@@PEAUImFontConfig@@MM@Z 000000018007f5c0 f   imgui_draw.obj
 0001:0007e640       ?ImFontAtlasBuildPackCustomRects@@YAXPEAUImFontAtlas@@PEAX@Z 000000018007f640 f   imgui_draw.obj
 0001:0007e780       ?ImFontAtlasBuildFinish@@YAXPEAUImFontAtlas@@@Z 000000018007f780 f   imgui_draw.obj
 0001:0007eb00       ?ImFontAtlasBuildRender1bppRectFromString@@YAXPEAUImFontAtlas@@HHHHPEBDDE@Z 000000018007fb00 f   imgui_draw.obj
 0001:0007ebc0       ?ImFontAtlasBuildMultiplyCalcLookupTable@@YAXQEAEM@Z 000000018007fbc0 f   imgui_draw.obj
 0001:0007ec20       ?ImFontAtlasBuildMultiplyRectAlpha8@@YAXQEBEPEAEHHHHH@Z 000000018007fc20 f   imgui_draw.obj
 0001:0007ed00       ??1?$ImVector@UImDrawVert@@@@QEAA@XZ 000000018007fd00 f i imgui_draw.obj
 0001:0007ed00       ??1?$ImVector@UImFontAtlasCustomRect@@@@QEAA@XZ 000000018007fd00 f i imgui_draw.obj
 0001:0007ed00       ??1?$ImVector@UImFontBuildDstData@@@@QEAA@XZ 000000018007fd00 f i imgui_draw.obj
 0001:0007ed00       ??1?$ImVector@UImFontBuildSrcData@@@@QEAA@XZ 000000018007fd00 f i imgui_draw.obj
 0001:0007ed00       ??1?$ImVector@UImFontConfig@@@@QEAA@XZ 000000018007fd00 f i imgui_draw.obj
 0001:0007ed00       ??1?$ImVector@UImGuiColumnData@@@@QEAA@XZ 000000018007fd00 f i imgui_widgets.obj
 0001:0007ed00       ??1?$ImVector@Ustbrp_rect@@@@QEAA@XZ 000000018007fd00 f i imgui_draw.obj
 0001:0007ed00       ??1?$ImVector@Ustbtt_packedchar@@@@QEAA@XZ 000000018007fd00 f i imgui_draw.obj
 0001:0007f720       ?PathLineTo@ImDrawList@@QEAAXAEBUImVec2@@@Z 0000000180080720 f i imgui_draw.obj
 0001:0007f7a0       ?push_back@?$ImVector@UImFontAtlasCustomRect@@@@QEAAXAEBUImFontAtlasCustomRect@@@Z 00000001800807a0 f i imgui_draw.obj
 0001:0007f860       ?push_back@?$ImVector@UImVec2@@@@QEAAXAEBUImVec2@@@Z 0000000180080860 f i imgui_draw.obj
 0001:0007f8e0       ?reserve@?$ImVector@PEAX@@QEAAXH@Z 00000001800808e0 f i imgui_draw.obj
 0001:0007f8e0       ?reserve@?$ImVector@UImVec2@@@@QEAAXH@Z 00000001800808e0 f i imgui_draw.obj
 0001:0007f960       ?reserve@?$ImVector@UImDrawCmd@@@@QEAAXH@Z 0000000180080960 f i imgui_draw.obj
 0001:0007f9e0       ?reserve@?$ImVector@UImVec4@@@@QEAAXH@Z 00000001800809e0 f i imgui_draw.obj
 0001:0007fa60       ?resize@?$ImVector@G@@QEAAXH@Z 0000000180080a60 f i imgui_draw.obj
 0001:0007fb20       ?resize@?$ImVector@I@@QEAAXH@Z 0000000180080b20 f i imgui_draw.obj
 0001:0007fbe0       ?resize@?$ImVector@UImDrawVert@@@@QEAAXH@Z 0000000180080be0 f i imgui_draw.obj
 0001:0007fcc0       ?resize@?$ImVector@UImFontGlyph@@@@QEAAXH@Z 0000000180080cc0 f i imgui_draw.obj
 0001:00086860       ?ImGui_ImplDX11_Init@@YA_NPEAUID3D11Device@@PEAUID3D11DeviceContext@@@Z 0000000180087860 f   imgui_impl_dx11.obj
 0001:00086960       ?ImGui_ImplDX11_Shutdown@@YAXXZ 0000000180087960 f   imgui_impl_dx11.obj
 0001:000869e0       ?ImGui_ImplDX11_NewFrame@@YAXXZ 00000001800879e0 f   imgui_impl_dx11.obj
 0001:00086a00       ?ImGui_ImplDX11_RenderDrawData@@YAXPEAUImDrawData@@@Z 0000000180087a00 f   imgui_impl_dx11.obj
 0001:00087480       ?ImGui_ImplDX11_InvalidateDeviceObjects@@YAXXZ 0000000180088480 f   imgui_impl_dx11.obj
 0001:000875e0       ?ImGui_ImplDX11_CreateDeviceObjects@@YA_NXZ 00000001800885e0 f   imgui_impl_dx11.obj
 0001:00087ce0       ?ImGui_ImplWin32_Init@@YA_NPEAX@Z 0000000180088ce0 f   imgui_impl_win32.obj
 0001:00087e00       ?ImGui_ImplWin32_Shutdown@@YAXXZ 0000000180088e00 f   imgui_impl_win32.obj
 0001:00087e20       ?ImGui_ImplWin32_NewFrame@@YAXXZ 0000000180088e20 f   imgui_impl_win32.obj
 0001:00087fc0       ?ImGui_ImplWin32_EnableDpiAwareness@@YAXXZ 0000000180088fc0 f   imgui_impl_win32.obj
 0001:00088100       ?ImGui_ImplWin32_GetDpiScaleForHwnd@@YAMPEAX@Z 0000000180089100 f   imgui_impl_win32.obj
 0001:000882a0       ?ImGui_ImplWin32_GetDpiScaleForMonitor@@YAMPEAX@Z 00000001800892a0 f   imgui_impl_win32.obj
 0001:00088420       ?ImGui_ImplWin32_WndProcHandler@@YA_JPEAUHWND__@@I_K_J@Z 0000000180089420 f   imgui_impl_win32.obj
 0001:00088ce0       ?Separator@ImGui@@YAXXZ    0000000180089ce0 f   imgui_widgets.obj
 0001:00088d20       ?NewLine@ImGui@@YAXXZ      0000000180089d20 f   imgui_widgets.obj
 0001:00088dc0       ?Spacing@ImGui@@YAXXZ      0000000180089dc0 f   imgui_widgets.obj
 0001:00088e20       ?Dummy@ImGui@@YAXAEBUImVec2@@@Z 0000000180089e20 f   imgui_widgets.obj
 0001:00088ec0       ?AlignTextToFramePadding@ImGui@@YAXXZ 0000000180089ec0 f   imgui_widgets.obj
 0001:00088f40       ?TextUnformatted@ImGui@@YAXPEBD0@Z 0000000180089f40 f   imgui_widgets.obj
 0001:00088f60       ?Text@ImGui@@YAXPEBDZZ     0000000180089f60 f   imgui_widgets.obj
 0001:00088fa0       ?TextV@ImGui@@YAXPEBDPEAD@Z 0000000180089fa0 f   imgui_widgets.obj
 0001:00089040       ?TextColored@ImGui@@YAXAEBUImVec4@@PEBDZZ 000000018008a040 f   imgui_widgets.obj
 0001:000890c0       ?TextColoredV@ImGui@@YAXAEBUImVec4@@PEBDPEAD@Z 000000018008a0c0 f   imgui_widgets.obj
 0001:00089120       ?TextDisabled@ImGui@@YAXPEBDZZ 000000018008a120 f   imgui_widgets.obj
 0001:000891c0       ?TextDisabledV@ImGui@@YAXPEBDPEAD@Z 000000018008a1c0 f   imgui_widgets.obj
 0001:00089240       ?TextWrapped@ImGui@@YAXPEBDZZ 000000018008a240 f   imgui_widgets.obj
 0001:000892e0       ?TextWrappedV@ImGui@@YAXPEBDPEAD@Z 000000018008a2e0 f   imgui_widgets.obj
 0001:00089380       ?LabelText@ImGui@@YAXPEBD0ZZ 000000018008a380 f   imgui_widgets.obj
 0001:000893c0       ?LabelTextV@ImGui@@YAXPEBD0PEAD@Z 000000018008a3c0 f   imgui_widgets.obj
 0001:00089600       ?BulletText@ImGui@@YAXPEBDZZ 000000018008a600 f   imgui_widgets.obj
 0001:00089800       ?BulletTextV@ImGui@@YAXPEBDPEAD@Z 000000018008a800 f   imgui_widgets.obj
 0001:00089a00       ?Button@ImGui@@YA_NPEBDAEBUImVec2@@@Z 000000018008aa00 f   imgui_widgets.obj
 0001:00089a20       ?SmallButton@ImGui@@YA_NPEBD@Z 000000018008aa20 f   imgui_widgets.obj
 0001:00089a80       ?InvisibleButton@ImGui@@YA_NPEBDAEBUImVec2@@H@Z 000000018008aa80 f   imgui_widgets.obj
 0001:00089ba0       ?ArrowButton@ImGui@@YA_NPEBDH@Z 000000018008aba0 f   imgui_widgets.obj
 0001:00089be0       ?Image@ImGui@@YAXPEAXAEBUImVec2@@11AEBUImVec4@@2@Z 000000018008abe0 f   imgui_widgets.obj
 0001:00089e20       ?ImageButton@ImGui@@YA_NPEAXAEBUImVec2@@11HAEBUImVec4@@2@Z 000000018008ae20 f   imgui_widgets.obj
 0001:00089f20       ?Checkbox@ImGui@@YA_NPEBDPEA_N@Z 000000018008af20 f   imgui_widgets.obj
 0001:0008a320       ?CheckboxFlags@ImGui@@YA_NPEBDPEAII@Z 000000018008b320 f   imgui_widgets.obj
 0001:0008a3e0       ?RadioButton@ImGui@@YA_NPEBD_N@Z 000000018008b3e0 f   imgui_widgets.obj
 0001:0008a7e0       ?RadioButton@ImGui@@YA_NPEBDPEAHH@Z 000000018008b7e0 f   imgui_widgets.obj
 0001:0008a820       ?ProgressBar@ImGui@@YAXMAEBUImVec2@@PEBD@Z 000000018008b820 f   imgui_widgets.obj
 0001:0008ab20       ?Bullet@ImGui@@YAXXZ       000000018008bb20 f   imgui_widgets.obj
 0001:0008ac60       ?BeginCombo@ImGui@@YA_NPEBD0H@Z 000000018008bc60 f   imgui_widgets.obj
 0001:0008b2c0       ?EndCombo@ImGui@@YAXXZ     000000018008c2c0 f   imgui_widgets.obj
 0001:0008b2e0       ?Combo@ImGui@@YA_NPEBDPEAHQEBQEBDHH@Z 000000018008c2e0 f   imgui_widgets.obj
 0001:0008b320       ?Combo@ImGui@@YA_NPEBDPEAH0H@Z 000000018008c320 f   imgui_widgets.obj
 0001:0008b380       ?Combo@ImGui@@YA_NPEBDPEAHP6A_NPEAXHPEAPEBD@Z2HH@Z 000000018008c380 f   imgui_widgets.obj
 0001:0008b540       ?DragFloat@ImGui@@YA_NPEBDPEAMMMM0H@Z 000000018008c540 f   imgui_widgets.obj
 0001:0008b5a0       ?DragFloat2@ImGui@@YA_NPEBDQEAMMMM0H@Z 000000018008c5a0 f   imgui_widgets.obj
 0001:0008b600       ?DragFloat3@ImGui@@YA_NPEBDQEAMMMM0H@Z 000000018008c600 f   imgui_widgets.obj
 0001:0008b660       ?DragFloat4@ImGui@@YA_NPEBDQEAMMMM0H@Z 000000018008c660 f   imgui_widgets.obj
 0001:0008b6c0       ?DragFloatRange2@ImGui@@YA_NPEBDPEAM1MMM00H@Z 000000018008c6c0 f   imgui_widgets.obj
 0001:0008b920       ?DragInt@ImGui@@YA_NPEBDPEAHMHH0H@Z 000000018008c920 f   imgui_widgets.obj
 0001:0008b980       ?DragInt2@ImGui@@YA_NPEBDQEAHMHH0H@Z 000000018008c980 f   imgui_widgets.obj
 0001:0008b9e0       ?DragInt3@ImGui@@YA_NPEBDQEAHMHH0H@Z 000000018008c9e0 f   imgui_widgets.obj
 0001:0008ba40       ?DragInt4@ImGui@@YA_NPEBDQEAHMHH0H@Z 000000018008ca40 f   imgui_widgets.obj
 0001:0008baa0       ?DragIntRange2@ImGui@@YA_NPEBDPEAH1MHH00H@Z 000000018008caa0 f   imgui_widgets.obj
 0001:0008bce0       ?DragScalar@ImGui@@YA_NPEBDHPEAXMPEBX20H@Z 000000018008cce0 f   imgui_widgets.obj
 0001:0008c1c0       ?DragScalarN@ImGui@@YA_NPEBDHPEAXHMPEBX20H@Z 000000018008d1c0 f   imgui_widgets.obj
 0001:0008c3a0       ?SliderFloat@ImGui@@YA_NPEBDPEAMMM0H@Z 000000018008d3a0 f   imgui_widgets.obj
 0001:0008c400       ?SliderFloat2@ImGui@@YA_NPEBDQEAMMM0H@Z 000000018008d400 f   imgui_widgets.obj
 0001:0008c460       ?SliderFloat3@ImGui@@YA_NPEBDQEAMMM0H@Z 000000018008d460 f   imgui_widgets.obj
 0001:0008c4c0       ?SliderFloat4@ImGui@@YA_NPEBDQEAMMM0H@Z 000000018008d4c0 f   imgui_widgets.obj
 0001:0008c520       ?SliderAngle@ImGui@@YA_NPEBDPEAMMM0H@Z 000000018008d520 f   imgui_widgets.obj
 0001:0008c5c0       ?SliderInt@ImGui@@YA_NPEBDPEAHHH0H@Z 000000018008d5c0 f   imgui_widgets.obj
 0001:0008c620       ?SliderInt2@ImGui@@YA_NPEBDQEAHHH0H@Z 000000018008d620 f   imgui_widgets.obj
 0001:0008c680       ?SliderInt3@ImGui@@YA_NPEBDQEAHHH0H@Z 000000018008d680 f   imgui_widgets.obj
 0001:0008c6e0       ?SliderInt4@ImGui@@YA_NPEBDQEAHHH0H@Z 000000018008d6e0 f   imgui_widgets.obj
 0001:0008c740       ?SliderScalar@ImGui@@YA_NPEBDHPEAXPEBX20H@Z 000000018008d740 f   imgui_widgets.obj
 0001:0008cc40       ?SliderScalarN@ImGui@@YA_NPEBDHPEAXHPEBX20H@Z 000000018008dc40 f   imgui_widgets.obj
 0001:0008ce00       ?VSliderFloat@ImGui@@YA_NPEBDAEBUImVec2@@PEAMMM0H@Z 000000018008de00 f   imgui_widgets.obj
 0001:0008ce60       ?VSliderInt@ImGui@@YA_NPEBDAEBUImVec2@@PEAHHH0H@Z 000000018008de60 f   imgui_widgets.obj
 0001:0008cec0       ?VSliderScalar@ImGui@@YA_NPEBDAEBUImVec2@@HPEAXPEBX30H@Z 000000018008dec0 f   imgui_widgets.obj
 0001:0008d2e0       ?Hotkey@ImGui@@YA_NPEBDPEAHAEBUImVec2@@@Z 000000018008e2e0 f   imgui_widgets.obj
 0001:0008f120       ?InputText@ImGui@@YA_NPEBDPEAD_KHP6AHPEAUImGuiInputTextCallbackData@@@ZPEAX@Z 0000000180090120 f   imgui_widgets.obj
 0001:0008f180       ?InputTextMultiline@ImGui@@YA_NPEBDPEAD_KAEBUImVec2@@HP6AHPEAUImGuiInputTextCallbackData@@@ZPEAX@Z 0000000180090180 f   imgui_widgets.obj
 0001:0008f1e0       ?InputTextWithHint@ImGui@@YA_NPEBD0PEAD_KHP6AHPEAUImGuiInputTextCallbackData@@@ZPEAX@Z 00000001800901e0 f   imgui_widgets.obj
 0001:0008f240       ?InputFloat@ImGui@@YA_NPEBDPEAMMM0H@Z 0000000180090240 f   imgui_widgets.obj
 0001:0008f2a0       ?InputFloat2@ImGui@@YA_NPEBDQEAM0H@Z 00000001800902a0 f   imgui_widgets.obj
 0001:0008f2e0       ?InputFloat3@ImGui@@YA_NPEBDQEAM0H@Z 00000001800902e0 f   imgui_widgets.obj
 0001:0008f320       ?InputFloat4@ImGui@@YA_NPEBDQEAM0H@Z 0000000180090320 f   imgui_widgets.obj
 0001:0008f360       ?InputInt@ImGui@@YA_NPEBDPEAHHHH@Z 0000000180090360 f   imgui_widgets.obj
 0001:0008f3e0       ?InputInt2@ImGui@@YA_NPEBDQEAHH@Z 00000001800903e0 f   imgui_widgets.obj
 0001:0008f420       ?InputInt3@ImGui@@YA_NPEBDQEAHH@Z 0000000180090420 f   imgui_widgets.obj
 0001:0008f460       ?InputInt4@ImGui@@YA_NPEBDQEAHH@Z 0000000180090460 f   imgui_widgets.obj
 0001:0008f4a0       ?InputDouble@ImGui@@YA_NPEBDPEANNN0H@Z 00000001800904a0 f   imgui_widgets.obj
 0001:0008f520       ?InputScalar@ImGui@@YA_NPEBDHPEAXPEBX20H@Z 0000000180090520 f   imgui_widgets.obj
 0001:0008fcc0       ?InputScalarN@ImGui@@YA_NPEBDHPEAXHPEBX20H@Z 0000000180090cc0 f   imgui_widgets.obj
 0001:0008fe80       ?ColorEdit3@ImGui@@YA_NPEBDQEAMH@Z 0000000180090e80 f   imgui_widgets.obj
 0001:0008fea0       ?ColorEdit4@ImGui@@YA_NPEBDQEAMH@Z 0000000180090ea0 f   imgui_widgets.obj
 0001:00090c60       ?ColorPicker3@ImGui@@YA_NPEBDQEAMH@Z 0000000180091c60 f   imgui_widgets.obj
 0001:00090ce0       ?ColorPicker4@ImGui@@YA_NPEBDQEAMHPEBM@Z 0000000180091ce0 f   imgui_widgets.obj
 0001:00092880       ?ColorButton@ImGui@@YA_NPEBDAEBUImVec4@@HUImVec2@@@Z 0000000180093880 f   imgui_widgets.obj
 0001:00092e40       ?SetColorEditOptions@ImGui@@YAXH@Z 0000000180093e40 f   imgui_widgets.obj
 0001:00092ea0       ?TreeNode@ImGui@@YA_NPEBD@Z 0000000180093ea0 f   imgui_widgets.obj
 0001:00092f00       ?TreeNode@ImGui@@YA_NPEBD0ZZ 0000000180093f00 f   imgui_widgets.obj
 0001:00092f40       ?TreeNode@ImGui@@YA_NPEBXPEBDZZ 0000000180093f40 f   imgui_widgets.obj
 0001:00092f80       ?TreeNodeV@ImGui@@YA_NPEBD0PEAD@Z 0000000180093f80 f   imgui_widgets.obj
 0001:00092fa0       ?TreeNodeV@ImGui@@YA_NPEBXPEBDPEAD@Z 0000000180093fa0 f   imgui_widgets.obj
 0001:00092fc0       ?TreeNodeEx@ImGui@@YA_NPEBDH@Z 0000000180093fc0 f   imgui_widgets.obj
 0001:00093040       ?TreeNodeEx@ImGui@@YA_NPEBDH0ZZ 0000000180094040 f   imgui_widgets.obj
 0001:00093080       ?TreeNodeEx@ImGui@@YA_NPEBXHPEBDZZ 0000000180094080 f   imgui_widgets.obj
 0001:000930c0       ?TreeNodeExV@ImGui@@YA_NPEBDH0PEAD@Z 00000001800940c0 f   imgui_widgets.obj
 0001:00093180       ?TreeNodeExV@ImGui@@YA_NPEBXHPEBDPEAD@Z 0000000180094180 f   imgui_widgets.obj
 0001:00093240       ?TreePush@ImGui@@YAXPEBD@Z 0000000180094240 f   imgui_widgets.obj
 0001:000932a0       ?TreePush@ImGui@@YAXPEBX@Z 00000001800942a0 f   imgui_widgets.obj
 0001:00093300       ?TreePop@ImGui@@YAXXZ      0000000180094300 f   imgui_widgets.obj
 0001:000933c0       ?GetTreeNodeToLabelSpacing@ImGui@@YAMXZ 00000001800943c0 f   imgui_widgets.obj
 0001:00093400       ?CollapsingHeader@ImGui@@YA_NPEBDH@Z 0000000180094400 f   imgui_widgets.obj
 0001:00093480       ?CollapsingHeader@ImGui@@YA_NPEBDPEA_NH@Z 0000000180094480 f   imgui_widgets.obj
 0001:00093660       ?SetNextItemOpen@ImGui@@YAX_NH@Z 0000000180094660 f   imgui_widgets.obj
 0001:000936a0       ?Selectable@ImGui@@YA_NPEBD_NHAEBUImVec2@@@Z 00000001800946a0 f   imgui_widgets.obj
 0001:00093b80       ?Selectable@ImGui@@YA_NPEBDPEA_NHAEBUImVec2@@@Z 0000000180094b80 f   imgui_widgets.obj
 0001:00093bc0       ?ListBox@ImGui@@YA_NPEBDPEAHQEBQEBDHH@Z 0000000180094bc0 f   imgui_widgets.obj
 0001:00093c00       ?ListBox@ImGui@@YA_NPEBDPEAHP6A_NPEAXHPEAPEBD@Z2HH@Z 0000000180094c00 f   imgui_widgets.obj
 0001:00093e60       ?ListBoxHeader@ImGui@@YA_NPEBDAEBUImVec2@@@Z 0000000180094e60 f   imgui_widgets.obj
 0001:000940a0       ?ListBoxHeader@ImGui@@YA_NPEBDHH@Z 00000001800950a0 f   imgui_widgets.obj
 0001:00094160       ?ListBoxFooter@ImGui@@YAXXZ 0000000180095160 f   imgui_widgets.obj
 0001:00094200       ?PlotLines@ImGui@@YAXPEBDPEBMHH0MMUImVec2@@H@Z 0000000180095200 f   imgui_widgets.obj
 0001:00094280       ?PlotLines@ImGui@@YAXPEBDP6AMPEAXH@Z1HH0MMUImVec2@@@Z 0000000180095280 f   imgui_widgets.obj
 0001:00094300       ?PlotHistogram@ImGui@@YAXPEBDPEBMHH0MMUImVec2@@H@Z 0000000180095300 f   imgui_widgets.obj
 0001:00094380       ?PlotHistogram@ImGui@@YAXPEBDP6AMPEAXH@Z1HH0MMUImVec2@@@Z 0000000180095380 f   imgui_widgets.obj
 0001:00094400       ?Value@ImGui@@YAXPEBD_N@Z  0000000180095400 f   imgui_widgets.obj
 0001:00094440       ?Value@ImGui@@YAXPEBDH@Z   0000000180095440 f   imgui_widgets.obj
 0001:00094460       ?Value@ImGui@@YAXPEBDI@Z   0000000180095460 f   imgui_widgets.obj
 0001:00094480       ?Value@ImGui@@YAXPEBDM0@Z  0000000180095480 f   imgui_widgets.obj
 0001:00094500       ?BeginMenuBar@ImGui@@YA_NXZ 0000000180095500 f   imgui_widgets.obj
 0001:00094700       ?EndMenuBar@ImGui@@YAXXZ   0000000180095700 f   imgui_widgets.obj
 0001:00094880       ?BeginMainMenuBar@ImGui@@YA_NXZ 0000000180095880 f   imgui_widgets.obj
 0001:00094ba0       ?EndMainMenuBar@ImGui@@YAXXZ 0000000180095ba0 f   imgui_widgets.obj
 0001:00094d60       ?BeginMenu@ImGui@@YA_NPEBD_N@Z 0000000180095d60 f   imgui_widgets.obj
 0001:00095540       ?EndMenu@ImGui@@YAXXZ      0000000180096540 f   imgui_widgets.obj
 0001:000955c0       ?MenuItem@ImGui@@YA_NPEBD0_N1@Z 00000001800965c0 f   imgui_widgets.obj
 0001:00095920       ?MenuItem@ImGui@@YA_NPEBD0PEA_N_N@Z 0000000180096920 f   imgui_widgets.obj
 0001:00095980       ?Columns@ImGui@@YAXHPEBD_N@Z 0000000180096980 f   imgui_widgets.obj
 0001:00095a00       ?NextColumn@ImGui@@YAXXZ   0000000180096a00 f   imgui_widgets.obj
 0001:00095d00       ?GetColumnIndex@ImGui@@YAHXZ 0000000180096d00 f   imgui_widgets.obj
 0001:00095d40       ?GetColumnWidth@ImGui@@YAMH@Z 0000000180096d40 f   imgui_widgets.obj
 0001:00095dc0       ?SetColumnWidth@ImGui@@YAXHM@Z 0000000180096dc0 f   imgui_widgets.obj
 0001:00095e60       ?GetColumnOffset@ImGui@@YAMH@Z 0000000180096e60 f   imgui_widgets.obj
 0001:00095ec0       ?SetColumnOffset@ImGui@@YAXHM@Z 0000000180096ec0 f   imgui_widgets.obj
 0001:00096000       ?GetColumnsCount@ImGui@@YAHXZ 0000000180097000 f   imgui_widgets.obj
 0001:00096040       ?BeginTabBar@ImGui@@YA_NPEBDH@Z 0000000180097040 f   imgui_widgets.obj
 0001:00096160       ?EndTabBar@ImGui@@YAXXZ    0000000180097160 f   imgui_widgets.obj
 0001:00096280       ?BeginTabItem@ImGui@@YA_NPEBDPEA_NH@Z 0000000180097280 f   imgui_widgets.obj
 0001:00096320       ?EndTabItem@ImGui@@YAXXZ   0000000180097320 f   imgui_widgets.obj
 0001:00096380       ?TabItemButton@ImGui@@YA_NPEBDH@Z 0000000180097380 f   imgui_widgets.obj
 0001:000963e0       ?SetTabItemClosed@ImGui@@YAXPEBD@Z 00000001800973e0 f   imgui_widgets.obj
 0001:00096480       ??0ImGuiInputTextCallbackData@@QEAA@XZ 0000000180097480 f   imgui_widgets.obj
 0001:000964a0       ?DeleteChars@ImGuiInputTextCallbackData@@QEAAXHH@Z 00000001800974a0 f   imgui_widgets.obj
 0001:00096540       ?InsertChars@ImGuiInputTextCallbackData@@QEAAXHPEBD0@Z 0000000180097540 f   imgui_widgets.obj
 0001:000966a0       ?ImParseFormatFindStart@@YAPEBDPEBD@Z 00000001800976a0 f   imgui_widgets.obj
 0001:000966e0       ?ImParseFormatFindEnd@@YAPEBDPEBD@Z 00000001800976e0 f   imgui_widgets.obj
 0001:00096760       ?ImParseFormatTrimDecorations@@YAPEBDPEBDPEAD_K@Z 0000000180097760 f   imgui_widgets.obj
 0001:00096820       ?ImParseFormatPrecision@@YAHPEBDH@Z 0000000180097820 f   imgui_widgets.obj
 0001:00096940       ??0ImGuiMenuColumns@@QEAA@XZ 0000000180097940 f   imgui_widgets.obj
 0001:00096960       ?Update@ImGuiMenuColumns@@QEAAXHM_N@Z 0000000180097960 f   imgui_widgets.obj
 0001:00096a20       ?DeclColumns@ImGuiMenuColumns@@QEAAMMMM@Z 0000000180097a20 f   imgui_widgets.obj
 0001:00096aa0       ?CalcExtraSpace@ImGuiMenuColumns@@QEBAMM@Z 0000000180097aa0 f   imgui_widgets.obj
 0001:00096ac0       ?OnKeyPressed@ImGuiInputTextState@@QEAAXH@Z 0000000180097ac0 f   imgui_widgets.obj
 0001:00096b00       ??0ImGuiTabBar@@QEAA@XZ    0000000180097b00 f   imgui_widgets.obj
 0001:00096b80       ?ShrinkWidths@ImGui@@YAXPEAUImGuiShrinkWidthItem@@HM@Z 0000000180097b80 f   imgui_widgets.obj
 0001:00097000       ?SetWindowClipRectBeforeSetChannel@ImGui@@YAXPEAUImGuiWindow@@AEBUImRect@@@Z 0000000180098000 f   imgui_widgets.obj
 0001:000970a0       ?BeginColumns@ImGui@@YAXPEBDHH@Z 00000001800980a0 f   imgui_widgets.obj
 0001:00097640       ?EndColumns@ImGui@@YAXXZ   0000000180098640 f   imgui_widgets.obj
 0001:00097b00       ?PushColumnClipRect@ImGui@@YAXH@Z 0000000180098b00 f   imgui_widgets.obj
 0001:00097b40       ?PushColumnsBackground@ImGui@@YAXXZ 0000000180098b40 f   imgui_widgets.obj
 0001:00097c20       ?PopColumnsBackground@ImGui@@YAXXZ 0000000180098c20 f   imgui_widgets.obj
 0001:00097d00       ?GetColumnsID@ImGui@@YAIPEBDH@Z 0000000180098d00 f   imgui_widgets.obj
 0001:00097d80       ?FindOrCreateColumns@ImGui@@YAPEAUImGuiColumns@@PEAUImGuiWindow@@I@Z 0000000180098d80 f   imgui_widgets.obj
 0001:00097fa0       ?GetColumnOffsetFromNorm@ImGui@@YAMPEBUImGuiColumns@@M@Z 0000000180098fa0 f   imgui_widgets.obj
 0001:00097fc0       ?GetColumnNormFromOffset@ImGui@@YAMPEBUImGuiColumns@@M@Z 0000000180098fc0 f   imgui_widgets.obj
 0001:00097fe0       ?BeginTabBarEx@ImGui@@YA_NPEAUImGuiTabBar@@AEBUImRect@@H@Z 0000000180098fe0 f   imgui_widgets.obj
 0001:00098300       ?TabBarFindTabByID@ImGui@@YAPEAUImGuiTabItem@@PEAUImGuiTabBar@@I@Z 0000000180099300 f   imgui_widgets.obj
 0001:00098360       ?TabBarRemoveTab@ImGui@@YAXPEAUImGuiTabBar@@I@Z 0000000180099360 f   imgui_widgets.obj
 0001:00098440       ?TabBarCloseTab@ImGui@@YAXPEAUImGuiTabBar@@PEAUImGuiTabItem@@@Z 0000000180099440 f   imgui_widgets.obj
 0001:00098480       ?TabBarQueueReorder@ImGui@@YAXPEAUImGuiTabBar@@PEBUImGuiTabItem@@H@Z 0000000180099480 f   imgui_widgets.obj
 0001:000984a0       ?TabBarProcessReorder@ImGui@@YA_NPEAUImGuiTabBar@@@Z 00000001800994a0 f   imgui_widgets.obj
 0001:000985a0       ?TabItemEx@ImGui@@YA_NPEAUImGuiTabBar@@PEBDPEA_NH@Z 00000001800995a0 f   imgui_widgets.obj
 0001:00098de0       ?TabItemCalcSize@ImGui@@YA?AUImVec2@@PEBD_N@Z 0000000180099de0 f   imgui_widgets.obj
 0001:00098ec0       ?TabItemBackground@ImGui@@YAXPEAUImDrawList@@AEBUImRect@@HI@Z 0000000180099ec0 f   imgui_widgets.obj
 0001:00099180       ?TabItemLabelAndCloseButton@ImGui@@YA_NPEAUImDrawList@@AEBUImRect@@HUImVec2@@PEBDII_N@Z 000000018009a180 f   imgui_widgets.obj
 0001:00099520       ?TextEx@ImGui@@YAXPEBD0H@Z 000000018009a520 f   imgui_widgets.obj
 0001:000999a0       ?ButtonEx@ImGui@@YA_NPEBDAEBUImVec2@@H@Z 000000018009a9a0 f   imgui_widgets.obj
 0001:00099c20       ?CloseButton@ImGui@@YA_NIAEBUImVec2@@@Z 000000018009ac20 f   imgui_widgets.obj
 0001:00099e80       ?CollapseButton@ImGui@@YA_NIAEBUImVec2@@@Z 000000018009ae80 f   imgui_widgets.obj
 0001:0009a0a0       ?ArrowButtonEx@ImGui@@YA_NPEBDHUImVec2@@H@Z 000000018009b0a0 f   imgui_widgets.obj
 0001:0009a300       ?Scrollbar@ImGui@@YAXW4ImGuiAxis@@@Z 000000018009b300 f   imgui_widgets.obj
 0001:0009a480       ?ScrollbarEx@ImGui@@YA_NAEBUImRect@@IW4ImGuiAxis@@PEAMMMH@Z 000000018009b480 f   imgui_widgets.obj
 0001:0009a9e0       ?ImageButtonEx@ImGui@@YA_NIPEAXAEBUImVec2@@111AEBUImVec4@@2@Z 000000018009b9e0 f   imgui_widgets.obj
 0001:0009aca0       ?GetWindowScrollbarRect@ImGui@@YA?AUImRect@@PEAUImGuiWindow@@W4ImGuiAxis@@@Z 000000018009bca0 f   imgui_widgets.obj
 0001:0009ad60       ?GetWindowScrollbarID@ImGui@@YAIPEAUImGuiWindow@@W4ImGuiAxis@@@Z 000000018009bd60 f   imgui_widgets.obj
 0001:0009ada0       ?SeparatorEx@ImGui@@YAXH@Z 000000018009bda0 f   imgui_widgets.obj
 0001:0009b040       ?ButtonBehavior@ImGui@@YA_NAEBUImRect@@IPEA_N1H@Z 000000018009c040 f   imgui_widgets.obj
 0001:0009b5e0       ?DragBehavior@ImGui@@YA_NIHPEAXMPEBX1PEBDH@Z 000000018009c5e0 f   imgui_widgets.obj
 0001:0009bb00       ?SliderBehavior@ImGui@@YA_NAEBUImRect@@IHPEAXPEBX2PEBDHPEAU2@@Z 000000018009cb00 f   imgui_widgets.obj
 0001:0009bf40       ?SplitterBehavior@ImGui@@YA_NAEBUImRect@@IW4ImGuiAxis@@PEAM2MMMM@Z 000000018009cf40 f   imgui_widgets.obj
 0001:0009c1e0       ?TreeNodeBehavior@ImGui@@YA_NIHPEBD0@Z 000000018009d1e0 f   imgui_widgets.obj
 0001:0009cbe0       ?TreeNodeBehaviorIsOpen@ImGui@@YA_NIH@Z 000000018009dbe0 f   imgui_widgets.obj
 0001:0009cce0       ?TreePushOverrideID@ImGui@@YAXI@Z 000000018009dce0 f   imgui_widgets.obj
 0001:0009cd80       ?DataTypeGetInfo@ImGui@@YAPEBUImGuiDataTypeInfo@@H@Z 000000018009dd80 f   imgui_widgets.obj
 0001:0009cda0       ?DataTypeFormatString@ImGui@@YAHPEADHHPEBXPEBD@Z 000000018009dda0 f   imgui_widgets.obj
 0001:0009cea0       ?DataTypeApplyOp@ImGui@@YAXHHPEAXPEBX1@Z 000000018009dea0 f   imgui_widgets.obj
 0001:0009d320       ?DataTypeApplyOpFromText@ImGui@@YA_NPEBD0HPEAX0@Z 000000018009e320 f   imgui_widgets.obj
 0001:0009d7a0       ?DataTypeCompare@ImGui@@YAHHPEBX0@Z 000000018009e7a0 f   imgui_widgets.obj
 0001:0009d900       ?DataTypeClamp@ImGui@@YA_NHPEAXPEBX1@Z 000000018009e900 f   imgui_widgets.obj
 0001:0009db00       ?InputTextEx@ImGui@@YA_NPEBD0PEADHAEBUImVec2@@HP6AHPEAUImGuiInputTextCallbackData@@@ZPEAX@Z 000000018009eb00 f   imgui_widgets.obj
 0001:000a0560       ?TempInputText@ImGui@@YA_NAEBUImRect@@IPEBDPEADHH@Z 00000001800a1560 f   imgui_widgets.obj
 0001:000a0640       ?TempInputScalar@ImGui@@YA_NAEBUImRect@@IPEBDHPEAX1PEBX3@Z 00000001800a1640 f   imgui_widgets.obj
 0001:000a0ac0       ?ColorTooltip@ImGui@@YAXPEBDPEBMH@Z 00000001800a1ac0 f   imgui_widgets.obj
 0001:000a0e00       ?ColorEditOptionsPopup@ImGui@@YAXPEBMH@Z 00000001800a1e00 f   imgui_widgets.obj
 0001:000a1260       ?ColorPickerOptionsPopup@ImGui@@YAXPEBMH@Z 00000001800a2260 f   imgui_widgets.obj
 0001:000a15a0       ?PlotEx@ImGui@@YAHW4ImGuiPlotType@@PEBDP6AMPEAXH@Z2HH1MMUImVec2@@@Z 00000001800a25a0 f   imgui_widgets.obj
 0001:000a1ee0       ??$DragBehaviorT@HHM@ImGui@@YA_NHPEAHMHHPEBDH@Z 00000001800a2ee0 f i imgui_widgets.obj
 0001:000a2320       ??$DragBehaviorT@IHM@ImGui@@YA_NHPEAIMIIPEBDH@Z 00000001800a3320 f i imgui_widgets.obj
 0001:000a2760       ??$DragBehaviorT@MMM@ImGui@@YA_NHPEAMMMMPEBDH@Z 00000001800a3760 f i imgui_widgets.obj
 0001:000a2bc0       ??$DragBehaviorT@NNN@ImGui@@YA_NHPEANMNNPEBDH@Z 00000001800a3bc0 f i imgui_widgets.obj
 0001:000a3080       ??$DragBehaviorT@_J_JN@ImGui@@YA_NHPEA_JM_J1PEBDH@Z 00000001800a4080 f i imgui_widgets.obj
 0001:000a3500       ??$DragBehaviorT@_K_JN@ImGui@@YA_NHPEA_KM_K1PEBDH@Z 00000001800a4500 f i imgui_widgets.obj
 0001:000a3ac0       ??$RoundScalarWithFormatT@HH@ImGui@@YAHPEBDHH@Z 00000001800a4ac0 f i imgui_widgets.obj
 0001:000a3b60       ??$RoundScalarWithFormatT@IH@ImGui@@YAIPEBDHI@Z 00000001800a4b60 f i imgui_widgets.obj
 0001:000a3c00       ??$RoundScalarWithFormatT@MM@ImGui@@YAMPEBDHM@Z 00000001800a4c00 f i imgui_widgets.obj
 0001:000a3d20       ??$RoundScalarWithFormatT@NN@ImGui@@YANPEBDHN@Z 00000001800a4d20 f i imgui_widgets.obj
 0001:000a3e40       ??$RoundScalarWithFormatT@_J_J@ImGui@@YA_JPEBDH_J@Z 00000001800a4e40 f i imgui_widgets.obj
 0001:000a3ee0       ??$RoundScalarWithFormatT@_K_J@ImGui@@YA_KPEBDH_K@Z 00000001800a4ee0 f i imgui_widgets.obj
 0001:000a3fc0       ??$ScaleRatioFromValueT@HHM@ImGui@@YAMHHHH_NMM@Z 00000001800a4fc0 f i imgui_widgets.obj
 0001:000a42e0       ??$ScaleRatioFromValueT@IHM@ImGui@@YAMHIII_NMM@Z 00000001800a52e0 f i imgui_widgets.obj
 0001:000a4620       ??$ScaleRatioFromValueT@MMM@ImGui@@YAMHMMM_NMM@Z 00000001800a5620 f i imgui_widgets.obj
 0001:000a4920       ??$ScaleRatioFromValueT@NNN@ImGui@@YAMHNNN_NMM@Z 00000001800a5920 f i imgui_widgets.obj
 0001:000a4c80       ??$ScaleRatioFromValueT@_J_JN@ImGui@@YAMH_J00_NMM@Z 00000001800a5c80 f i imgui_widgets.obj
 0001:000a5000       ??$ScaleRatioFromValueT@_K_JN@ImGui@@YAMH_K00_NMM@Z 00000001800a6000 f i imgui_widgets.obj
 0001:000a5460       ??$ScaleValueFromRatioT@HHM@ImGui@@YAHHMHH_NMM@Z 00000001800a6460 f i imgui_widgets.obj
 0001:000a5720       ??$ScaleValueFromRatioT@IHM@ImGui@@YAIHMII_NMM@Z 00000001800a6720 f i imgui_widgets.obj
 0001:000a59e0       ??$ScaleValueFromRatioT@MMM@ImGui@@YAMHMMM_NMM@Z 00000001800a69e0 f i imgui_widgets.obj
 0001:000a5c60       ??$ScaleValueFromRatioT@NNN@ImGui@@YANHMNN_NMM@Z 00000001800a6c60 f i imgui_widgets.obj
 0001:000a5f40       ??$ScaleValueFromRatioT@_J_JN@ImGui@@YA_JHM_J0_NMM@Z 00000001800a6f40 f i imgui_widgets.obj
 0001:000a6220       ??$ScaleValueFromRatioT@_K_JN@ImGui@@YA_KHM_K0_NMM@Z 00000001800a7220 f i imgui_widgets.obj
 0001:000a6640       ??$SliderBehaviorT@HHM@ImGui@@YA_NAEBUImRect@@IHPEAHHHPEBDHPEAU1@@Z 00000001800a7640 f i imgui_widgets.obj
 0001:000a6d00       ??$SliderBehaviorT@IHM@ImGui@@YA_NAEBUImRect@@IHPEAIIIPEBDHPEAU1@@Z 00000001800a7d00 f i imgui_widgets.obj
 0001:000a73c0       ??$SliderBehaviorT@MMM@ImGui@@YA_NAEBUImRect@@IHPEAMMMPEBDHPEAU1@@Z 00000001800a83c0 f i imgui_widgets.obj
 0001:000a7b00       ??$SliderBehaviorT@NNN@ImGui@@YA_NAEBUImRect@@IHPEANNNPEBDHPEAU1@@Z 00000001800a8b00 f i imgui_widgets.obj
 0001:000a8260       ??$SliderBehaviorT@_J_JN@ImGui@@YA_NAEBUImRect@@IHPEA_J_J2PEBDHPEAU1@@Z 00000001800a9260 f i imgui_widgets.obj
 0001:000a8940       ??$SliderBehaviorT@_K_JN@ImGui@@YA_NAEBUImRect@@IHPEA_K_K2PEBDHPEAU1@@Z 00000001800a9940 f i imgui_widgets.obj
 0001:000a9010       ??1ImDrawListSplitter@@QEAA@XZ 00000001800aa010 f i imgui_widgets.obj
 0001:000a9040       ??1ImGuiColumns@@QEAA@XZ   00000001800aa040 f i imgui_widgets.obj
 0001:000a90a0       ?Add@?$ImPool@UImGuiTabBar@@@@QEAAPEAUImGuiTabBar@@XZ 00000001800aa0a0 f i imgui_widgets.obj
 0001:000a9400       ?MenuBarHeight@ImGuiWindow@@QEBAMXZ 00000001800aa400 f i imgui_widgets.obj
 0001:000a9460       ?MenuBarRect@ImGuiWindow@@QEBA?AUImRect@@XZ 00000001800aa460 f i imgui_widgets.obj
 0001:000aade0       ?reserve@?$ImVector@UImGuiColumnData@@@@QEAAXH@Z 00000001800abde0 f i imgui_widgets.obj
 0001:000aae60       ?reserve@?$ImVector@UImGuiTabItem@@@@QEAAXH@Z 00000001800abe60 f i imgui_widgets.obj
 0001:000ac840       _DoSyscall                 00000001800ad840 f   syscall.obj
 0001:000ac853       MiniDumpWriteDump          00000001800ad853 f   dbghelp:dbghelp.dll
 0001:000ac860       curl_easy_cleanup          00000001800ad860 f   libcurl_a:easy.obj
 0001:000ac880       curl_easy_init             00000001800ad880 f   libcurl_a:easy.obj
 0001:000ac940       curl_easy_perform          00000001800ad940 f   libcurl_a:easy.obj
 0001:000acad0       Curl_setstropt             00000001800adad0 f   libcurl_a:setopt.obj
 0001:000acb60       Curl_vsetopt               00000001800adb60 f   libcurl_a:setopt.obj
 0001:000af020       curl_easy_setopt           00000001800b0020 f   libcurl_a:setopt.obj
 0001:000af050       Curl_slist_append_nodup    00000001800b0050 f   libcurl_a:slist.obj
 0001:000af0c0       curl_slist_append          00000001800b00c0 f   libcurl_a:slist.obj
 0001:000af160       curl_slist_free_all        00000001800b0160 f   libcurl_a:slist.obj
 0001:000af200       Curl_attach_connnection    00000001800b0200 f   libcurl_a:multi.obj
 0001:000af220       Curl_expire                00000001800b0220 f   libcurl_a:multi.obj
 0001:000af450       Curl_expire_clear          00000001800b0450 f   libcurl_a:multi.obj
 0001:000af500       Curl_expire_done           00000001800b0500 f   libcurl_a:multi.obj
 0001:000af530       Curl_multi_closed          00000001800b0530 f   libcurl_a:multi.obj
 0001:000af600       Curl_multi_handle          00000001800b0600 f   libcurl_a:multi.obj
 0001:000af720       Curl_multi_max_host_connections 00000001800b0720 f   libcurl_a:multi.obj
 0001:000af740       Curl_multi_max_total_connections 00000001800b0740 f   libcurl_a:multi.obj
 0001:000afaf0       Curl_multiplex_wanted      00000001800b0af0 f   libcurl_a:multi.obj
 0001:000afb10       Curl_multiuse_state        00000001800b0b10 f   libcurl_a:multi.obj
 0001:000afb30       Curl_set_in_callback       00000001800b0b30 f   libcurl_a:multi.obj
 0001:000afb60       Curl_update_timer          00000001800b0b60 f   libcurl_a:multi.obj
 0001:000afd10       curl_multi_add_handle      00000001800b0d10 f   libcurl_a:multi.obj
 0001:000afec0       curl_multi_cleanup         00000001800b0ec0 f   libcurl_a:multi.obj
 0001:000affe0       curl_multi_info_read       00000001800b0fe0 f   libcurl_a:multi.obj
 0001:000b0070       curl_multi_perform         00000001800b1070 f   libcurl_a:multi.obj
 0001:000b0180       curl_multi_poll            00000001800b1180 f   libcurl_a:multi.obj
 0001:000b01a0       curl_multi_remove_handle   00000001800b11a0 f   libcurl_a:multi.obj
 0001:000b03b0       curl_multi_setopt          00000001800b13b0 f   libcurl_a:multi.obj
 0001:000b1c70       Curl_resolver_cleanup      00000001800b2c70 f   libcurl_a:asyn-thread.obj
 0001:000b1c70       curl_free                  00000001800b2c70 f   libcurl_a:escape.obj
 0001:000b20e0       Curl_cookie_add            00000001800b30e0 f   libcurl_a:cookie.obj
 0001:000b2df0       Curl_cookie_cleanup        00000001800b3df0 f   libcurl_a:cookie.obj
 0001:000b2ee0       Curl_cookie_clearall       00000001800b3ee0 f   libcurl_a:cookie.obj
 0001:000b2fc0       Curl_cookie_clearsess      00000001800b3fc0 f   libcurl_a:cookie.obj
 0001:000b30e0       Curl_cookie_freelist       00000001800b40e0 f   libcurl_a:cookie.obj
 0001:000b3170       Curl_cookie_getlist        00000001800b4170 f   libcurl_a:cookie.obj
 0001:000b3530       Curl_cookie_init           00000001800b4530 f   libcurl_a:cookie.obj
 0001:000b3720       Curl_cookie_loadfiles      00000001800b4720 f   libcurl_a:cookie.obj
 0001:000b39a0       Curl_flush_cookies         00000001800b49a0 f   libcurl_a:cookie.obj
 0001:000b41f0       Curl_resolver_cancel       00000001800b51f0 f   libcurl_a:asyn-thread.obj
 0001:000b4200       Curl_resolver_getaddrinfo  00000001800b5200 f   libcurl_a:asyn-thread.obj
 0001:000b4370       Curl_resolver_getsock      00000001800b5370 f   libcurl_a:asyn-thread.obj
 0001:000b4430       Curl_resolver_init         00000001800b5430 f   libcurl_a:asyn-thread.obj
 0001:000b4460       Curl_resolver_is_resolved  00000001800b5460 f   libcurl_a:asyn-thread.obj
 0001:000b45b0       Curl_resolver_kill         00000001800b55b0 f   libcurl_a:asyn-thread.obj
 0001:000b45f0       Curl_resolver_wait_resolv  00000001800b55f0 f   libcurl_a:asyn-thread.obj
 0001:000b4c20       Curl_ipv6works             00000001800b5c20 f   libcurl_a:hostip6.obj
 0001:000b4c80       Curl_ipvalid               00000001800b5c80 f   libcurl_a:hostip6.obj
 0001:000b5280       Curl_mime_add_header       00000001800b6280 f   libcurl_a:mime.obj
 0001:000b52f0       Curl_mime_cleanpart        00000001800b62f0 f   libcurl_a:mime.obj
 0001:000b53f0       Curl_mime_contenttype      00000001800b63f0 f   libcurl_a:mime.obj
 0001:000b54a0       Curl_mime_initpart         00000001800b64a0 f   libcurl_a:mime.obj
 0001:000b5510       Curl_mime_prepare_headers  00000001800b6510 f   libcurl_a:mime.obj
 0001:000b59f0       Curl_mime_read             00000001800b69f0 f   libcurl_a:mime.obj
 0001:000b5a00       Curl_mime_rewind           00000001800b6a00 f   libcurl_a:mime.obj
 0001:000b5a20       Curl_mime_set_subparts     00000001800b6a20 f   libcurl_a:mime.obj
 0001:000b5b30       Curl_mime_size             00000001800b6b30 f   libcurl_a:mime.obj
 0001:000b5cc0       curl_mime_addpart          00000001800b6cc0 f   libcurl_a:mime.obj
 0001:000b5d90       curl_mime_data             00000001800b6d90 f   libcurl_a:mime.obj
 0001:000b5ea0       curl_mime_data_cb          00000001800b6ea0 f   libcurl_a:mime.obj
 0001:000b5f50       curl_mime_filedata         00000001800b6f50 f   libcurl_a:mime.obj
 0001:000b6160       curl_mime_filename         00000001800b7160 f   libcurl_a:mime.obj
 0001:000b61d0       curl_mime_headers          00000001800b71d0 f   libcurl_a:mime.obj
 0001:000b6250       curl_mime_init             00000001800b7250 f   libcurl_a:mime.obj
 0001:000b62f0       curl_mime_name             00000001800b72f0 f   libcurl_a:mime.obj
 0001:000b6360       curl_mime_subparts         00000001800b7360 f   libcurl_a:mime.obj
 0001:000b6450       curl_mime_type             00000001800b7450 f   libcurl_a:mime.obj
 0001:000b7310       Curl_conncache_add_conn    00000001800b8310 f   libcurl_a:conncache.obj
 0001:000b7560       Curl_conncache_bundle_size 00000001800b8560 f   libcurl_a:conncache.obj
 0001:000b75b0       Curl_conncache_close_all_connections 00000001800b85b0 f   libcurl_a:conncache.obj
 0001:000b76a0       Curl_conncache_destroy     00000001800b86a0 f   libcurl_a:conncache.obj
 0001:000b76b0       Curl_conncache_extract_bundle 00000001800b86b0 f   libcurl_a:conncache.obj
 0001:000b7780       Curl_conncache_extract_oldest 00000001800b8780 f   libcurl_a:conncache.obj
 0001:000b78f0       Curl_conncache_find_bundle 00000001800b88f0 f   libcurl_a:conncache.obj
 0001:000b79f0       Curl_conncache_foreach     00000001800b89f0 f   libcurl_a:conncache.obj
 0001:000b7af0       Curl_conncache_init        00000001800b8af0 f   libcurl_a:conncache.obj
 0001:000b7b90       Curl_conncache_remove_conn 00000001800b8b90 f   libcurl_a:conncache.obj
 0001:000b7ca0       Curl_conncache_return_conn 00000001800b8ca0 f   libcurl_a:conncache.obj
 0001:000b7ec0       Curl_conncache_size        00000001800b8ec0 f   libcurl_a:conncache.obj
 0001:000b7f20       Curl_conncache_unlock      00000001800b8f20 f   libcurl_a:conncache.obj
 0001:000b8290       Curl_none_random           00000001800b9290 f   libcurl_a:vtls.obj
 0001:000b8290       Curl_none_set_engine       00000001800b9290 f   libcurl_a:vtls.obj
 0001:000b8290       Curl_none_set_engine_default 00000001800b9290 f   libcurl_a:vtls.obj
 0001:000b82a0       Curl_none_md5sum           00000001800b92a0 f   libcurl_a:vtls.obj
 0001:000b8310       Curl_clone_primary_ssl_config 00000001800b9310 f   libcurl_a:vtls.obj
 0001:000b84c0       Curl_free_primary_ssl_config 00000001800b94c0 f   libcurl_a:vtls.obj
 0001:000b8550       Curl_pin_peer_pubkey       00000001800b9550 f   libcurl_a:vtls.obj
 0001:000b8930       Curl_ssl_addsessionid      00000001800b9930 f   libcurl_a:vtls.obj
 0001:000b8ca0       Curl_ssl_backend           00000001800b9ca0 f   libcurl_a:vtls.obj
 0001:000b8cc0       Curl_ssl_cert_status_request 00000001800b9cc0 f   libcurl_a:vtls.obj
 0001:000b8cd0       Curl_ssl_check_cxn         00000001800b9cd0 f   libcurl_a:vtls.obj
 0001:000b8ce0       Curl_ssl_close             00000001800b9ce0 f   libcurl_a:vtls.obj
 0001:000b8cf0       Curl_ssl_close_all         00000001800b9cf0 f   libcurl_a:vtls.obj
 0001:000b8e80       Curl_ssl_config_matches    00000001800b9e80 f   libcurl_a:vtls.obj
 0001:000b8f80       Curl_ssl_connect           00000001800b9f80 f   libcurl_a:vtls.obj
 0001:000b9050       Curl_ssl_connect_nonblocking 00000001800ba050 f   libcurl_a:vtls.obj
 0001:000b9110       Curl_ssl_data_pending      00000001800ba110 f   libcurl_a:vtls.obj
 0001:000b9120       Curl_ssl_delsessionid      00000001800ba120 f   libcurl_a:vtls.obj
 0001:000b9230       Curl_ssl_false_start       00000001800ba230 f   libcurl_a:vtls.obj
 0001:000b9240       Curl_ssl_free_certinfo     00000001800ba240 f   libcurl_a:vtls.obj
 0001:000b92d0       Curl_ssl_getsessionid      00000001800ba2d0 f   libcurl_a:vtls.obj
 0001:000b95d0       Curl_ssl_getsock           00000001800ba5d0 f   libcurl_a:vtls.obj
 0001:000b9610       Curl_ssl_init              00000001800ba610 f   libcurl_a:vtls.obj
 0001:000b9640       Curl_ssl_init_certinfo     00000001800ba640 f   libcurl_a:vtls.obj
 0001:000b9720       Curl_ssl_initsessions      00000001800ba720 f   libcurl_a:vtls.obj
 0001:000b9790       Curl_ssl_kill_session      00000001800ba790 f   libcurl_a:vtls.obj
 0001:000b9860       Curl_ssl_push_certinfo     00000001800ba860 f   libcurl_a:vtls.obj
 0001:000b9970       Curl_ssl_random            00000001800ba970 f   libcurl_a:vtls.obj
 0001:000b9980       Curl_ssl_sessionid_lock    00000001800ba980 f   libcurl_a:vtls.obj
 0001:000b99b0       Curl_ssl_sessionid_unlock  00000001800ba9b0 f   libcurl_a:vtls.obj
 0001:000b99d0       Curl_ssl_set_engine        00000001800ba9d0 f   libcurl_a:vtls.obj
 0001:000b99e0       Curl_ssl_set_engine_default 00000001800ba9e0 f   libcurl_a:vtls.obj
 0001:000b99f0       Curl_ssl_shutdown          00000001800ba9f0 f   libcurl_a:vtls.obj
 0001:000b9a70       Curl_ssl_tls13_ciphersuites 00000001800baa70 f   libcurl_a:vtls.obj
 0001:000b9a80       Curl_ssl_version           00000001800baa80 f   libcurl_a:vtls.obj
 0001:000ba510       Curl_builtin_scheme        00000001800bb510 f   libcurl_a:url.obj
 0001:000ba580       Curl_close                 00000001800bb580 f   libcurl_a:url.obj
 0001:000ba7a0       Curl_connect               00000001800bb7a0 f   libcurl_a:url.obj
 0001:000baa40       Curl_disconnect            00000001800bba40 f   libcurl_a:url.obj
 0001:000bab90       Curl_free_request_state    00000001800bbb90 f   libcurl_a:url.obj
 0001:000babf0       Curl_freeset               00000001800bbbf0 f   libcurl_a:url.obj
 0001:000baca0       Curl_init_do               00000001800bbca0 f   libcurl_a:url.obj
 0001:000bad90       Curl_open                  00000001800bbd90 f   libcurl_a:url.obj
 0001:000bb140       Curl_parse_login_details   00000001800bc140 f   libcurl_a:url.obj
 0001:000bb370       Curl_setup_conn            00000001800bc370 f   libcurl_a:url.obj
 0001:000bb550       Curl_uc_to_curlcode        00000001800bc550 f   libcurl_a:url.obj
 0001:000bb580       Curl_verboseconnect        00000001800bc580 f   libcurl_a:url.obj
 0001:000bed30       Curl_initinfo              00000001800bfd30 f   libcurl_a:getinfo.obj
 0001:000bee20       Curl_memdup                00000001800bfe20 f   libcurl_a:strdup.obj
 0001:000bee80       Curl_saferealloc           00000001800bfe80 f   libcurl_a:strdup.obj
 0001:000beed0       Curl_client_write          00000001800bfed0 f   libcurl_a:sendf.obj
 0001:000beef0       Curl_debug                 00000001800bfef0 f   libcurl_a:sendf.obj
 0001:000befb0       Curl_failf                 00000001800bffb0 f   libcurl_a:sendf.obj
 0001:000bf130       Curl_infof                 00000001800c0130 f   libcurl_a:sendf.obj
 0001:000bf2a0       Curl_read                  00000001800c02a0 f   libcurl_a:sendf.obj
 0001:000bf330       Curl_read_plain            00000001800c0330 f   libcurl_a:sendf.obj
 0001:000bf380       Curl_recv_has_postponed_data 00000001800c0380 f   libcurl_a:sendf.obj
 0001:000bf3b0       Curl_recv_plain            00000001800c03b0 f   libcurl_a:sendf.obj
 0001:000bf500       Curl_send_plain            00000001800c0500 f   libcurl_a:sendf.obj
 0001:000bf6a0       Curl_sendf                 00000001800c06a0 f   libcurl_a:sendf.obj
 0001:000bf7f0       Curl_write                 00000001800c07f0 f   libcurl_a:sendf.obj
 0001:000bf860       Curl_write_plain           00000001800c0860 f   libcurl_a:sendf.obj
 0001:000bfb60       Curl_addr2string           00000001800c0b60 f   libcurl_a:connect.obj
 0001:000bfc00       Curl_closesocket           00000001800c0c00 f   libcurl_a:connect.obj
 0001:000bfc90       Curl_conn_data_pending     00000001800c0c90 f   libcurl_a:connect.obj
 0001:000bfd00       Curl_connalive             00000001800c0d00 f   libcurl_a:connect.obj
 0001:000bfd50       Curl_conncontrol           00000001800c0d50 f   libcurl_a:connect.obj
 0001:000bfda0       Curl_connecthost           00000001800c0da0 f   libcurl_a:connect.obj
 0001:000bff20       Curl_is_connected          00000001800c0f20 f   libcurl_a:connect.obj
 0001:000c0550       Curl_persistconninfo       00000001800c1550 f   libcurl_a:connect.obj
 0001:000c0640       Curl_sndbufset             00000001800c1640 f   libcurl_a:connect.obj
 0001:000c0700       Curl_socket                00000001800c1700 f   libcurl_a:connect.obj
 0001:000c0820       Curl_timeleft              00000001800c1820 f   libcurl_a:connect.obj
 0001:000c0930       Curl_updateconninfo        00000001800c1930 f   libcurl_a:connect.obj
 0001:000c1880       curlx_read                 00000001800c2880 f   libcurl_a:warnless.obj
 0001:000c1890       curlx_sltosi               00000001800c2890 f   libcurl_a:warnless.obj
 0001:000c1890       curlx_uztosi               00000001800c2890 f   libcurl_a:warnless.obj
 0001:000c18a0       curlx_sltous               00000001800c28a0 f   libcurl_a:warnless.obj
 0001:000c18a0       curlx_uitous               00000001800c28a0 f   libcurl_a:warnless.obj
 0001:000c18a0       curlx_ultous               00000001800c28a0 f   libcurl_a:warnless.obj
 0001:000c18b0       curlx_ultouc               00000001800c28b0 f   libcurl_a:warnless.obj
 0001:000c18c0       curlx_uztosz               00000001800c28c0 f   libcurl_a:warnless.obj
 0001:000c18d0       curlx_uztoui               00000001800c28d0 f   libcurl_a:warnless.obj
 0001:000c18d0       curlx_uztoul               00000001800c28d0 f   libcurl_a:warnless.obj
 0001:000c18e0       curlx_write                00000001800c28e0 f   libcurl_a:warnless.obj
 0001:000c18f0       Curl_http_auth_cleanup_digest 00000001800c28f0 f   libcurl_a:http_digest.obj
 0001:000c1920       Curl_input_digest          00000001800c2920 f   libcurl_a:http_digest.obj
 0001:000c19a0       Curl_output_digest         00000001800c29a0 f   libcurl_a:http_digest.obj
 0001:000c1b60       Curl_load_library          00000001800c2b60 f   libcurl_a:system_win32.obj
 0001:000c1d00       Curl_verify_windows_version 00000001800c2d00 f   libcurl_a:system_win32.obj
 0001:000c1e80       Curl_win32_init            00000001800c2e80 f   libcurl_a:system_win32.obj
 0001:000c21c0       Curl_version_init          00000001800c31c0 f   libcurl_a:version.obj
 0001:000c22d0       Curl_poll                  00000001800c32d0 f   libcurl_a:select.obj
 0001:000c2700       Curl_socket_check          00000001800c3700 f   libcurl_a:select.obj
 0001:000c2ab0       Curl_wait_ms               00000001800c3ab0 f   libcurl_a:select.obj
 0001:000c2ae0       Curl_raw_toupper           00000001800c3ae0 f   libcurl_a:strcase.obj
 0001:000c2af0       Curl_safe_strcasecompare   00000001800c3af0 f   libcurl_a:strcase.obj
 0001:000c2b10       Curl_strcasecompare        00000001800c3b10 f   libcurl_a:strcase.obj
 0001:000c2ba0       Curl_strncasecompare       00000001800c3ba0 f   libcurl_a:strcase.obj
 0001:000c2c50       Curl_strntoupper           00000001800c3c50 f   libcurl_a:strcase.obj
 0001:000c2c90       curl_strequal              00000001800c3c90 f   libcurl_a:strcase.obj
 0001:000c2ca0       curl_strnequal             00000001800c3ca0 f   libcurl_a:strcase.obj
 0001:000c2f20       Curl_all_content_encodings 00000001800c3f20 f   libcurl_a:content_encoding.obj
 0001:000c3050       Curl_build_unencoding_stack 00000001800c4050 f   libcurl_a:content_encoding.obj
 0001:000c3220       Curl_unencode_cleanup      00000001800c4220 f   libcurl_a:content_encoding.obj
 0001:000c3280       Curl_unencode_write        00000001800c4280 f   libcurl_a:content_encoding.obj
 0001:000c3290       Curl_share_lock            00000001800c4290 f   libcurl_a:share.obj
 0001:000c32d0       Curl_share_unlock          00000001800c42d0 f   libcurl_a:share.obj
 0001:000c3dd0       Curl_connect_complete      00000001800c4dd0 f   libcurl_a:http_proxy.obj
 0001:000c3df0       Curl_connect_free          00000001800c4df0 f   libcurl_a:http_proxy.obj
 0001:000c3e20       Curl_connect_ongoing       00000001800c4e20 f   libcurl_a:http_proxy.obj
 0001:000c3e40       Curl_proxyCONNECT          00000001800c4e40 f   libcurl_a:http_proxy.obj
 0001:000c3f40       Curl_proxy_connect         00000001800c4f40 f   libcurl_a:http_proxy.obj
 0001:000c4180       Curl_checkheaders          00000001800c5180 f   libcurl_a:transfer.obj
 0001:000c4210       Curl_done_sending          00000001800c5210 f   libcurl_a:transfer.obj
 0001:000c4240       Curl_fillreadbuffer        00000001800c5240 f   libcurl_a:transfer.obj
 0001:000c4640       Curl_follow                00000001800c5640 f   libcurl_a:transfer.obj
 0001:000c48e0       Curl_get_upload_buffer     00000001800c58e0 f   libcurl_a:transfer.obj
 0001:000c4920       Curl_init_CONNECT          00000001800c5920 f   libcurl_a:transfer.obj
 0001:000c4940       Curl_meets_timecondition   00000001800c5940 f   libcurl_a:transfer.obj
 0001:000c49b0       Curl_pretransfer           00000001800c59b0 f   libcurl_a:transfer.obj
 0001:000c4bc0       Curl_readrewind            00000001800c5bc0 f   libcurl_a:transfer.obj
 0001:000c4d70       Curl_readwrite             00000001800c5d70 f   libcurl_a:transfer.obj
 0001:000c5070       Curl_retry_request         00000001800c6070 f   libcurl_a:transfer.obj
 0001:000c51c0       Curl_setup_transfer        00000001800c61c0 f   libcurl_a:transfer.obj
 0001:000c5330       Curl_single_getsock        00000001800c6330 f   libcurl_a:transfer.obj
 0001:000c5fa0       Curl_now                   00000001800c6fa0 f   libcurl_a:timeval.obj
 0001:000c6030       Curl_timediff              00000001800c7030 f   libcurl_a:timeval.obj
 0001:000c6090       Curl_timediff_us           00000001800c7090 f   libcurl_a:timeval.obj
 0001:000c60e0       Curl_llist_count           00000001800c70e0 f   libcurl_a:llist.obj
 0001:000c60f0       Curl_llist_destroy         00000001800c70f0 f   libcurl_a:llist.obj
 0001:000c61c0       Curl_llist_init            00000001800c71c0 f   libcurl_a:llist.obj
 0001:000c61e0       Curl_llist_insert_next     00000001800c71e0 f   libcurl_a:llist.obj
 0001:000c6260       Curl_llist_remove          00000001800c7260 f   libcurl_a:llist.obj
 0001:000c62f0       Curl_hash_add              00000001800c72f0 f   libcurl_a:hash.obj
 0001:000c63d0       Curl_hash_clean            00000001800c73d0 f   libcurl_a:hash.obj
 0001:000c6450       Curl_hash_clean_with_criterium 00000001800c7450 f   libcurl_a:hash.obj
 0001:000c6520       Curl_hash_delete           00000001800c7520 f   libcurl_a:hash.obj
 0001:000c65c0       Curl_hash_destroy          00000001800c75c0 f   libcurl_a:hash.obj
 0001:000c6620       Curl_hash_init             00000001800c7620 f   libcurl_a:hash.obj
 0001:000c66f0       Curl_hash_next_element     00000001800c76f0 f   libcurl_a:hash.obj
 0001:000c6780       Curl_hash_pick             00000001800c7780 f   libcurl_a:hash.obj
 0001:000c6820       Curl_hash_start_iterate    00000001800c7820 f   libcurl_a:hash.obj
 0001:000c6830       Curl_hash_str              00000001800c7830 f   libcurl_a:hash.obj
 0001:000c6860       Curl_str_key_compare       00000001800c7860 f   libcurl_a:hash.obj
 0001:000c68d0       Curl_cache_addr            00000001800c78d0 f   libcurl_a:hostip.obj
 0001:000c6b90       Curl_fetch_addr            00000001800c7b90 f   libcurl_a:hostip.obj
 0001:000c6c20       Curl_hostcache_clean       00000001800c7c20 f   libcurl_a:hostip.obj
 0001:000c6c80       Curl_hostcache_prune       00000001800c7c80 f   libcurl_a:hostip.obj
 0001:000c6d30       Curl_loadhostpairs         00000001800c7d30 f   libcurl_a:hostip.obj
 0001:000c7250       Curl_mk_dnscache           00000001800c8250 f   libcurl_a:hostip.obj
 0001:000c7280       Curl_num_addresses         00000001800c8280 f   libcurl_a:hostip.obj
 0001:000c72a0       Curl_once_resolved         00000001800c82a0 f   libcurl_a:hostip.obj
 0001:000c72f0       Curl_printable_address     00000001800c82f0 f   libcurl_a:hostip.obj
 0001:000c7330       Curl_resolv                00000001800c8330 f   libcurl_a:hostip.obj
 0001:000c7540       Curl_resolv_check          00000001800c8540 f   libcurl_a:hostip.obj
 0001:000c7560       Curl_resolv_getsock        00000001800c8560 f   libcurl_a:hostip.obj
 0001:000c7580       Curl_resolv_timeout        00000001800c8580 f   libcurl_a:hostip.obj
 0001:000c75b0       Curl_resolv_unlock         00000001800c85b0 f   libcurl_a:hostip.obj
 0001:000c7840       Curl_splay                 00000001800c8840 f   libcurl_a:splay.obj
 0001:000c7950       Curl_splaygetbest          00000001800c8950 f   libcurl_a:splay.obj
 0001:000c7a10       Curl_splayinsert           00000001800c8a10 f   libcurl_a:splay.obj
 0001:000c7b00       Curl_splayremovebyaddr     00000001800c8b00 f   libcurl_a:splay.obj
 0001:000c7c60       Curl_http                  00000001800c8c60 f   libcurl_a:http.obj
 0001:000c9850       Curl_http_done             00000001800ca850 f   libcurl_a:http.obj
 0001:000c9960       Curl_http_connect          00000001800ca960 f   libcurl_a:http.obj
 0001:000c9c30       Curl_add_buffer            00000001800cac30 f   libcurl_a:http.obj
 0001:000c9d40       Curl_add_buffer_free       00000001800cad40 f   libcurl_a:http.obj
 0001:000c9d80       Curl_add_buffer_init       00000001800cad80 f   libcurl_a:http.obj
 0001:000c9d90       Curl_add_buffer_send       00000001800cad90 f   libcurl_a:http.obj
 0001:000c9fe0       Curl_add_bufferf           00000001800cafe0 f   libcurl_a:http.obj
 0001:000ca070       Curl_add_custom_headers    00000001800cb070 f   libcurl_a:http.obj
 0001:000ca3d0       Curl_add_timecondition     00000001800cb3d0 f   libcurl_a:http.obj
 0001:000ca570       Curl_checkProxyheaders     00000001800cb570 f   libcurl_a:http.obj
 0001:000ca620       Curl_compareheader         00000001800cb620 f   libcurl_a:http.obj
 0001:000ca710       Curl_copy_header_value     00000001800cb710 f   libcurl_a:http.obj
 0001:000ca820       Curl_http_auth_act         00000001800cb820 f   libcurl_a:http.obj
 0001:000caa70       Curl_http_compile_trailers 00000001800cba70 f   libcurl_a:http.obj
 0001:000cab30       Curl_http_input_auth       00000001800cbb30 f   libcurl_a:http.obj
 0001:000cade0       Curl_http_output_auth      00000001800cbde0 f   libcurl_a:http.obj
 0001:000caf10       Curl_http_readwrite_headers 00000001800cbf10 f   libcurl_a:http.obj
 0001:000ccfb0       Curl_wildcard_dtor         00000001800cdfb0 f   libcurl_a:wildcard.obj
 0001:000cd020       Curl_wildcard_init         00000001800ce020 f   libcurl_a:wildcard.obj
 0001:000cd060       Curl_pgrsDone              00000001800ce060 f   libcurl_a:progress.obj
 0001:000cd1d0       Curl_pgrsLimitWaitTime     00000001800ce1d0 f   libcurl_a:progress.obj
 0001:000cd270       Curl_pgrsResetTransferSizes 00000001800ce270 f   libcurl_a:progress.obj
 0001:000cd290       Curl_pgrsSetDownloadCounter 00000001800ce290 f   libcurl_a:progress.obj
 0001:000cd2a0       Curl_pgrsSetDownloadSize   00000001800ce2a0 f   libcurl_a:progress.obj
 0001:000cd2d0       Curl_pgrsSetUploadCounter  00000001800ce2d0 f   libcurl_a:progress.obj
 0001:000cd2e0       Curl_pgrsSetUploadSize     00000001800ce2e0 f   libcurl_a:progress.obj
 0001:000cd310       Curl_pgrsStartNow          00000001800ce310 f   libcurl_a:progress.obj
 0001:000cd420       Curl_pgrsTime              00000001800ce420 f   libcurl_a:progress.obj
 0001:000cd570       Curl_pgrsUpdate            00000001800ce570 f   libcurl_a:progress.obj
 0001:000cd6c0       Curl_ratelimit             00000001800ce6c0 f   libcurl_a:progress.obj
 0001:000cdfe0       Curl_speedcheck            00000001800cefe0 f   libcurl_a:speedcheck.obj
 0001:000ce0c0       Curl_speedinit             00000001800cf0c0 f   libcurl_a:speedcheck.obj
 0001:000ce1b0       curl_maprintf              00000001800cf1b0 f   libcurl_a:mprintf.obj
 0001:000ce250       curl_mfprintf              00000001800cf250 f   libcurl_a:mprintf.obj
 0001:000ce280       curl_msnprintf             00000001800cf280 f   libcurl_a:mprintf.obj
 0001:000ce2f0       curl_mvaprintf             00000001800cf2f0 f   libcurl_a:mprintf.obj
 0001:000ce380       curl_mvsnprintf            00000001800cf380 f   libcurl_a:mprintf.obj
 0001:000cf600       Curl_gmtime                00000001800d0600 f   libcurl_a:parsedate.obj
 0001:000cf650       curl_getdate               00000001800d0650 f   libcurl_a:parsedate.obj
 0001:000cfc80       Curl_strtok_r              00000001800d0c80 f   libcurl_a:strtok.obj
 0001:000cfd30       curlx_strtoofft            00000001800d0d30 f   libcurl_a:strtoofft.obj
 0001:000cfdf0       Curl_get_line              00000001800d0df0 f   libcurl_a:curl_get_line.obj
 0001:000cfe70       Curl_memrchr               00000001800d0e70 f   libcurl_a:curl_memrchr.obj
 0001:000cfe90       Curl_inet_pton             00000001800d0e90 f   libcurl_a:inet_pton.obj
 0001:000d01b0       Curl_socketpair            00000001800d11b0 f   libcurl_a:socketpair.obj
 0001:000d03e0       Curl_freeaddrinfo          00000001800d13e0 f   libcurl_a:curl_addrinfo.obj
 0001:000d0430       Curl_getaddrinfo_ex        00000001800d1430 f   libcurl_a:curl_addrinfo.obj
 0001:000d0610       Curl_ip2addr               00000001800d1610 f   libcurl_a:curl_addrinfo.obj
 0001:000d0850       Curl_str2addr              00000001800d1850 f   libcurl_a:curl_addrinfo.obj
 0001:000d08f0       Curl_unix2addr             00000001800d18f0 f   libcurl_a:curl_addrinfo.obj
 0001:000d09e0       Curl_addrinfo_callback     00000001800d19e0 f   libcurl_a:hostasyn.obj
 0001:000d0aa0       Curl_getaddrinfo           00000001800d1aa0 f   libcurl_a:hostasyn.obj
 0001:000d0ab0       Curl_thread_create         00000001800d1ab0 f   libcurl_a:curl_threads.obj
 0001:000d0af0       Curl_thread_destroy        00000001800d1af0 f   libcurl_a:curl_threads.obj
 0001:000d0b00       Curl_thread_join           00000001800d1b00 f   libcurl_a:curl_threads.obj
 0001:000d0b50       Curl_rand                  00000001800d1b50 f   libcurl_a:rand.obj
 0001:000d0c80       Curl_rand_hex              00000001800d1c80 f   libcurl_a:rand.obj
 0001:000d3cf0       curl_getenv                00000001800d4cf0 f   libcurl_a:getenv.obj
 0001:000d3d80       Curl_isunreserved          00000001800d4d80 f   libcurl_a:escape.obj
 0001:000d3e10       Curl_urldecode             00000001800d4e10 f   libcurl_a:escape.obj
 0001:000d4040       Curl_MD5_final             00000001800d5040 f   libcurl_a:md5.obj
 0001:000d4080       Curl_MD5_init              00000001800d5080 f   libcurl_a:md5.obj
 0001:000d40e0       Curl_HMAC_update           00000001800d50e0 f   libcurl_a:hmac.obj
 0001:000d40e0       Curl_MD5_update            00000001800d50e0 f   libcurl_a:md5.obj
 0001:000d4100       Curl_base64_decode         00000001800d5100 f   libcurl_a:base64.obj
 0001:000d4300       Curl_base64_encode         00000001800d5300 f   libcurl_a:base64.obj
 0001:000d4330       Curl_base64url_encode      00000001800d5330 f   libcurl_a:base64.obj
 0001:000d6e50       Curl_pop3_write            00000001800d7e50 f   libcurl_a:pop3.obj
 0001:000d8030       Curl_smtp_escape_eob       00000001800d9030 f   libcurl_a:smtp.obj
 0001:000da0b0       Curl_GetFTPResponse        00000001800db0b0 f   libcurl_a:ftp.obj
 0001:000df3a0       Curl_rtsp_parseheader      00000001800e03a0 f   libcurl_a:rtsp.obj
 0001:000e59a0       Curl_is_absolute_url       00000001800e69a0 f   libcurl_a:urlapi.obj
 0001:000e5d30       curl_url                   00000001800e6d30 f   libcurl_a:urlapi.obj
 0001:000e5d40       curl_url_cleanup           00000001800e6d40 f   libcurl_a:urlapi.obj
 0001:000e5d70       curl_url_dup               00000001800e6d70 f   libcurl_a:urlapi.obj
 0001:000e5eb0       curl_url_get               00000001800e6eb0 f   libcurl_a:urlapi.obj
 0001:000e64c0       curl_url_set               00000001800e74c0 f   libcurl_a:urlapi.obj
 0001:000e7a50       Curl_isalnum               00000001800e8a50 f   libcurl_a:curl_ctype.obj
 0001:000e7a70       Curl_isalpha               00000001800e8a70 f   libcurl_a:curl_ctype.obj
 0001:000e7a90       Curl_iscntrl               00000001800e8a90 f   libcurl_a:curl_ctype.obj
 0001:000e7ab0       Curl_isdigit               00000001800e8ab0 f   libcurl_a:curl_ctype.obj
 0001:000e7ad0       Curl_isgraph               00000001800e8ad0 f   libcurl_a:curl_ctype.obj
 0001:000e7af0       Curl_islower               00000001800e8af0 f   libcurl_a:curl_ctype.obj
 0001:000e7b10       Curl_isprint               00000001800e8b10 f   libcurl_a:curl_ctype.obj
 0001:000e7b30       Curl_isspace               00000001800e8b30 f   libcurl_a:curl_ctype.obj
 0001:000e7b50       Curl_isupper               00000001800e8b50 f   libcurl_a:curl_ctype.obj
 0001:000e7b70       Curl_isxdigit              00000001800e8b70 f   libcurl_a:curl_ctype.obj
 0001:000e7b90       curl_win32_idn_to_ascii    00000001800e8b90 f   libcurl_a:idn_win32.obj
 0001:000e7c40       Curl_parsenetrc            00000001800e8c40 f   libcurl_a:netrc.obj
 0001:000e8130       Curl_http_auth_cleanup_negotiate 00000001800e9130 f   libcurl_a:http_negotiate.obj
 0001:000e8160       Curl_input_negotiate       00000001800e9160 f   libcurl_a:http_negotiate.obj
 0001:000e8340       Curl_output_negotiate      00000001800e9340 f   libcurl_a:http_negotiate.obj
 0001:000e8520       Curl_http_auth_cleanup_ntlm 00000001800e9520 f   libcurl_a:http_ntlm.obj
 0001:000e8550       Curl_input_ntlm            00000001800e9550 f   libcurl_a:http_ntlm.obj
 0001:000e8690       Curl_output_ntlm           00000001800e9690 f   libcurl_a:http_ntlm.obj
 0001:000e8940       Curl_sspi_strerror         00000001800e9940 f   libcurl_a:strerror.obj
 0001:000e9110       Curl_strerror              00000001800ea110 f   libcurl_a:strerror.obj
 0001:000e9250       curl_easy_strerror         00000001800ea250 f   libcurl_a:strerror.obj
 0001:000e9ad0       Curl_ipv6_scope            00000001800eaad0 f   libcurl_a:if2ip.obj
 0001:000e9b60       curlx_nonblock             00000001800eab60 f   libcurl_a:nonblock.obj
 0001:000e9b90       Curl_inet_ntop             00000001800eab90 f   libcurl_a:inet_ntop.obj
 0001:000e9f60       Curl_SOCKS4                00000001800eaf60 f   libcurl_a:socks.obj
 0001:000ea440       Curl_SOCKS5                00000001800eb440 f   libcurl_a:socks.obj
 0001:000eada0       Curl_blockread_all         00000001800ebda0 f   libcurl_a:socks.obj
 0001:000eae80       Curl_auth_create_digest_http_message 00000001800ebe80 f   libcurl_a:digest_sspi.obj
 0001:000eb540       Curl_auth_create_digest_md5_message 00000001800ec540 f   libcurl_a:digest_sspi.obj
 0001:000eb910       Curl_auth_decode_digest_http_message 00000001800ec910 f   libcurl_a:digest_sspi.obj
 0001:000ebab0       Curl_auth_digest_cleanup   00000001800ecab0 f   libcurl_a:digest_sspi.obj
 0001:000ebb20       Curl_auth_is_digest_supported 00000001800ecb20 f   libcurl_a:digest_sspi.obj
 0001:000ebb70       Curl_create_sspi_identity  00000001800ecb70 f   libcurl_a:curl_sspi.obj
 0001:000ebcd0       Curl_sspi_free_identity    00000001800eccd0 f   libcurl_a:curl_sspi.obj
 0001:000ebd20       Curl_sspi_global_cleanup   00000001800ecd20 f   libcurl_a:curl_sspi.obj
 0001:000ebd50       Curl_sspi_global_init      00000001800ecd50 f   libcurl_a:curl_sspi.obj
 0001:000ebdd0       Curl_chunked_strerror      00000001800ecdd0 f   libcurl_a:http_chunks.obj
 0001:000ebe40       Curl_httpchunk_init        00000001800ece40 f   libcurl_a:http_chunks.obj
 0001:000ebe50       Curl_httpchunk_read        00000001800ece50 f   libcurl_a:http_chunks.obj
 0001:000ec270       Curl_doh                   00000001800ed270 f   libcurl_a:doh.obj
 0001:000ec460       Curl_doh_is_resolved       00000001800ed460 f   libcurl_a:doh.obj
 0001:000ed800       Curl_getformdata           00000001800ee800 f   libcurl_a:formdata.obj
 0001:000edb90       Curl_auth_cleanup_ntlm     00000001800eeb90 f   libcurl_a:ntlm_sspi.obj
 0001:000edc30       Curl_auth_create_ntlm_type1_message 00000001800eec30 f   libcurl_a:ntlm_sspi.obj
 0001:000edec0       Curl_auth_create_ntlm_type3_message 00000001800eeec0 f   libcurl_a:ntlm_sspi.obj
 0001:000ee050       Curl_auth_decode_ntlm_type2_message 00000001800ef050 f   libcurl_a:ntlm_sspi.obj
 0001:000ee0f0       Curl_auth_is_ntlm_supported 00000001800ef0f0 f   libcurl_a:ntlm_sspi.obj
 0001:000ee140       Curl_auth_cleanup_spnego   00000001800ef140 f   libcurl_a:spnego_sspi.obj
 0001:000ee1d0       Curl_auth_create_spnego_message 00000001800ef1d0 f   libcurl_a:spnego_sspi.obj
 0001:000ee230       Curl_auth_decode_spnego_message 00000001800ef230 f   libcurl_a:spnego_sspi.obj
 0001:000ee660       Curl_auth_is_spnego_supported 00000001800ef660 f   libcurl_a:spnego_sspi.obj
 0001:000ee6b0       Curl_fileinfo_alloc        00000001800ef6b0 f   libcurl_a:fileinfo.obj
 0001:000ee6d0       Curl_fileinfo_cleanup      00000001800ef6d0 f   libcurl_a:fileinfo.obj
 0001:000ee700       Curl_verify_certificate    00000001800ef700 f   libcurl_a:schannel_verify.obj
 0001:000ef110       Curl_extract_certinfo      00000001800f0110 f   libcurl_a:x509asn1.obj
 0001:000f0db0       Curl_parseX509             00000001800f1db0 f   libcurl_a:x509asn1.obj
 0001:000f2cb0       Curl_pp_disconnect         00000001800f3cb0 f   libcurl_a:pingpong.obj
 0001:000f2ce0       Curl_pp_flushsend          00000001800f3ce0 f   libcurl_a:pingpong.obj
 0001:000f2d70       Curl_pp_getsock            00000001800f3d70 f   libcurl_a:pingpong.obj
 0001:000f2da0       Curl_pp_init               00000001800f3da0 f   libcurl_a:pingpong.obj
 0001:000f2de0       Curl_pp_moredata           00000001800f3de0 f   libcurl_a:pingpong.obj
 0001:000f2e00       Curl_pp_readresp           00000001800f3e00 f   libcurl_a:pingpong.obj
 0001:000f3130       Curl_pp_sendf              00000001800f4130 f   libcurl_a:pingpong.obj
 0001:000f32b0       Curl_pp_state_timeout      00000001800f42b0 f   libcurl_a:pingpong.obj
 0001:000f3380       Curl_pp_statemach          00000001800f4380 f   libcurl_a:pingpong.obj
 0001:000f3570       Curl_pp_vsendf             00000001800f4570 f   libcurl_a:pingpong.obj
 0001:000f36f0       Curl_sasl_can_authenticate 00000001800f46f0 f   libcurl_a:curl_sasl.obj
 0001:000f3710       Curl_sasl_cleanup          00000001800f4710 f   libcurl_a:curl_sasl.obj
 0001:000f3740       Curl_sasl_continue         00000001800f4740 f   libcurl_a:curl_sasl.obj
 0001:000f3ce0       Curl_sasl_decode_mech      00000001800f4ce0 f   libcurl_a:curl_sasl.obj
 0001:000f3dd0       Curl_sasl_init             00000001800f4dd0 f   libcurl_a:curl_sasl.obj
 0001:000f3df0       Curl_sasl_parse_url_auth_option 00000001800f4df0 f   libcurl_a:curl_sasl.obj
 0001:000f3f50       Curl_sasl_start            00000001800f4f50 f   libcurl_a:curl_sasl.obj
 0001:000f4470       Curl_gethostname           00000001800f5470 f   libcurl_a:curl_gethostname.obj
 0001:000f44c0       Curl_ftp_parselist         00000001800f54c0 f   libcurl_a:ftplistparser.obj
 0001:000f50b0       Curl_ftp_parselist_data_alloc 00000001800f60b0 f   libcurl_a:ftplistparser.obj
 0001:000f50c0       Curl_ftp_parselist_data_free 00000001800f60c0 f   libcurl_a:ftplistparser.obj
 0001:000f5100       Curl_ftp_parselist_geterror 00000001800f6100 f   libcurl_a:ftplistparser.obj
 0001:000f5390       Curl_range                 00000001800f6390 f   libcurl_a:curl_range.obj
 0001:000f54c0       Curl_ntlm_core_lm_resp     00000001800f64c0 f   libcurl_a:curl_ntlm_core.obj
 0001:000f5520       Curl_ntlm_core_mk_lm_hash  00000001800f6520 f   libcurl_a:curl_ntlm_core.obj
 0001:000f55f0       Curl_ntlm_core_mk_nt_hash  00000001800f65f0 f   libcurl_a:curl_ntlm_core.obj
 0001:000f5860       Curl_read16_be             00000001800f6860 f   libcurl_a:curl_endian.obj
 0001:000f5870       Curl_read16_le             00000001800f6870 f   libcurl_a:curl_endian.obj
 0001:000f5880       Curl_dedotdotify           00000001800f6880 f   libcurl_a:dotdot.obj
 0001:000f5b00       Curl_convert_UTF8_to_wchar 00000001800f6b00 f   libcurl_a:curl_multibyte.obj
 0001:000f5bb0       Curl_convert_wchar_to_UTF8 00000001800f6bb0 f   libcurl_a:curl_multibyte.obj
 0001:000f5c60       Curl_SOCKS5_gssapi_negotiate 00000001800f6c60 f   libcurl_a:socks_sspi.obj
 0001:000f6920       Curl_auth_build_spn        00000001800f7920 f   libcurl_a:vauth.obj
 0001:000f6940       Curl_auth_user_contains_domain 00000001800f7940 f   libcurl_a:vauth.obj
 0001:000f69a0       Curl_auth_digest_get_pair  00000001800f79a0 f   libcurl_a:digest.obj
 0001:000f6aa0       Curl_cert_hostcheck        00000001800f7aa0 f   libcurl_a:hostcheck.obj
 0001:000f6d10       Curl_auth_create_external_message 00000001800f7d10 f   libcurl_a:cleartext.obj
 0001:000f6d10       Curl_auth_create_login_message 00000001800f7d10 f   libcurl_a:cleartext.obj
 0001:000f6da0       Curl_auth_create_plain_message 00000001800f7da0 f   libcurl_a:cleartext.obj
 0001:000f6f00       Curl_auth_create_cram_md5_message 00000001800f7f00 f   libcurl_a:cram.obj
 0001:000f7160       Curl_auth_decode_cram_md5_message 00000001800f8160 f   libcurl_a:cram.obj
 0001:000f71a0       Curl_auth_create_oauth_bearer_message 00000001800f81a0 f   libcurl_a:oauth2.obj
 0001:000f7240       Curl_auth_create_xoauth_bearer_message 00000001800f8240 f   libcurl_a:oauth2.obj
 0001:000f72d0       Curl_auth_cleanup_gssapi   00000001800f82d0 f   libcurl_a:krb5_sspi.obj
 0001:000f7360       Curl_auth_create_gssapi_security_message 00000001800f8360 f   libcurl_a:krb5_sspi.obj
 0001:000f7790       Curl_auth_create_gssapi_user_message 00000001800f8790 f   libcurl_a:krb5_sspi.obj
 0001:000f7b10       Curl_auth_is_gssapi_supported 00000001800f8b10 f   libcurl_a:krb5_sspi.obj
 0001:000f7b60       Curl_fnmatch               00000001800f8b60 f   libcurl_a:curl_fnmatch.obj
 0001:000f8410       Curl_des_set_odd_parity    00000001800f9410 f   libcurl_a:curl_des.obj
 0001:000f8480       Curl_md4it                 00000001800f9480 f   libcurl_a:md4.obj
 0001:000f8590       Curl_HMAC_final            00000001800f9590 f   libcurl_a:hmac.obj
 0001:000f8600       Curl_HMAC_init             00000001800f9600 f   libcurl_a:hmac.obj
 0001:000f873c       ??0bad_alloc@std@@QEAA@XZ  00000001800f973c f i libcpmt:xthrow.obj
 0001:000f875c       ??0bad_function_call@std@@QEAA@AEBV01@@Z 00000001800f975c f i libcpmt:xthrow.obj
 0001:000f8798       ??0bad_function_call@std@@QEAA@XZ 00000001800f9798 f i libcpmt:xthrow.obj
 0001:000f87b0       ??0length_error@std@@QEAA@AEBV01@@Z 00000001800f97b0 f i libcpmt:xthrow.obj
 0001:000f87ec       ??0length_error@std@@QEAA@PEBD@Z 00000001800f97ec f i libcpmt:xthrow.obj
 0001:000f8834       ??0logic_error@std@@QEAA@AEBV01@@Z 00000001800f9834 f i libcpmt:xthrow.obj
 0001:000f8870       ??0out_of_range@std@@QEAA@AEBV01@@Z 00000001800f9870 f i libcpmt:xthrow.obj
 0001:000f88ac       ??0out_of_range@std@@QEAA@PEBD@Z 00000001800f98ac f i libcpmt:xthrow.obj
 0001:000f88f4       ??0runtime_error@std@@QEAA@PEBD@Z 00000001800f98f4 f i libcpmt:xthrow.obj
 0001:000f893c       ??_Ebad_exception@std@@UEAAPEAXI@Z 00000001800f993c f i libvcruntime:frame.obj
 0001:000f893c       ??_Ebad_function_call@std@@UEAAPEAXI@Z 00000001800f993c f i libcpmt:xthrow.obj
 0001:000f893c       ??_Elength_error@std@@UEAAPEAXI@Z 00000001800f993c f i libcpmt:xthrow.obj
 0001:000f893c       ??_Elogic_error@std@@UEAAPEAXI@Z 00000001800f993c f i libcpmt:xthrow.obj
 0001:000f893c       ??_Eout_of_range@std@@UEAAPEAXI@Z 00000001800f993c f i libcpmt:xthrow.obj
 0001:000f893c       ??_Gbad_exception@std@@UEAAPEAXI@Z 00000001800f993c f i libvcruntime:frame.obj
 0001:000f893c       ??_Gbad_function_call@std@@UEAAPEAXI@Z 00000001800f993c f i libcpmt:xthrow.obj
 0001:000f893c       ??_Glength_error@std@@UEAAPEAXI@Z 00000001800f993c f i libcpmt:xthrow.obj
 0001:000f893c       ??_Glogic_error@std@@UEAAPEAXI@Z 00000001800f993c f i libcpmt:xthrow.obj
 0001:000f893c       ??_Gout_of_range@std@@UEAAPEAXI@Z 00000001800f993c f i libcpmt:xthrow.obj
 0001:000f8980       ?_Xbad_alloc@std@@YAXXZ    00000001800f9980 f   libcpmt:xthrow.obj
 0001:000f8980       ?__scrt_throw_std_bad_alloc@@YAXXZ 00000001800f9980 f   LIBCMT:throw_bad_alloc.obj
 0001:000f89a0       ?_Xbad_function_call@std@@YAXXZ 00000001800f99a0 f   libcpmt:xthrow.obj
 0001:000f89c0       ?_Xlength_error@std@@YAXPEBD@Z 00000001800f99c0 f   libcpmt:xthrow.obj
 0001:000f89e4       ?_Xout_of_range@std@@YAXPEBD@Z 00000001800f99e4 f   libcpmt:xthrow.obj
 0001:000f8a08       ?_Xruntime_error@std@@YAXPEBD@Z 00000001800f9a08 f   libcpmt:xthrow.obj
 0001:000f8a2c       ?what@bad_function_call@std@@UEBAPEBDXZ 00000001800f9a2c f i libcpmt:xthrow.obj
 0001:000f8a34       _Query_perf_counter        00000001800f9a34 f   libcpmt:xtime.obj
 0001:000f8a50       _Query_perf_frequency      00000001800f9a50 f   libcpmt:xtime.obj
 0001:000f8a7c       _Timespec64_get_sys        00000001800f9a7c f   libcpmt:xtime.obj
 0001:000f8ab8       _Xtime_diff_to_millis2     00000001800f9ab8 f   libcpmt:xtime.obj
 0001:000f8b80       _Xtime_get_ticks           00000001800f9b80 f   libcpmt:xtime.obj
 0001:000f8bb0       _Thrd_detach               00000001800f9bb0 f   libcpmt:cthread.obj
 0001:000f8bcc       _Thrd_id                   00000001800f9bcc f   libcpmt:cthread.obj
 0001:000f8bd4       _Thrd_sleep                00000001800f9bd4 f   libcpmt:cthread.obj
 0001:000f8c40       _Mtx_init_in_situ          00000001800f9c40 f   libcpmt:mutex.obj
 0001:000f8c54       _Mtx_lock                  00000001800f9c54 f   libcpmt:mutex.obj
 0001:000f8c5c       _Mtx_unlock                00000001800f9c5c f   libcpmt:mutex.obj
 0001:000f8db0       ??$_Construct@$01PEBD@?$basic_string@DU?$char_traits@D@std@@V?$allocator@D@2@@std@@AEAAXQEBD_K@Z 00000001800f9db0 f i libcpmt:thread0.obj
 0001:000f8ec8       ??0?$basic_string@DU?$char_traits@D@std@@V?$allocator@D@2@@std@@QEAA@$$QEAV01@@Z 00000001800f9ec8 f i libcpmt:thread0.obj
 0001:000f8f38       ??0system_error@std@@QEAA@HAEBVerror_category@1@PEBD@Z 00000001800f9f38 f i libcpmt:thread0.obj
 0001:000f9058       ?_Throw_Cpp_error@std@@YAXH@Z 00000001800fa058 f   libcpmt:thread0.obj
 0001:000f90a0       ?generic_category@std@@YAAEBVerror_category@1@XZ 00000001800fa0a0 f i libcpmt:thread0.obj
 0001:000f90a8       ??0_Init_locks@std@@QEAA@XZ 00000001800fa0a8 f   libcpmt:xlock.obj
 0001:000f90ec       ??0_Lockit@std@@QEAA@H@Z   00000001800fa0ec f   libcpmt:xlock.obj
 0001:000f9128       ??1_Init_locks@std@@QEAA@XZ 00000001800fa128 f   libcpmt:xlock.obj
 0001:000f9164       ??1_Lockit@std@@QEAA@XZ    00000001800fa164 f   libcpmt:xlock.obj
 0001:000f9198       _Lock_at_thread_exit_mutex 00000001800fa198 f   libcpmt:xlock.obj
 0001:000f91a4       _Unlock_at_thread_exit_mutex 00000001800fa1a4 f   libcpmt:xlock.obj
 0001:000f91b0       ??0_Locimp@locale@std@@AEAA@AEBV012@@Z 00000001800fa1b0 f i libcpmt:locale0.obj
 0001:000f922c       ??0_Locimp@locale@std@@AEAA@_N@Z 00000001800fa22c f i libcpmt:locale0.obj
 0001:000f92b4       ??4?$_Yarn@D@std@@QEAAAEAV01@PEBD@Z 00000001800fa2b4 f i libcpmt:locale0.obj
 0001:000f932c       ??_E_Locimp@locale@std@@MEAAPEAXI@Z 00000001800fa32c f i libcpmt:locale0.obj
 0001:000f932c       ??_G_Locimp@locale@std@@MEAAPEAXI@Z 00000001800fa32c f i libcpmt:locale0.obj
 0001:000f9388       ?_Facet_Register@std@@YAXPEAV_Facet_base@1@@Z 00000001800fa388 f   libcpmt:locale0.obj
 0001:000f93c0       ?_Getgloballocale@locale@std@@CAPEAV_Locimp@12@XZ 00000001800fa3c0 f   libcpmt:locale0.obj
 0001:000f93c8       ?_Init@locale@std@@CAPEAV_Locimp@12@_N@Z 00000001800fa3c8 f   libcpmt:locale0.obj
 0001:000f94bc       ?_Locimp_dtor@_Locimp@locale@std@@CAXPEAV123@@Z 00000001800fa4bc f   libcpmt:locale0.obj
 0001:000f9538       ?_Locinfo_ctor@_Locinfo@std@@SAXPEAV12@PEBD@Z 00000001800fa538 f   libcpmt:locale0.obj
 0001:000f95a4       ?_Locinfo_dtor@_Locinfo@std@@SAXPEAV12@@Z 00000001800fa5a4 f   libcpmt:locale0.obj
 0001:000f95c0       ?_New_Locimp@_Locimp@locale@std@@CAPEAV123@AEBV123@@Z 00000001800fa5c0 f   libcpmt:locale0.obj
 0001:000f95f4       ?_New_Locimp@_Locimp@locale@std@@CAPEAV123@_N@Z 00000001800fa5f4 f   libcpmt:locale0.obj
 0001:000f9624       ?_Setgloballocale@locale@std@@CAXPEAX@Z 00000001800fa624 f   libcpmt:locale0.obj
 0001:000f9658       _Deletegloballocale        00000001800fa658 f   libcpmt:locale0.obj
 0001:000f96c8       ??$_Construct@$0A@D@?$basic_string@DU?$char_traits@D@std@@V?$allocator@D@2@@std@@AEAAXD_K@Z 00000001800fa6c8 f i libcpmt:locale.obj
 0001:000f97f8       ??$_Fput_v3@$0A@@?$num_put@DV?$ostreambuf_iterator@DU?$char_traits@D@std@@@std@@@std@@AEBA?AV?$ostreambuf_iterator@DU?$char_traits@D@std@@@1@V21@AEAVios_base@1@DPEBD_K_N@Z 00000001800fa7f8 f i libcpmt:locale.obj
 0001:000f9c98       ??$_Getloctxt@V?$istreambuf_iterator@DU?$char_traits@D@std@@@std@@D@std@@YAHAEAV?$istreambuf_iterator@DU?$char_traits@D@std@@@0@0_KPEBDW4_Case_sensitive@0@@Z 00000001800fac98 f i libcpmt:locale.obj
 0001:000f9f60       ??$_Maklocstr@D@std@@YAPEADPEBDPEADAEBU_Cvtvec@@@Z 00000001800faf60 f i libcpmt:locale.obj
 0001:000f9fc4       ??$_Parse_fp_with_locale@$0A@@?$num_get@DV?$istreambuf_iterator@DU?$char_traits@D@std@@@std@@@std@@CA?AU_Num_get_parse_result@1@QEADHAEAV?$istreambuf_iterator@DU?$char_traits@D@std@@@1@1AEBVlocale@1@@Z 00000001800fafc4 f i libcpmt:locale.obj
 0001:000fb4e0       ??$_Parse_int_with_locale@$0A@@?$num_get@DV?$istreambuf_iterator@DU?$char_traits@D@std@@@std@@@std@@CA?AU_Num_get_parse_result@1@QEADAEAV?$istreambuf_iterator@DU?$char_traits@D@std@@@1@1HAEBVlocale@1@@Z 00000001800fc4e0 f i libcpmt:locale.obj
 0001:000fbeb4       ??$_Reallocate_grow_by@V<lambda_1>@?1??insert@?$basic_string@DU?$char_traits@D@std@@V?$allocator@D@2@@std@@QEAAAEAV34@_K0D@Z@_K_KD@?$basic_string@DU?$char_traits@D@std@@V?$allocator@D@2@@std@@AEAAAEAV01@_KV<lambda_1>@?1??insert@01@QEAAAEAV01@00D@Z@_K2D@Z 00000001800fceb4 f i libcpmt:locale.obj
 0001:000fc0d4       ??$_Reallocate_grow_by@V<lambda_1>@?1??push_back@?$basic_string@DU?$char_traits@D@std@@V?$allocator@D@2@@std@@QEAAXD@Z@D@?$basic_string@DU?$char_traits@D@std@@V?$allocator@D@2@@std@@AEAAAEAV01@_KV<lambda_1>@?1??push_back@01@QEAAXD@Z@D@Z 00000001800fd0d4 f i libcpmt:locale.obj
 0001:000fc2b4       ??$use_facet@V?$num_get@DV?$istreambuf_iterator@DU?$char_traits@D@std@@@std@@@std@@@std@@YAAEBV?$num_get@DV?$istreambuf_iterator@DU?$char_traits@D@std@@@std@@@0@AEBVlocale@0@@Z 00000001800fd2b4 f i libcpmt:locale.obj
 0001:000fc3cc       ??$use_facet@V?$num_put@DV?$ostreambuf_iterator@DU?$char_traits@D@std@@@std@@@std@@@std@@YAAEBV?$num_put@DV?$ostreambuf_iterator@DU?$char_traits@D@std@@@std@@@0@AEBVlocale@0@@Z 00000001800fd3cc f i libcpmt:locale.obj
 0001:000fc4e4       ??$use_facet@V?$numpunct@D@std@@@std@@YAAEBV?$numpunct@D@0@AEBVlocale@0@@Z 00000001800fd4e4 f i libcpmt:locale.obj
 0001:000fc5fc       ??0_Locinfo@std@@QEAA@PEBD@Z 00000001800fd5fc f i libcpmt:locale.obj
 0001:000fc674       ??1?$_Tidy_guard@V?$numpunct@D@std@@@std@@QEAA@XZ 00000001800fd674 f i libcpmt:locale.obj
 0001:000fc674       ??1?$_Tidy_guard@V?$numpunct@G@std@@@std@@QEAA@XZ 00000001800fd674 f i libcpmt:wlocale.obj
 0001:000fc674       ??1?$_Tidy_guard@V?$numpunct@_W@std@@@std@@QEAA@XZ 00000001800fd674 f i libcpmt:wlocale.obj
 0001:000fc6a4       ??1_Locinfo@std@@QEAA@XZ   00000001800fd6a4 f i libcpmt:locale.obj
 0001:000fc734       ??4?$ostreambuf_iterator@DU?$char_traits@D@std@@@std@@QEAAAEAV01@D@Z 00000001800fd734 f i libcpmt:locale.obj
 0001:000fc7a4       ??_E?$messages@D@std@@MEAAPEAXI@Z 00000001800fd7a4 f i libcpmt:xlocale.obj
 0001:000fc7a4       ??_E?$messages@G@std@@MEAAPEAXI@Z 00000001800fd7a4 f i libcpmt:wlocale.obj
 0001:000fc7a4       ??_E?$messages@_W@std@@MEAAPEAXI@Z 00000001800fd7a4 f i libcpmt:wlocale.obj
 0001:000fc7a4       ??_E?$money_get@DV?$istreambuf_iterator@DU?$char_traits@D@std@@@std@@@std@@MEAAPEAXI@Z 00000001800fd7a4 f i libcpmt:xlocale.obj
 0001:000fc7a4       ??_E?$money_get@GV?$istreambuf_iterator@GU?$char_traits@G@std@@@std@@@std@@MEAAPEAXI@Z 00000001800fd7a4 f i libcpmt:wlocale.obj
 0001:000fc7a4       ??_E?$money_get@_WV?$istreambuf_iterator@_WU?$char_traits@_W@std@@@std@@@std@@MEAAPEAXI@Z 00000001800fd7a4 f i libcpmt:wlocale.obj
 0001:000fc7a4       ??_E?$money_put@DV?$ostreambuf_iterator@DU?$char_traits@D@std@@@std@@@std@@MEAAPEAXI@Z 00000001800fd7a4 f i libcpmt:xlocale.obj
 0001:000fc7a4       ??_E?$money_put@GV?$ostreambuf_iterator@GU?$char_traits@G@std@@@std@@@std@@MEAAPEAXI@Z 00000001800fd7a4 f i libcpmt:wlocale.obj
 0001:000fc7a4       ??_E?$money_put@_WV?$ostreambuf_iterator@_WU?$char_traits@_W@std@@@std@@@std@@MEAAPEAXI@Z 00000001800fd7a4 f i libcpmt:wlocale.obj
 0001:000fc7a4       ??_E?$num_get@DV?$istreambuf_iterator@DU?$char_traits@D@std@@@std@@@std@@MEAAPEAXI@Z 00000001800fd7a4 f i libcpmt:locale.obj
 0001:000fc7a4       ??_E?$num_get@GV?$istreambuf_iterator@GU?$char_traits@G@std@@@std@@@std@@MEAAPEAXI@Z 00000001800fd7a4 f i libcpmt:wlocale.obj
 0001:000fc7a4       ??_E?$num_get@_WV?$istreambuf_iterator@_WU?$char_traits@_W@std@@@std@@@std@@MEAAPEAXI@Z 00000001800fd7a4 f i libcpmt:wlocale.obj
 0001:000fc7a4       ??_E?$num_put@DV?$ostreambuf_iterator@DU?$char_traits@D@std@@@std@@@std@@MEAAPEAXI@Z 00000001800fd7a4 f i libcpmt:locale.obj
 0001:000fc7a4       ??_E?$num_put@GV?$ostreambuf_iterator@GU?$char_traits@G@std@@@std@@@std@@MEAAPEAXI@Z 00000001800fd7a4 f i libcpmt:wlocale.obj
 0001:000fc7a4       ??_E?$num_put@_WV?$ostreambuf_iterator@_WU?$char_traits@_W@std@@@std@@@std@@MEAAPEAXI@Z 00000001800fd7a4 f i libcpmt:wlocale.obj
 0001:000fc7a4       ??_G?$messages@D@std@@MEAAPEAXI@Z 00000001800fd7a4 f i libcpmt:xlocale.obj
 0001:000fc7a4       ??_G?$messages@G@std@@MEAAPEAXI@Z 00000001800fd7a4 f i libcpmt:wlocale.obj
 0001:000fc7a4       ??_G?$messages@_W@std@@MEAAPEAXI@Z 00000001800fd7a4 f i libcpmt:wlocale.obj
 0001:000fc7a4       ??_G?$money_get@DV?$istreambuf_iterator@DU?$char_traits@D@std@@@std@@@std@@MEAAPEAXI@Z 00000001800fd7a4 f i libcpmt:xlocale.obj
 0001:000fc7a4       ??_G?$money_get@GV?$istreambuf_iterator@GU?$char_traits@G@std@@@std@@@std@@MEAAPEAXI@Z 00000001800fd7a4 f i libcpmt:wlocale.obj
 0001:000fc7a4       ??_G?$money_get@_WV?$istreambuf_iterator@_WU?$char_traits@_W@std@@@std@@@std@@MEAAPEAXI@Z 00000001800fd7a4 f i libcpmt:wlocale.obj
 0001:000fc7a4       ??_G?$money_put@DV?$ostreambuf_iterator@DU?$char_traits@D@std@@@std@@@std@@MEAAPEAXI@Z 00000001800fd7a4 f i libcpmt:xlocale.obj
 0001:000fc7a4       ??_G?$money_put@GV?$ostreambuf_iterator@GU?$char_traits@G@std@@@std@@@std@@MEAAPEAXI@Z 00000001800fd7a4 f i libcpmt:wlocale.obj
 0001:000fc7a4       ??_G?$money_put@_WV?$ostreambuf_iterator@_WU?$char_traits@_W@std@@@std@@@std@@MEAAPEAXI@Z 00000001800fd7a4 f i libcpmt:wlocale.obj
 0001:000fc7a4       ??_G?$num_get@DV?$istreambuf_iterator@DU?$char_traits@D@std@@@std@@@std@@MEAAPEAXI@Z 00000001800fd7a4 f i libcpmt:locale.obj
 0001:000fc7a4       ??_G?$num_get@GV?$istreambuf_iterator@GU?$char_traits@G@std@@@std@@@std@@MEAAPEAXI@Z 00000001800fd7a4 f i libcpmt:wlocale.obj
 0001:000fc7a4       ??_G?$num_get@_WV?$istreambuf_iterator@_WU?$char_traits@_W@std@@@std@@@std@@MEAAPEAXI@Z 00000001800fd7a4 f i libcpmt:wlocale.obj
 0001:000fc7a4       ??_G?$num_put@DV?$ostreambuf_iterator@DU?$char_traits@D@std@@@std@@@std@@MEAAPEAXI@Z 00000001800fd7a4 f i libcpmt:locale.obj
 0001:000fc7a4       ??_G?$num_put@GV?$ostreambuf_iterator@GU?$char_traits@G@std@@@std@@@std@@MEAAPEAXI@Z 00000001800fd7a4 f i libcpmt:wlocale.obj
 0001:000fc7a4       ??_G?$num_put@_WV?$ostreambuf_iterator@_WU?$char_traits@_W@std@@@std@@@std@@MEAAPEAXI@Z 00000001800fd7a4 f i libcpmt:wlocale.obj
 0001:000fc7d0       ??_E?$numpunct@D@std@@MEAAPEAXI@Z 00000001800fd7d0 f i libcpmt:locale.obj
 0001:000fc7d0       ??_G?$numpunct@D@std@@MEAAPEAXI@Z 00000001800fd7d0 f i libcpmt:locale.obj
 0001:000fc830       ?_Eos@?$basic_string@DU?$char_traits@D@std@@V?$allocator@D@2@@std@@AEAAX_K@Z 00000001800fd830 f i libcpmt:locale.obj
 0001:000fc8c4       ?_Ffmt@?$num_put@DV?$ostreambuf_iterator@DU?$char_traits@D@std@@@std@@@std@@AEBAPEADPEADDH@Z 00000001800fd8c4 f i libcpmt:locale.obj
 0001:000fc8c4       ?_Ffmt@?$num_put@GV?$ostreambuf_iterator@GU?$char_traits@G@std@@@std@@@std@@AEBAPEADPEADDH@Z 00000001800fd8c4 f i libcpmt:wlocale.obj
 0001:000fc8c4       ?_Ffmt@?$num_put@_WV?$ostreambuf_iterator@_WU?$char_traits@_W@std@@@std@@@std@@AEBAPEADPEADDH@Z 00000001800fd8c4 f i libcpmt:wlocale.obj
 0001:000fc958       ?_Getcat@?$num_get@DV?$istreambuf_iterator@DU?$char_traits@D@std@@@std@@@std@@SA_KPEAPEBVfacet@locale@2@PEBV42@@Z 00000001800fd958 f i libcpmt:locale.obj
 0001:000fca14       ?_Getcat@?$num_put@DV?$ostreambuf_iterator@DU?$char_traits@D@std@@@std@@@std@@SA_KPEAPEBVfacet@locale@2@PEBV42@@Z 00000001800fda14 f i libcpmt:locale.obj
 0001:000fcad0       ?_Getcat@?$numpunct@D@std@@SA_KPEAPEBVfacet@locale@2@PEBV42@@Z 00000001800fdad0 f i libcpmt:locale.obj
 0001:000fcb98       ?_Inc@?$istreambuf_iterator@DU?$char_traits@D@std@@@std@@AEAAXXZ 00000001800fdb98 f i libcpmt:locale.obj
 0001:000fcbfc       ?_Init@?$numpunct@D@std@@IEAAXAEBV_Locinfo@2@_N@Z 00000001800fdbfc f i libcpmt:locale.obj
 0001:000fccdc       ?_Iput@?$num_put@DV?$ostreambuf_iterator@DU?$char_traits@D@std@@@std@@@std@@AEBA?AV?$ostreambuf_iterator@DU?$char_traits@D@std@@@2@V32@AEAVios_base@2@DPEAD_K@Z 00000001800fdcdc f i libcpmt:locale.obj
 0001:000fd10c       ?_Locimp_Addfac@_Locimp@locale@std@@CAXPEAV123@PEAVfacet@23@_K@Z 00000001800fe10c f   libcpmt:locale.obj
 0001:000fd200       ?_Locimp_ctor@_Locimp@locale@std@@CAXPEAV123@AEBV123@@Z 00000001800fe200 f   libcpmt:locale.obj
 0001:000fd2d8       ?_Makeloc@_Locimp@locale@std@@CAPEAV123@AEBV_Locinfo@3@HPEAV123@PEBV23@@Z 00000001800fe2d8 f   libcpmt:locale.obj
 0001:000fd7c8       ?do_decimal_point@?$_Mpunct@D@std@@MEBADXZ 00000001800fe7c8 f i libcpmt:xlocale.obj
 0001:000fd7c8       ?do_decimal_point@?$numpunct@D@std@@MEBADXZ 00000001800fe7c8 f i libcpmt:locale.obj
 0001:000fd7cc       ?do_curr_symbol@?$_Mpunct@D@std@@MEBA?AV?$basic_string@DU?$char_traits@D@std@@V?$allocator@D@2@@2@XZ 00000001800fe7cc f i libcpmt:xlocale.obj
 0001:000fd7cc       ?do_falsename@?$numpunct@D@std@@MEBA?AV?$basic_string@DU?$char_traits@D@std@@V?$allocator@D@2@@2@XZ 00000001800fe7cc f i libcpmt:locale.obj
 0001:000fd808       ?do_get@?$num_get@DV?$istreambuf_iterator@DU?$char_traits@D@std@@@std@@@std@@MEBA?AV?$istreambuf_iterator@DU?$char_traits@D@std@@@2@V32@0AEAVios_base@2@AEAHAEAG@Z 00000001800fe808 f i libcpmt:locale.obj
 0001:000fd974       ?do_get@?$num_get@DV?$istreambuf_iterator@DU?$char_traits@D@std@@@std@@@std@@MEBA?AV?$istreambuf_iterator@DU?$char_traits@D@std@@@2@V32@0AEAVios_base@2@AEAHAEAI@Z 00000001800fe974 f i libcpmt:locale.obj
 0001:000fd9f4       ?do_get@?$num_get@DV?$istreambuf_iterator@DU?$char_traits@D@std@@@std@@@std@@MEBA?AV?$istreambuf_iterator@DU?$char_traits@D@std@@@2@V32@0AEAVios_base@2@AEAHAEAJ@Z 00000001800fe9f4 f i libcpmt:locale.obj
 0001:000fdb14       ?do_get@?$num_get@DV?$istreambuf_iterator@DU?$char_traits@D@std@@@std@@@std@@MEBA?AV?$istreambuf_iterator@DU?$char_traits@D@std@@@2@V32@0AEAVios_base@2@AEAHAEAK@Z 00000001800feb14 f i libcpmt:locale.obj
 0001:000fdc34       ?do_get@?$num_get@DV?$istreambuf_iterator@DU?$char_traits@D@std@@@std@@@std@@MEBA?AV?$istreambuf_iterator@DU?$char_traits@D@std@@@2@V32@0AEAVios_base@2@AEAHAEAM@Z 00000001800fec34 f i libcpmt:locale.obj
 0001:000fdd7c       ?do_get@?$num_get@DV?$istreambuf_iterator@DU?$char_traits@D@std@@@std@@@std@@MEBA?AV?$istreambuf_iterator@DU?$char_traits@D@std@@@2@V32@0AEAVios_base@2@AEAHAEAN@Z 00000001800fed7c f i libcpmt:locale.obj
 0001:000fdec4       ?do_get@?$num_get@DV?$istreambuf_iterator@DU?$char_traits@D@std@@@std@@@std@@MEBA?AV?$istreambuf_iterator@DU?$char_traits@D@std@@@2@V32@0AEAVios_base@2@AEAHAEAO@Z 00000001800feec4 f i libcpmt:locale.obj
 0001:000fdf48       ?do_get@?$num_get@DV?$istreambuf_iterator@DU?$char_traits@D@std@@@std@@@std@@MEBA?AV?$istreambuf_iterator@DU?$char_traits@D@std@@@2@V32@0AEAVios_base@2@AEAHAEAPEAX@Z 00000001800fef48 f i libcpmt:locale.obj
 0001:000fe090       ?do_get@?$num_get@DV?$istreambuf_iterator@DU?$char_traits@D@std@@@std@@@std@@MEBA?AV?$istreambuf_iterator@DU?$char_traits@D@std@@@2@V32@0AEAVios_base@2@AEAHAEA_J@Z 00000001800ff090 f i libcpmt:locale.obj
 0001:000fe1b0       ?do_get@?$num_get@DV?$istreambuf_iterator@DU?$char_traits@D@std@@@std@@@std@@MEBA?AV?$istreambuf_iterator@DU?$char_traits@D@std@@@2@V32@0AEAVios_base@2@AEAHAEA_K@Z 00000001800ff1b0 f i libcpmt:locale.obj
 0001:000fe2d0       ?do_get@?$num_get@DV?$istreambuf_iterator@DU?$char_traits@D@std@@@std@@@std@@MEBA?AV?$istreambuf_iterator@DU?$char_traits@D@std@@@2@V32@0AEAVios_base@2@AEAHAEA_N@Z 00000001800ff2d0 f i libcpmt:locale.obj
 0001:000fe5e0       ?do_grouping@?$_Mpunct@D@std@@MEBA?AV?$basic_string@DU?$char_traits@D@std@@V?$allocator@D@2@@2@XZ 00000001800ff5e0 f i libcpmt:xlocale.obj
 0001:000fe5e0       ?do_grouping@?$_Mpunct@G@std@@MEBA?AV?$basic_string@DU?$char_traits@D@std@@V?$allocator@D@2@@2@XZ 00000001800ff5e0 f i libcpmt:wlocale.obj
 0001:000fe5e0       ?do_grouping@?$_Mpunct@_W@std@@MEBA?AV?$basic_string@DU?$char_traits@D@std@@V?$allocator@D@2@@2@XZ 00000001800ff5e0 f i libcpmt:wlocale.obj
 0001:000fe5e0       ?do_grouping@?$numpunct@D@std@@MEBA?AV?$basic_string@DU?$char_traits@D@std@@V?$allocator@D@2@@2@XZ 00000001800ff5e0 f i libcpmt:locale.obj
 0001:000fe5e0       ?do_grouping@?$numpunct@G@std@@MEBA?AV?$basic_string@DU?$char_traits@D@std@@V?$allocator@D@2@@2@XZ 00000001800ff5e0 f i libcpmt:wlocale.obj
 0001:000fe5e0       ?do_grouping@?$numpunct@_W@std@@MEBA?AV?$basic_string@DU?$char_traits@D@std@@V?$allocator@D@2@@2@XZ 00000001800ff5e0 f i libcpmt:wlocale.obj
 0001:000fe61c       ?do_put@?$num_put@DV?$ostreambuf_iterator@DU?$char_traits@D@std@@@std@@@std@@MEBA?AV?$ostreambuf_iterator@DU?$char_traits@D@std@@@2@V32@AEAVios_base@2@DJ@Z 00000001800ff61c f i libcpmt:locale.obj
 0001:000fe728       ?do_put@?$num_put@DV?$ostreambuf_iterator@DU?$char_traits@D@std@@@std@@@std@@MEBA?AV?$ostreambuf_iterator@DU?$char_traits@D@std@@@2@V32@AEAVios_base@2@DK@Z 00000001800ff728 f i libcpmt:locale.obj
 0001:000fe834       ?do_put@?$num_put@DV?$ostreambuf_iterator@DU?$char_traits@D@std@@@std@@@std@@MEBA?AV?$ostreambuf_iterator@DU?$char_traits@D@std@@@2@V32@AEAVios_base@2@DN@Z 00000001800ff834 f i libcpmt:locale.obj
 0001:000fead4       ?do_put@?$num_put@DV?$ostreambuf_iterator@DU?$char_traits@D@std@@@std@@@std@@MEBA?AV?$ostreambuf_iterator@DU?$char_traits@D@std@@@2@V32@AEAVios_base@2@DO@Z 00000001800ffad4 f i libcpmt:locale.obj
 0001:000fed74       ?do_put@?$num_put@DV?$ostreambuf_iterator@DU?$char_traits@D@std@@@std@@@std@@MEBA?AV?$ostreambuf_iterator@DU?$char_traits@D@std@@@2@V32@AEAVios_base@2@DPEBX@Z 00000001800ffd74 f i libcpmt:locale.obj
 0001:000fee20       ?do_put@?$num_put@DV?$ostreambuf_iterator@DU?$char_traits@D@std@@@std@@@std@@MEBA?AV?$ostreambuf_iterator@DU?$char_traits@D@std@@@2@V32@AEAVios_base@2@D_J@Z 00000001800ffe20 f i libcpmt:locale.obj
 0001:000fef38       ?do_put@?$num_put@DV?$ostreambuf_iterator@DU?$char_traits@D@std@@@std@@@std@@MEBA?AV?$ostreambuf_iterator@DU?$char_traits@D@std@@@2@V32@AEAVios_base@2@D_K@Z 00000001800fff38 f i libcpmt:locale.obj
 0001:000ff050       ?do_put@?$num_put@DV?$ostreambuf_iterator@DU?$char_traits@D@std@@@std@@@std@@MEBA?AV?$ostreambuf_iterator@DU?$char_traits@D@std@@@2@V32@AEAVios_base@2@D_N@Z 0000000180100050 f i libcpmt:locale.obj
 0001:000ff2dc       ?do_thousands_sep@?$_Mpunct@D@std@@MEBADXZ 00000001801002dc f i libcpmt:xlocale.obj
 0001:000ff2dc       ?do_thousands_sep@?$numpunct@D@std@@MEBADXZ 00000001801002dc f i libcpmt:locale.obj
 0001:000ff2e0       ?do_positive_sign@?$_Mpunct@D@std@@MEBA?AV?$basic_string@DU?$char_traits@D@std@@V?$allocator@D@2@@2@XZ 00000001801002e0 f i libcpmt:xlocale.obj
 0001:000ff2e0       ?do_truename@?$numpunct@D@std@@MEBA?AV?$basic_string@DU?$char_traits@D@std@@V?$allocator@D@2@@2@XZ 00000001801002e0 f i libcpmt:locale.obj
 0001:000ff31c       ?equal@?$istreambuf_iterator@DU?$char_traits@D@std@@@std@@QEBA_NAEBV12@@Z 000000018010031c f i libcpmt:locale.obj
 0001:000ff3ec       ?insert@?$basic_string@DU?$char_traits@D@std@@V?$allocator@D@2@@std@@QEAAAEAV12@_K0D@Z 00000001801003ec f i libcpmt:locale.obj
 0001:000ff4f8       ?push_back@?$basic_string@DU?$char_traits@D@std@@V?$allocator@D@2@@std@@QEAAXD@Z 00000001801004f8 f i libcpmt:locale.obj
 0001:000ff5b4       sprintf_s                  00000001801005b4 f i libcpmt:locale.obj
 0001:000ff608       __std_system_error_allocate_message 0000000180100608 f   libcpmt:syserror_import_lib.obj
 0001:000ff6a0       __std_system_error_deallocate_message 00000001801006a0 f   libcpmt:syserror_import_lib.obj
 0001:000ff6a8       ?uncaught_exception@std@@YA_NXZ 00000001801006a8 f   libcpmt:uncaught_exception.obj
 0001:000ff6b0       ?_Syserror_map@std@@YAPEBDH@Z 00000001801006b0 f   libcpmt:syserror.obj
 0001:000ff6d8       ?_Winerror_map@std@@YAHH@Z 00000001801006d8 f   libcpmt:syserror.obj
 0001:000ff6fc       _Getctype                  00000001801006fc f   libcpmt:_tolower.obj
 0001:000ff7bc       _Tolower                   00000001801007bc f   libcpmt:_tolower.obj
 0001:000ff8f0       _Getcvt                    00000001801008f0 f   libcpmt:xwctomb.obj
 0001:000ff988       _Wcrtomb                   0000000180100988 f   libcpmt:xwctomb.obj
 0001:000ffa04       _Mbrtowc                   0000000180100a04 f   libcpmt:xmbtowc.obj
 0001:000ffba0       _Toupper                   0000000180100ba0 f   libcpmt:_toupper.obj
 0001:000ffce4       _Getwctype                 0000000180100ce4 f   libcpmt:xgetwctype.obj
 0001:000ffd14       _Getwctypes                0000000180100d14 f   libcpmt:xgetwctype.obj
 0001:000ffd40       _Towlower                  0000000180100d40 f   libcpmt:xtowlower.obj
 0001:000ffdb4       _Towupper                  0000000180100db4 f   libcpmt:xtowupper.obj
 0001:000ffe30       ?_Addstd@ios_base@std@@SAXPEAV12@@Z 0000000180100e30 f   libcpmt:ios.obj
 0001:000ffea8       ?_Ios_base_dtor@ios_base@std@@CAXPEAV12@@Z 0000000180100ea8 f   libcpmt:ios.obj
 0001:000fff20       ?_Tidy@ios_base@std@@AEAAXXZ 0000000180100f20 f i libcpmt:ios.obj
 0001:000fffa0       ?_Fiopen@std@@YAPEAU_iobuf@@PEB_WHH@Z 0000000180100fa0 f   libcpmt:fiopen.obj
 0001:00100058       __std_fs_code_page         0000000180101058 f   libcpmt:filesystem.obj
 0001:00100080       __std_fs_convert_narrow_to_wide 0000000180101080 f   libcpmt:filesystem.obj
 0001:001000c8       __std_fs_convert_wide_to_narrow_replace_chars 00000001801010c8 f   libcpmt:filesystem.obj
 0001:00100194       __std_fs_create_directory  0000000180101194 f   libcpmt:filesystem.obj
 0001:0010020c       __std_fs_get_stats         000000018010120c f   libcpmt:filesystem.obj
 0001:0010053c       __std_fs_open_handle       000000018010153c f   libcpmt:filesystem.obj
 0001:00100594       _Cnd_do_broadcast_at_thread_exit 0000000180101594 f   libcpmt:xnotify.obj
 0001:001006a4       __crtGetSystemTimePreciseAsFileTime 00000001801016a4 f   libcpmt:winapisupp.obj
 0001:001006c0       _Cnd_broadcast             00000001801016c0 f   libcpmt:cond.obj
 0001:001006d8       _Mtxdst                    00000001801016d8 f   libcpmt:xmtx.obj
 0001:001006e0       _Mtxinit                   00000001801016e0 f   libcpmt:xmtx.obj
 0001:001006f0       _Mtxlock                   00000001801016f0 f   libcpmt:xmtx.obj
 0001:001006f8       _Mtxunlock                 00000001801016f8 f   libcpmt:xmtx.obj
 0001:00100700       ?_Atexit@@YAXP6AXXZ@Z      0000000180101700 f   libcpmt:iosptrs.obj
 0001:00100740       __std_find_trivial_1       0000000180101740 f   libcpmt:vector_algorithms.obj
 0001:00100810       __std_find_trivial_2       0000000180101810 f   libcpmt:vector_algorithms.obj
 0001:001008e0       __std_reverse_trivially_swappable_1 00000001801018e0 f   libcpmt:vector_algorithms.obj
 0001:001009d0       ??$_Construct@$00PEBG@?$basic_string@GU?$char_traits@G@std@@V?$allocator@G@2@@std@@AEAAXQEBG_K@Z 00000001801019d0 f i libcpmt:wlocale.obj
 0001:00100b2c       ??$_Construct@$01PEBG@?$basic_string@GU?$char_traits@G@std@@V?$allocator@G@2@@std@@AEAAXQEBG_K@Z 0000000180101b2c f i libcpmt:wlocale.obj
 0001:00100b2c       ??$_Construct@$01PEB_W@?$basic_string@_WU?$char_traits@_W@std@@V?$allocator@_W@2@@std@@AEAAXQEB_W_K@Z 0000000180101b2c f i libcpmt:wlocale.obj
 0001:00100c74       ??$_Construct@$0A@G@?$basic_string@GU?$char_traits@G@std@@V?$allocator@G@2@@std@@AEAAXG_K@Z 0000000180101c74 f i libcpmt:wlocale.obj
 0001:00100c74       ??$_Construct@$0A@_W@?$basic_string@_WU?$char_traits@_W@std@@V?$allocator@_W@2@@std@@AEAAX_W_K@Z 0000000180101c74 f i libcpmt:wlocale.obj
 0001:00100dd4       ??$_Copy_unchecked@PEA_WPEA_WV?$ostreambuf_iterator@GU?$char_traits@G@std@@@std@@@std@@YA?AV?$ostreambuf_iterator@GU?$char_traits@G@std@@@0@PEA_W0V10@@Z 0000000180101dd4 f i libcpmt:wlocale.obj
 0001:00100dd4       ??$_Copy_unchecked@PEA_WPEA_WV?$ostreambuf_iterator@_WU?$char_traits@_W@std@@@std@@@std@@YA?AV?$ostreambuf_iterator@_WU?$char_traits@_W@std@@@0@PEA_W0V10@@Z 0000000180101dd4 f i libcpmt:wlocale.obj
 0001:00100e8c       ??$_Fput_v3@$0A@@?$num_put@GV?$ostreambuf_iterator@GU?$char_traits@G@std@@@std@@@std@@AEBA?AV?$ostreambuf_iterator@GU?$char_traits@G@std@@@1@V21@AEAVios_base@1@GPEBD_K_N@Z 0000000180101e8c f i libcpmt:wlocale.obj
 0001:0010132c       ??$_Fput_v3@$0A@@?$num_put@_WV?$ostreambuf_iterator@_WU?$char_traits@_W@std@@@std@@@std@@AEBA?AV?$ostreambuf_iterator@_WU?$char_traits@_W@std@@@1@V21@AEAVios_base@1@_WPEBD_K_N@Z 000000018010232c f i libcpmt:wlocale.obj
 0001:001017cc       ??$_Getint_v2@V?$istreambuf_iterator@GU?$char_traits@G@std@@@std@@G@std@@YAHAEAV?$istreambuf_iterator@GU?$char_traits@G@std@@@0@0HHAEAH1AEBV?$ctype@G@0@@Z 00000001801027cc f i libcpmt:wlocale.obj
 0001:001017cc       ??$_Getint_v2@V?$istreambuf_iterator@_WU?$char_traits@_W@std@@@std@@_W@std@@YAHAEAV?$istreambuf_iterator@_WU?$char_traits@_W@std@@@0@0HHAEAH1AEBV?$ctype@_W@0@@Z 00000001801027cc f i libcpmt:wlocale.obj
 0001:00101cf4       ??$_Getloctxt@V?$istreambuf_iterator@GU?$char_traits@G@std@@@std@@D@std@@YAHAEAV?$istreambuf_iterator@GU?$char_traits@G@std@@@0@0_KPEBDW4_Case_sensitive@0@@Z 0000000180102cf4 f i libcpmt:wlocale.obj
 0001:00101cf4       ??$_Getloctxt@V?$istreambuf_iterator@_WU?$char_traits@_W@std@@@std@@D@std@@YAHAEAV?$istreambuf_iterator@_WU?$char_traits@_W@std@@@0@0_KPEBDW4_Case_sensitive@0@@Z 0000000180102cf4 f i libcpmt:wlocale.obj
 0001:00101fcc       ??$_Getloctxt@V?$istreambuf_iterator@GU?$char_traits@G@std@@@std@@G@std@@YAHAEAV?$istreambuf_iterator@GU?$char_traits@G@std@@@0@0_KPEBGW4_Case_sensitive@0@@Z 0000000180102fcc f i libcpmt:wlocale.obj
 0001:001022c8       ??$_Getloctxt@V?$istreambuf_iterator@_WU?$char_traits@_W@std@@@std@@_W@std@@YAHAEAV?$istreambuf_iterator@_WU?$char_traits@_W@std@@@0@0_KPEB_WW4_Case_sensitive@0@@Z 00000001801032c8 f i libcpmt:wlocale.obj
 0001:001025c4       ??$_Getvals@G@?$_Mpunct@G@std@@IEAAXGPEBUlconv@@@Z 00000001801035c4 f i libcpmt:wlocale.obj
 0001:001026b4       ??$_Getvals@G@?$numpunct@G@std@@IEAAXGPEBUlconv@@U_Cvtvec@@@Z 00000001801036b4 f i libcpmt:wlocale.obj
 0001:00102740       ??$_Getvals@G@?$time_get@GV?$istreambuf_iterator@GU?$char_traits@G@std@@@std@@@std@@IEAAXGAEBV_Locinfo@1@@Z 0000000180103740 f i libcpmt:wlocale.obj
 0001:00102840       ??$_Getvals@_W@?$time_get@_WV?$istreambuf_iterator@_WU?$char_traits@_W@std@@@std@@@std@@IEAAX_WAEBV_Locinfo@1@@Z 0000000180103840 f i libcpmt:wlocale.obj
 0001:00102920       ??$_Hash_array_representation@G@std@@YA_KQEBG_K@Z 0000000180103920 f i libcpmt:wlocale.obj
 0001:00102920       ??$_Hash_array_representation@_W@std@@YA_KQEB_W_K@Z 0000000180103920 f i libcpmt:wlocale.obj
 0001:00102958       ??$_LStrcoll@G@std@@YAHPEBG000PEBU_Collvec@@@Z 0000000180103958 f i libcpmt:wlocale.obj
 0001:00102994       ??$_LStrxfrm@G@std@@YA_KPEAG0PEBG1PEBU_Collvec@@@Z 0000000180103994 f i libcpmt:wlocale.obj
 0001:001029c8       ??$_Maklocstr@G@std@@YAPEAGPEBDPEAGAEBU_Cvtvec@@@Z 00000001801039c8 f i libcpmt:wlocale.obj
 0001:001029c8       ??$_Maklocstr@_W@std@@YAPEA_WPEBDPEA_WAEBU_Cvtvec@@@Z 00000001801039c8 f i libcpmt:wlocale.obj
 0001:00102aac       ??$_Parse_fp_with_locale@$0A@@?$num_get@GV?$istreambuf_iterator@GU?$char_traits@G@std@@@std@@@std@@CA?AU_Num_get_parse_result@1@QEADHAEAV?$istreambuf_iterator@GU?$char_traits@G@std@@@1@1AEBVlocale@1@@Z 0000000180103aac f i libcpmt:wlocale.obj
 0001:001041e0       ??$_Parse_fp_with_locale@$0A@@?$num_get@_WV?$istreambuf_iterator@_WU?$char_traits@_W@std@@@std@@@std@@CA?AU_Num_get_parse_result@1@QEADHAEAV?$istreambuf_iterator@_WU?$char_traits@_W@std@@@1@1AEBVlocale@1@@Z 00000001801051e0 f i libcpmt:wlocale.obj
 0001:00105914       ??$_Parse_int_with_locale@$0A@@?$num_get@GV?$istreambuf_iterator@GU?$char_traits@G@std@@@std@@@std@@CA?AU_Num_get_parse_result@1@QEADAEAV?$istreambuf_iterator@GU?$char_traits@G@std@@@1@1HAEBVlocale@1@@Z 0000000180106914 f i libcpmt:wlocale.obj
 0001:00106388       ??$_Parse_int_with_locale@$0A@@?$num_get@_WV?$istreambuf_iterator@_WU?$char_traits@_W@std@@@std@@@std@@CA?AU_Num_get_parse_result@1@QEADAEAV?$istreambuf_iterator@_WU?$char_traits@_W@std@@@1@1HAEBVlocale@1@@Z 0000000180107388 f i libcpmt:wlocale.obj
 0001:00106dfc       ??$_Reallocate_grow_by@V<lambda_1>@?1??append@?$basic_string@GU?$char_traits@G@std@@V?$allocator@G@2@@std@@QEAAAEAV34@QEBG_K@Z@PEBG_K@?$basic_string@GU?$char_traits@G@std@@V?$allocator@G@2@@std@@AEAAAEAV01@_KV<lambda_1>@?1??append@01@QEAAAEAV01@QEBG0@Z@PEBG_K@Z 0000000180107dfc f i libcpmt:wlocale.obj
 0001:00107040       ??$_Reallocate_grow_by@V<lambda_1>@?1??append@?$basic_string@GU?$char_traits@G@std@@V?$allocator@G@2@@std@@QEAAAEAV34@_KG@Z@_KG@?$basic_string@GU?$char_traits@G@std@@V?$allocator@G@2@@std@@AEAAAEAV01@_KV<lambda_1>@?1??append@01@QEAAAEAV01@0G@Z@_KG@Z 0000000180108040 f i libcpmt:wlocale.obj
 0001:00107040       ??$_Reallocate_grow_by@V<lambda_1>@?1??append@?$basic_string@_WU?$char_traits@_W@std@@V?$allocator@_W@2@@std@@QEAAAEAV34@_K_W@Z@_K_W@?$basic_string@_WU?$char_traits@_W@std@@V?$allocator@_W@2@@std@@AEAAAEAV01@_KV<lambda_1>@?1??append@01@QEAAAEAV01@0_W@Z@_K_W@Z 0000000180108040 f i libcpmt:wlocale.obj
 0001:0010727c       ??$_Reallocate_grow_by@V<lambda_1>@?1??insert@?$basic_string@GU?$char_traits@G@std@@V?$allocator@G@2@@std@@QEAAAEAV34@_K0G@Z@_K_KG@?$basic_string@GU?$char_traits@G@std@@V?$allocator@G@2@@std@@AEAAAEAV01@_KV<lambda_1>@?1??insert@01@QEAAAEAV01@00G@Z@_K2G@Z 000000018010827c f i libcpmt:wlocale.obj
 0001:0010727c       ??$_Reallocate_grow_by@V<lambda_1>@?1??insert@?$basic_string@_WU?$char_traits@_W@std@@V?$allocator@_W@2@@std@@QEAAAEAV34@_K0_W@Z@_K_K_W@?$basic_string@_WU?$char_traits@_W@std@@V?$allocator@_W@2@@std@@AEAAAEAV01@_KV<lambda_1>@?1??insert@01@QEAAAEAV01@00_W@Z@_K3_W@Z 000000018010827c f i libcpmt:wlocale.obj
 0001:0010749c       ??$_Reallocate_grow_by@V<lambda_1>@?1??push_back@?$basic_string@GU?$char_traits@G@std@@V?$allocator@G@2@@std@@QEAAXG@Z@G@?$basic_string@GU?$char_traits@G@std@@V?$allocator@G@2@@std@@AEAAAEAV01@_KV<lambda_1>@?1??push_back@01@QEAAXG@Z@G@Z 000000018010849c f i libcpmt:wlocale.obj
 0001:0010749c       ??$_Reallocate_grow_by@V<lambda_1>@?1??push_back@?$basic_string@_WU?$char_traits@_W@std@@V?$allocator@_W@2@@std@@QEAAX_W@Z@_W@?$basic_string@_WU?$char_traits@_W@std@@V?$allocator@_W@2@@std@@AEAAAEAV01@_KV<lambda_1>@?1??push_back@01@QEAAX_W@Z@_W@Z 000000018010849c f i libcpmt:wlocale.obj
 0001:001076b0       ??$use_facet@V?$codecvt@GDU_Mbstatet@@@std@@@std@@YAAEBV?$codecvt@GDU_Mbstatet@@@0@AEBVlocale@0@@Z 00000001801086b0 f i libcpmt:wlocale.obj
 0001:001077c8       ??$use_facet@V?$codecvt@_WDU_Mbstatet@@@std@@@std@@YAAEBV?$codecvt@_WDU_Mbstatet@@@0@AEBVlocale@0@@Z 00000001801087c8 f i libcpmt:wlocale.obj
 0001:001078e0       ??$use_facet@V?$collate@G@std@@@std@@YAAEBV?$collate@G@0@AEBVlocale@0@@Z 00000001801088e0 f i libcpmt:wlocale.obj
 0001:001079f8       ??$use_facet@V?$collate@_W@std@@@std@@YAAEBV?$collate@_W@0@AEBVlocale@0@@Z 00000001801089f8 f i libcpmt:wlocale.obj
 0001:00107b10       ??$use_facet@V?$ctype@G@std@@@std@@YAAEBV?$ctype@G@0@AEBVlocale@0@@Z 0000000180108b10 f i libcpmt:wlocale.obj
 0001:00107c28       ??$use_facet@V?$messages@G@std@@@std@@YAAEBV?$messages@G@0@AEBVlocale@0@@Z 0000000180108c28 f i libcpmt:wlocale.obj
 0001:00107d40       ??$use_facet@V?$messages@_W@std@@@std@@YAAEBV?$messages@_W@0@AEBVlocale@0@@Z 0000000180108d40 f i libcpmt:wlocale.obj
 0001:00107e58       ??$use_facet@V?$money_get@GV?$istreambuf_iterator@GU?$char_traits@G@std@@@std@@@std@@@std@@YAAEBV?$money_get@GV?$istreambuf_iterator@GU?$char_traits@G@std@@@std@@@0@AEBVlocale@0@@Z 0000000180108e58 f i libcpmt:wlocale.obj
 0001:00107f70       ??$use_facet@V?$money_get@_WV?$istreambuf_iterator@_WU?$char_traits@_W@std@@@std@@@std@@@std@@YAAEBV?$money_get@_WV?$istreambuf_iterator@_WU?$char_traits@_W@std@@@std@@@0@AEBVlocale@0@@Z 0000000180108f70 f i libcpmt:wlocale.obj
 0001:00108088       ??$use_facet@V?$money_put@GV?$ostreambuf_iterator@GU?$char_traits@G@std@@@std@@@std@@@std@@YAAEBV?$money_put@GV?$ostreambuf_iterator@GU?$char_traits@G@std@@@std@@@0@AEBVlocale@0@@Z 0000000180109088 f i libcpmt:wlocale.obj
 0001:001081a0       ??$use_facet@V?$money_put@_WV?$ostreambuf_iterator@_WU?$char_traits@_W@std@@@std@@@std@@@std@@YAAEBV?$money_put@_WV?$ostreambuf_iterator@_WU?$char_traits@_W@std@@@std@@@0@AEBVlocale@0@@Z 00000001801091a0 f i libcpmt:wlocale.obj
 0001:001082b8       ??$use_facet@V?$moneypunct@G$00@std@@@std@@YAAEBV?$moneypunct@G$00@0@AEBVlocale@0@@Z 00000001801092b8 f i libcpmt:wlocale.obj
 0001:001083d0       ??$use_facet@V?$moneypunct@G$0A@@std@@@std@@YAAEBV?$moneypunct@G$0A@@0@AEBVlocale@0@@Z 00000001801093d0 f i libcpmt:wlocale.obj
 0001:001084e8       ??$use_facet@V?$moneypunct@_W$00@std@@@std@@YAAEBV?$moneypunct@_W$00@0@AEBVlocale@0@@Z 00000001801094e8 f i libcpmt:wlocale.obj
 0001:00108600       ??$use_facet@V?$moneypunct@_W$0A@@std@@@std@@YAAEBV?$moneypunct@_W$0A@@0@AEBVlocale@0@@Z 0000000180109600 f i libcpmt:wlocale.obj
 0001:00108718       ??$use_facet@V?$num_get@GV?$istreambuf_iterator@GU?$char_traits@G@std@@@std@@@std@@@std@@YAAEBV?$num_get@GV?$istreambuf_iterator@GU?$char_traits@G@std@@@std@@@0@AEBVlocale@0@@Z 0000000180109718 f i libcpmt:wlocale.obj
 0001:00108830       ??$use_facet@V?$num_get@_WV?$istreambuf_iterator@_WU?$char_traits@_W@std@@@std@@@std@@@std@@YAAEBV?$num_get@_WV?$istreambuf_iterator@_WU?$char_traits@_W@std@@@std@@@0@AEBVlocale@0@@Z 0000000180109830 f i libcpmt:wlocale.obj
 0001:00108948       ??$use_facet@V?$num_put@GV?$ostreambuf_iterator@GU?$char_traits@G@std@@@std@@@std@@@std@@YAAEBV?$num_put@GV?$ostreambuf_iterator@GU?$char_traits@G@std@@@std@@@0@AEBVlocale@0@@Z 0000000180109948 f i libcpmt:wlocale.obj
 0001:00108a60       ??$use_facet@V?$num_put@_WV?$ostreambuf_iterator@_WU?$char_traits@_W@std@@@std@@@std@@@std@@YAAEBV?$num_put@_WV?$ostreambuf_iterator@_WU?$char_traits@_W@std@@@std@@@0@AEBVlocale@0@@Z 0000000180109a60 f i libcpmt:wlocale.obj
 0001:00108b78       ??$use_facet@V?$numpunct@G@std@@@std@@YAAEBV?$numpunct@G@0@AEBVlocale@0@@Z 0000000180109b78 f i libcpmt:wlocale.obj
 0001:00108c90       ??$use_facet@V?$numpunct@_W@std@@@std@@YAAEBV?$numpunct@_W@0@AEBVlocale@0@@Z 0000000180109c90 f i libcpmt:wlocale.obj
 0001:00108da8       ??$use_facet@V?$time_get@GV?$istreambuf_iterator@GU?$char_traits@G@std@@@std@@@std@@@std@@YAAEBV?$time_get@GV?$istreambuf_iterator@GU?$char_traits@G@std@@@std@@@0@AEBVlocale@0@@Z 0000000180109da8 f i libcpmt:wlocale.obj
 0001:00108ec0       ??$use_facet@V?$time_get@_WV?$istreambuf_iterator@_WU?$char_traits@_W@std@@@std@@@std@@@std@@YAAEBV?$time_get@_WV?$istreambuf_iterator@_WU?$char_traits@_W@std@@@std@@@0@AEBVlocale@0@@Z 0000000180109ec0 f i libcpmt:wlocale.obj
 0001:00108fd8       ??$use_facet@V?$time_put@GV?$ostreambuf_iterator@GU?$char_traits@G@std@@@std@@@std@@@std@@YAAEBV?$time_put@GV?$ostreambuf_iterator@GU?$char_traits@G@std@@@std@@@0@AEBVlocale@0@@Z 0000000180109fd8 f i libcpmt:wlocale.obj
 0001:001090f0       ??$use_facet@V?$time_put@_WV?$ostreambuf_iterator@_WU?$char_traits@_W@std@@@std@@@std@@@std@@YAAEBV?$time_put@_WV?$ostreambuf_iterator@_WU?$char_traits@_W@std@@@std@@@0@AEBVlocale@0@@Z 000000018010a0f0 f i libcpmt:wlocale.obj
 0001:00109208       ??1?$_Tidy_guard@V?$_Mpunct@D@std@@@std@@QEAA@XZ 000000018010a208 f i libcpmt:xlocale.obj
 0001:00109208       ??1?$_Tidy_guard@V?$_Mpunct@G@std@@@std@@QEAA@XZ 000000018010a208 f i libcpmt:wlocale.obj
 0001:00109208       ??1?$_Tidy_guard@V?$_Mpunct@_W@std@@@std@@QEAA@XZ 000000018010a208 f i libcpmt:wlocale.obj
 0001:00109240       ??1?$_Tidy_guard@V?$time_get@DV?$istreambuf_iterator@DU?$char_traits@D@std@@@std@@@std@@@std@@QEAA@XZ 000000018010a240 f i libcpmt:xlocale.obj
 0001:00109240       ??1?$_Tidy_guard@V?$time_get@GV?$istreambuf_iterator@GU?$char_traits@G@std@@@std@@@std@@@std@@QEAA@XZ 000000018010a240 f i libcpmt:wlocale.obj
 0001:00109240       ??1?$_Tidy_guard@V?$time_get@_WV?$istreambuf_iterator@_WU?$char_traits@_W@std@@@std@@@std@@@std@@QEAA@XZ 000000018010a240 f i libcpmt:wlocale.obj
 0001:00109270       ??1?$basic_string@GU?$char_traits@G@std@@V?$allocator@G@2@@std@@QEAA@XZ 000000018010a270 f i libcpmt:wlocale.obj
 0001:00109278       ??4?$_Yarn@_W@std@@QEAAAEAV01@PEB_W@Z 000000018010a278 f i libcpmt:wlocale.obj
 0001:00109304       ??R<lambda_1>@?1??insert@?$basic_string@GU?$char_traits@G@std@@V?$allocator@G@2@@std@@QEAAAEAV23@_K0G@Z@QEBA@QEAGQEBG000G@Z 000000018010a304 f i libcpmt:wlocale.obj
 0001:00109304       ??R<lambda_1>@?1??insert@?$basic_string@_WU?$char_traits@_W@std@@V?$allocator@_W@2@@std@@QEAAAEAV23@_K0_W@Z@QEBA@QEA_WQEB_W0001@Z 000000018010a304 f i libcpmt:wlocale.obj
 0001:0010938c       ??_E?$_Mpunct@G@std@@MEAAPEAXI@Z 000000018010a38c f i libcpmt:wlocale.obj
 0001:0010938c       ??_E?$moneypunct@G$00@std@@MEAAPEAXI@Z 000000018010a38c f i libcpmt:wlocale.obj
 0001:0010938c       ??_E?$moneypunct@G$0A@@std@@MEAAPEAXI@Z 000000018010a38c f i libcpmt:wlocale.obj
 0001:0010938c       ??_G?$_Mpunct@G@std@@MEAAPEAXI@Z 000000018010a38c f i libcpmt:wlocale.obj
 0001:0010938c       ??_G?$moneypunct@G$00@std@@MEAAPEAXI@Z 000000018010a38c f i libcpmt:wlocale.obj
 0001:0010938c       ??_G?$moneypunct@G$0A@@std@@MEAAPEAXI@Z 000000018010a38c f i libcpmt:wlocale.obj
 0001:001093f4       ??_E?$_Mpunct@_W@std@@MEAAPEAXI@Z 000000018010a3f4 f i libcpmt:wlocale.obj
 0001:001093f4       ??_E?$moneypunct@_W$00@std@@MEAAPEAXI@Z 000000018010a3f4 f i libcpmt:wlocale.obj
 0001:001093f4       ??_E?$moneypunct@_W$0A@@std@@MEAAPEAXI@Z 000000018010a3f4 f i libcpmt:wlocale.obj
 0001:001093f4       ??_G?$_Mpunct@_W@std@@MEAAPEAXI@Z 000000018010a3f4 f i libcpmt:wlocale.obj
 0001:001093f4       ??_G?$moneypunct@_W$00@std@@MEAAPEAXI@Z 000000018010a3f4 f i libcpmt:wlocale.obj
 0001:001093f4       ??_G?$moneypunct@_W$0A@@std@@MEAAPEAXI@Z 000000018010a3f4 f i libcpmt:wlocale.obj
 0001:0010945c       ??_E?$codecvt@GDU_Mbstatet@@@std@@MEAAPEAXI@Z 000000018010a45c f i libcpmt:wlocale.obj
 0001:0010945c       ??_E?$codecvt@_WDU_Mbstatet@@@std@@MEAAPEAXI@Z 000000018010a45c f i libcpmt:wlocale.obj
 0001:0010945c       ??_G?$codecvt@GDU_Mbstatet@@@std@@MEAAPEAXI@Z 000000018010a45c f i libcpmt:wlocale.obj
 0001:0010945c       ??_G?$codecvt@_WDU_Mbstatet@@@std@@MEAAPEAXI@Z 000000018010a45c f i libcpmt:wlocale.obj
 0001:00109488       ??_E?$collate@G@std@@MEAAPEAXI@Z 000000018010a488 f i libcpmt:wlocale.obj
 0001:00109488       ??_G?$collate@G@std@@MEAAPEAXI@Z 000000018010a488 f i libcpmt:wlocale.obj
 0001:001094d4       ??_E?$collate@_W@std@@MEAAPEAXI@Z 000000018010a4d4 f i libcpmt:wlocale.obj
 0001:001094d4       ??_G?$collate@_W@std@@MEAAPEAXI@Z 000000018010a4d4 f i libcpmt:wlocale.obj
 0001:00109520       ??_E?$ctype@G@std@@MEAAPEAXI@Z 000000018010a520 f i libcpmt:wlocale.obj
 0001:00109520       ??_G?$ctype@G@std@@MEAAPEAXI@Z 000000018010a520 f i libcpmt:wlocale.obj
 0001:0010957c       ??_E?$numpunct@G@std@@MEAAPEAXI@Z 000000018010a57c f i libcpmt:wlocale.obj
 0001:0010957c       ??_G?$numpunct@G@std@@MEAAPEAXI@Z 000000018010a57c f i libcpmt:wlocale.obj
 0001:001095dc       ??_E?$numpunct@_W@std@@MEAAPEAXI@Z 000000018010a5dc f i libcpmt:wlocale.obj
 0001:001095dc       ??_G?$numpunct@_W@std@@MEAAPEAXI@Z 000000018010a5dc f i libcpmt:wlocale.obj
 0001:0010963c       ??_E?$time_get@GV?$istreambuf_iterator@GU?$char_traits@G@std@@@std@@@std@@MEAAPEAXI@Z 000000018010a63c f i libcpmt:wlocale.obj
 0001:0010963c       ??_G?$time_get@GV?$istreambuf_iterator@GU?$char_traits@G@std@@@std@@@std@@MEAAPEAXI@Z 000000018010a63c f i libcpmt:wlocale.obj
 0001:0010969c       ??_E?$time_get@_WV?$istreambuf_iterator@_WU?$char_traits@_W@std@@@std@@@std@@MEAAPEAXI@Z 000000018010a69c f i libcpmt:wlocale.obj
 0001:0010969c       ??_G?$time_get@_WV?$istreambuf_iterator@_WU?$char_traits@_W@std@@@std@@@std@@MEAAPEAXI@Z 000000018010a69c f i libcpmt:wlocale.obj
 0001:001096fc       ??_E?$time_put@GV?$ostreambuf_iterator@GU?$char_traits@G@std@@@std@@@std@@MEAAPEAXI@Z 000000018010a6fc f i libcpmt:wlocale.obj
 0001:001096fc       ??_G?$time_put@GV?$ostreambuf_iterator@GU?$char_traits@G@std@@@std@@@std@@MEAAPEAXI@Z 000000018010a6fc f i libcpmt:wlocale.obj
 0001:00109748       ??_E?$time_put@_WV?$ostreambuf_iterator@_WU?$char_traits@_W@std@@@std@@@std@@MEAAPEAXI@Z 000000018010a748 f i libcpmt:wlocale.obj
 0001:00109748       ??_G?$time_put@_WV?$ostreambuf_iterator@_WU?$char_traits@_W@std@@@std@@@std@@MEAAPEAXI@Z 000000018010a748 f i libcpmt:wlocale.obj
 0001:00109794       ?_Eos@?$basic_string@GU?$char_traits@G@std@@V?$allocator@G@2@@std@@AEAAX_K@Z 000000018010a794 f i libcpmt:wlocale.obj
 0001:00109794       ?_Eos@?$basic_string@_WU?$char_traits@_W@std@@V?$allocator@_W@2@@std@@AEAAX_K@Z 000000018010a794 f i libcpmt:wlocale.obj
 0001:00109838       ?_Getcat@?$codecvt@GDU_Mbstatet@@@std@@SA_KPEAPEBVfacet@locale@2@PEBV42@@Z 000000018010a838 f i libcpmt:wlocale.obj
 0001:00109924       ?_Getcat@?$codecvt@_WDU_Mbstatet@@@std@@SA_KPEAPEBVfacet@locale@2@PEBV42@@Z 000000018010a924 f i libcpmt:wlocale.obj
 0001:00109a10       ?_Getcat@?$collate@G@std@@SA_KPEAPEBVfacet@locale@2@PEBV42@@Z 000000018010aa10 f i libcpmt:wlocale.obj
 0001:00109b10       ?_Getcat@?$collate@_W@std@@SA_KPEAPEBVfacet@locale@2@PEBV42@@Z 000000018010ab10 f i libcpmt:wlocale.obj
 0001:00109c10       ?_Getcat@?$ctype@G@std@@SA_KPEAPEBVfacet@locale@2@PEBV42@@Z 000000018010ac10 f i libcpmt:wlocale.obj
 0001:00109d18       ?_Getcat@?$messages@G@std@@SA_KPEAPEBVfacet@locale@2@PEBV42@@Z 000000018010ad18 f i libcpmt:wlocale.obj
 0001:00109dd4       ?_Getcat@?$messages@_W@std@@SA_KPEAPEBVfacet@locale@2@PEBV42@@Z 000000018010add4 f i libcpmt:wlocale.obj
 0001:00109e90       ?_Getcat@?$money_get@GV?$istreambuf_iterator@GU?$char_traits@G@std@@@std@@@std@@SA_KPEAPEBVfacet@locale@2@PEBV42@@Z 000000018010ae90 f i libcpmt:wlocale.obj
 0001:00109f4c       ?_Getcat@?$money_get@_WV?$istreambuf_iterator@_WU?$char_traits@_W@std@@@std@@@std@@SA_KPEAPEBVfacet@locale@2@PEBV42@@Z 000000018010af4c f i libcpmt:wlocale.obj
 0001:0010a008       ?_Getcat@?$money_put@GV?$ostreambuf_iterator@GU?$char_traits@G@std@@@std@@@std@@SA_KPEAPEBVfacet@locale@2@PEBV42@@Z 000000018010b008 f i libcpmt:wlocale.obj
 0001:0010a0c4       ?_Getcat@?$money_put@_WV?$ostreambuf_iterator@_WU?$char_traits@_W@std@@@std@@@std@@SA_KPEAPEBVfacet@locale@2@PEBV42@@Z 000000018010b0c4 f i libcpmt:wlocale.obj
 0001:0010a180       ?_Getcat@?$moneypunct@G$00@std@@SA_KPEAPEBVfacet@locale@2@PEBV42@@Z 000000018010b180 f i libcpmt:wlocale.obj
 0001:0010a258       ?_Getcat@?$moneypunct@G$0A@@std@@SA_KPEAPEBVfacet@locale@2@PEBV42@@Z 000000018010b258 f i libcpmt:wlocale.obj
 0001:0010a330       ?_Getcat@?$moneypunct@_W$00@std@@SA_KPEAPEBVfacet@locale@2@PEBV42@@Z 000000018010b330 f i libcpmt:wlocale.obj
 0001:0010a408       ?_Getcat@?$moneypunct@_W$0A@@std@@SA_KPEAPEBVfacet@locale@2@PEBV42@@Z 000000018010b408 f i libcpmt:wlocale.obj
 0001:0010a4e0       ?_Getcat@?$num_get@GV?$istreambuf_iterator@GU?$char_traits@G@std@@@std@@@std@@SA_KPEAPEBVfacet@locale@2@PEBV42@@Z 000000018010b4e0 f i libcpmt:wlocale.obj
 0001:0010a59c       ?_Getcat@?$num_get@_WV?$istreambuf_iterator@_WU?$char_traits@_W@std@@@std@@@std@@SA_KPEAPEBVfacet@locale@2@PEBV42@@Z 000000018010b59c f i libcpmt:wlocale.obj
 0001:0010a658       ?_Getcat@?$num_put@GV?$ostreambuf_iterator@GU?$char_traits@G@std@@@std@@@std@@SA_KPEAPEBVfacet@locale@2@PEBV42@@Z 000000018010b658 f i libcpmt:wlocale.obj
 0001:0010a714       ?_Getcat@?$num_put@_WV?$ostreambuf_iterator@_WU?$char_traits@_W@std@@@std@@@std@@SA_KPEAPEBVfacet@locale@2@PEBV42@@Z 000000018010b714 f i libcpmt:wlocale.obj
 0001:0010a7d0       ?_Getcat@?$numpunct@G@std@@SA_KPEAPEBVfacet@locale@2@PEBV42@@Z 000000018010b7d0 f i libcpmt:wlocale.obj
 0001:0010a898       ?_Getcat@?$numpunct@_W@std@@SA_KPEAPEBVfacet@locale@2@PEBV42@@Z 000000018010b898 f i libcpmt:wlocale.obj
 0001:0010a960       ?_Getcat@?$time_get@GV?$istreambuf_iterator@GU?$char_traits@G@std@@@std@@@std@@SA_KPEAPEBVfacet@locale@2@PEBV42@@Z 000000018010b960 f i libcpmt:wlocale.obj
 0001:0010aa48       ?_Getcat@?$time_get@_WV?$istreambuf_iterator@_WU?$char_traits@_W@std@@@std@@@std@@SA_KPEAPEBVfacet@locale@2@PEBV42@@Z 000000018010ba48 f i libcpmt:wlocale.obj
 0001:0010ab30       ?_Getcat@?$time_put@GV?$ostreambuf_iterator@GU?$char_traits@G@std@@@std@@@std@@SA_KPEAPEBVfacet@locale@2@PEBV42@@Z 000000018010bb30 f i libcpmt:wlocale.obj
 0001:0010ac20       ?_Getcat@?$time_put@_WV?$ostreambuf_iterator@_WU?$char_traits@_W@std@@@std@@@std@@SA_KPEAPEBVfacet@locale@2@PEBV42@@Z 000000018010bc20 f i libcpmt:wlocale.obj
 0001:0010ad10       ?_Getfmt@?$time_get@GV?$istreambuf_iterator@GU?$char_traits@G@std@@@std@@@std@@IEBA?AV?$istreambuf_iterator@GU?$char_traits@G@std@@@2@V32@0AEAVios_base@2@AEAHPEAUtm@@PEBD@Z 000000018010bd10 f i libcpmt:wlocale.obj
 0001:0010b054       ?_Getfmt@?$time_get@_WV?$istreambuf_iterator@_WU?$char_traits@_W@std@@@std@@@std@@IEBA?AV?$istreambuf_iterator@_WU?$char_traits@_W@std@@@2@V32@0AEAVios_base@2@AEAHPEAUtm@@PEBD@Z 000000018010c054 f i libcpmt:wlocale.obj
 0001:0010b398       ?_Getmfld@?$money_get@GV?$istreambuf_iterator@GU?$char_traits@G@std@@@std@@@std@@AEBA?AV?$basic_string@DU?$char_traits@D@std@@V?$allocator@D@2@@2@AEAV?$istreambuf_iterator@GU?$char_traits@G@std@@@2@0_NAEAVios_base@2@AEAY0M@G@Z 000000018010c398 f i libcpmt:wlocale.obj
 0001:0010c6d8       ?_Getmfld@?$money_get@_WV?$istreambuf_iterator@_WU?$char_traits@_W@std@@@std@@@std@@AEBA?AV?$basic_string@DU?$char_traits@D@std@@V?$allocator@D@2@@2@AEAV?$istreambuf_iterator@_WU?$char_traits@_W@std@@@2@0_NAEAVios_base@2@AEAY0M@_W@Z 000000018010d6d8 f i libcpmt:wlocale.obj
 0001:0010da18       ?_Getvals@?$_Mpunct@_W@std@@IEAAX_WPEBUlconv@@@Z 000000018010ea18 f i libcpmt:wlocale.obj
 0001:0010daa0       ?_Inc@?$istreambuf_iterator@GU?$char_traits@G@std@@@std@@AEAAXXZ 000000018010eaa0 f i libcpmt:wlocale.obj
 0001:0010daa0       ?_Inc@?$istreambuf_iterator@_WU?$char_traits@_W@std@@@std@@AEAAXXZ 000000018010eaa0 f i libcpmt:wlocale.obj
 0001:0010db08       ?_Init@?$_Mpunct@G@std@@IEAAXAEBV_Locinfo@2@_N@Z 000000018010eb08 f i libcpmt:wlocale.obj
 0001:0010dc50       ?_Init@?$_Mpunct@_W@std@@IEAAXAEBV_Locinfo@2@_N@Z 000000018010ec50 f i libcpmt:wlocale.obj
 0001:0010dd98       ?_Init@?$numpunct@G@std@@IEAAXAEBV_Locinfo@2@_N@Z 000000018010ed98 f i libcpmt:wlocale.obj
 0001:0010df24       ?_Init@?$numpunct@_W@std@@IEAAXAEBV_Locinfo@2@_N@Z 000000018010ef24 f i libcpmt:wlocale.obj
 0001:0010e094       ?_Iput@?$num_put@GV?$ostreambuf_iterator@GU?$char_traits@G@std@@@std@@@std@@AEBA?AV?$ostreambuf_iterator@GU?$char_traits@G@std@@@2@V32@AEAVios_base@2@GPEAD_K@Z 000000018010f094 f i libcpmt:wlocale.obj
 0001:0010e4a0       ?_Iput@?$num_put@_WV?$ostreambuf_iterator@_WU?$char_traits@_W@std@@@std@@@std@@AEBA?AV?$ostreambuf_iterator@_WU?$char_traits@_W@std@@@2@V32@AEAVios_base@2@_WPEAD_K@Z 000000018010f4a0 f i libcpmt:wlocale.obj
 0001:0010e8ac       ?_Makeushloc@_Locimp@locale@std@@CAXAEBV_Locinfo@3@HPEAV123@PEBV23@@Z 000000018010f8ac f   libcpmt:wlocale.obj
 0001:0010f554       ?_Makewloc@_Locimp@locale@std@@CAXAEBV_Locinfo@3@HPEAV123@PEBV23@@Z 0000000180110554 f   libcpmt:wlocale.obj
 0001:001101fc       ?_Maklocwcs@std@@YAPEA_WPEB_W@Z 00000001801111fc f i libcpmt:wlocale.obj
 0001:00110268       ?_Put@?$money_put@GV?$ostreambuf_iterator@GU?$char_traits@G@std@@@std@@@std@@CA?AV?$ostreambuf_iterator@GU?$char_traits@G@std@@@2@V32@V?$_String_const_iterator@V?$_String_val@U?$_Simple_types@G@std@@@std@@@2@_K@Z 0000000180111268 f i libcpmt:wlocale.obj
 0001:00110268       ?_Put@?$money_put@_WV?$ostreambuf_iterator@_WU?$char_traits@_W@std@@@std@@@std@@CA?AV?$ostreambuf_iterator@_WU?$char_traits@_W@std@@@2@V32@V?$_String_const_iterator@V?$_String_val@U?$_Simple_types@_W@std@@@std@@@2@_K@Z 0000000180111268 f i libcpmt:wlocale.obj
 0001:00110320       ?_Put@?$num_put@GV?$ostreambuf_iterator@GU?$char_traits@G@std@@@std@@@std@@AEBA?AV?$ostreambuf_iterator@GU?$char_traits@G@std@@@2@V32@PEBG_K@Z 0000000180111320 f i libcpmt:wlocale.obj
 0001:00110320       ?_Put@?$num_put@_WV?$ostreambuf_iterator@_WU?$char_traits@_W@std@@@std@@@std@@AEBA?AV?$ostreambuf_iterator@_WU?$char_traits@_W@std@@@2@V32@PEB_W_K@Z 0000000180111320 f i libcpmt:wlocale.obj
 0001:001103d8       ?_Putmfld@?$money_put@GV?$ostreambuf_iterator@GU?$char_traits@G@std@@@std@@@std@@AEBA?AV?$ostreambuf_iterator@GU?$char_traits@G@std@@@2@V32@_NAEAVios_base@2@G1V?$basic_string@GU?$char_traits@G@std@@V?$allocator@G@2@@2@G@Z 00000001801113d8 f i libcpmt:wlocale.obj
 0001:00110d18       ?_Putmfld@?$money_put@_WV?$ostreambuf_iterator@_WU?$char_traits@_W@std@@@std@@@std@@AEBA?AV?$ostreambuf_iterator@_WU?$char_traits@_W@std@@@2@V32@_NAEAVios_base@2@_W1V?$basic_string@_WU?$char_traits@_W@std@@V?$allocator@_W@2@@2@3@Z 0000000180111d18 f i libcpmt:wlocale.obj
 0001:00111658       ?_Rep@?$money_put@GV?$ostreambuf_iterator@GU?$char_traits@G@std@@@std@@@std@@CA?AV?$ostreambuf_iterator@GU?$char_traits@G@std@@@2@V32@G_K@Z 0000000180112658 f i libcpmt:wlocale.obj
 0001:00111658       ?_Rep@?$money_put@_WV?$ostreambuf_iterator@_WU?$char_traits@_W@std@@@std@@@std@@CA?AV?$ostreambuf_iterator@_WU?$char_traits@_W@std@@@2@V32@_W_K@Z 0000000180112658 f i libcpmt:wlocale.obj
 0001:00111708       ?_Rep@?$num_put@GV?$ostreambuf_iterator@GU?$char_traits@G@std@@@std@@@std@@AEBA?AV?$ostreambuf_iterator@GU?$char_traits@G@std@@@2@V32@G_K@Z 0000000180112708 f i libcpmt:wlocale.obj
 0001:00111708       ?_Rep@?$num_put@_WV?$ostreambuf_iterator@_WU?$char_traits@_W@std@@@std@@@std@@AEBA?AV?$ostreambuf_iterator@_WU?$char_traits@_W@std@@@2@V32@_W_K@Z 0000000180112708 f i libcpmt:wlocale.obj
 0001:001117b8       ?_Take_contents@?$basic_string@GU?$char_traits@G@std@@V?$allocator@G@2@@std@@AEAAXAEAV12@@Z 00000001801127b8 f i libcpmt:wlocale.obj
 0001:001117b8       ?_Take_contents@?$basic_string@_WU?$char_traits@_W@std@@V?$allocator@_W@2@@std@@AEAAXAEAV12@@Z 00000001801127b8 f i libcpmt:wlocale.obj
 0001:00111824       ?_Tidy_deallocate@?$basic_string@GU?$char_traits@G@std@@V?$allocator@G@2@@std@@AEAAXXZ 0000000180112824 f i libcpmt:wlocale.obj
 0001:00111908       ?append@?$basic_string@GU?$char_traits@G@std@@V?$allocator@G@2@@std@@QEAAAEAV12@QEBG_K@Z 0000000180112908 f i libcpmt:wlocale.obj
 0001:001119f8       ?append@?$basic_string@GU?$char_traits@G@std@@V?$allocator@G@2@@std@@QEAAAEAV12@_KG@Z 00000001801129f8 f i libcpmt:wlocale.obj
 0001:001119f8       ?append@?$basic_string@_WU?$char_traits@_W@std@@V?$allocator@_W@2@@std@@QEAAAEAV12@_K_W@Z 00000001801129f8 f i libcpmt:wlocale.obj
 0001:00111ae8       ?do_compare@?$collate@G@std@@MEBAHPEBG000@Z 0000000180112ae8 f i libcpmt:wlocale.obj
 0001:00111b2c       ?do_compare@?$collate@_W@std@@MEBAHPEB_W000@Z 0000000180112b2c f i libcpmt:wlocale.obj
 0001:00111b70       ?do_curr_symbol@?$_Mpunct@G@std@@MEBA?AV?$basic_string@GU?$char_traits@G@std@@V?$allocator@G@2@@2@XZ 0000000180112b70 f i libcpmt:wlocale.obj
 0001:00111b70       ?do_falsename@?$numpunct@G@std@@MEBA?AV?$basic_string@GU?$char_traits@G@std@@V?$allocator@G@2@@2@XZ 0000000180112b70 f i libcpmt:wlocale.obj
 0001:00111bb8       ?do_curr_symbol@?$_Mpunct@_W@std@@MEBA?AV?$basic_string@_WU?$char_traits@_W@std@@V?$allocator@_W@2@@2@XZ 0000000180112bb8 f i libcpmt:wlocale.obj
 0001:00111bb8       ?do_falsename@?$numpunct@_W@std@@MEBA?AV?$basic_string@_WU?$char_traits@_W@std@@V?$allocator@_W@2@@2@XZ 0000000180112bb8 f i libcpmt:wlocale.obj
 0001:00111bf4       ?do_date_order@?$time_get@DV?$istreambuf_iterator@DU?$char_traits@D@std@@@std@@@std@@MEBA?AW4dateorder@time_base@2@XZ 0000000180112bf4 f i libcpmt:xlocale.obj
 0001:00111bf4       ?do_date_order@?$time_get@GV?$istreambuf_iterator@GU?$char_traits@G@std@@@std@@@std@@MEBA?AW4dateorder@time_base@2@XZ 0000000180112bf4 f i libcpmt:wlocale.obj
 0001:00111bf4       ?do_date_order@?$time_get@_WV?$istreambuf_iterator@_WU?$char_traits@_W@std@@@std@@@std@@MEBA?AW4dateorder@time_base@2@XZ 0000000180112bf4 f i libcpmt:wlocale.obj
 0001:00111bf8       ?do_decimal_point@?$_Mpunct@G@std@@MEBAGXZ 0000000180112bf8 f i libcpmt:wlocale.obj
 0001:00111bf8       ?do_decimal_point@?$_Mpunct@_W@std@@MEBA_WXZ 0000000180112bf8 f i libcpmt:wlocale.obj
 0001:00111bf8       ?do_decimal_point@?$numpunct@G@std@@MEBAGXZ 0000000180112bf8 f i libcpmt:wlocale.obj
 0001:00111bf8       ?do_decimal_point@?$numpunct@_W@std@@MEBA_WXZ 0000000180112bf8 f i libcpmt:wlocale.obj
 0001:00111c00       ?do_encoding@?$codecvt@GDU_Mbstatet@@@std@@MEBAHXZ 0000000180112c00 f i libcpmt:wlocale.obj
 0001:00111c00       ?do_encoding@?$codecvt@_WDU_Mbstatet@@@std@@MEBAHXZ 0000000180112c00 f i libcpmt:wlocale.obj
 0001:00111c0c       ?do_frac_digits@?$_Mpunct@D@std@@MEBAHXZ 0000000180112c0c f i libcpmt:xlocale.obj
 0001:00111c0c       ?do_frac_digits@?$_Mpunct@G@std@@MEBAHXZ 0000000180112c0c f i libcpmt:wlocale.obj
 0001:00111c0c       ?do_frac_digits@?$_Mpunct@_W@std@@MEBAHXZ 0000000180112c0c f i libcpmt:wlocale.obj
 0001:00111c10       ?do_get@?$messages@G@std@@MEBA?AV?$basic_string@GU?$char_traits@G@std@@V?$allocator@G@2@@2@HHHAEBV32@@Z 0000000180112c10 f i libcpmt:wlocale.obj
 0001:00111c10       ?do_get@?$messages@_W@std@@MEBA?AV?$basic_string@_WU?$char_traits@_W@std@@V?$allocator@_W@2@@2@HHHAEBV32@@Z 0000000180112c10 f i libcpmt:wlocale.obj
 0001:00111c50       ?do_get@?$money_get@GV?$istreambuf_iterator@GU?$char_traits@G@std@@@std@@@std@@MEBA?AV?$istreambuf_iterator@GU?$char_traits@G@std@@@2@V32@0_NAEAVios_base@2@AEAHAEAO@Z 0000000180112c50 f i libcpmt:wlocale.obj
 0001:00111d54       ?do_get@?$money_get@GV?$istreambuf_iterator@GU?$char_traits@G@std@@@std@@@std@@MEBA?AV?$istreambuf_iterator@GU?$char_traits@G@std@@@2@V32@0_NAEAVios_base@2@AEAHAEAV?$basic_string@GU?$char_traits@G@std@@V?$allocator@G@2@@2@@Z 0000000180112d54 f i libcpmt:wlocale.obj
 0001:00111e84       ?do_get@?$money_get@_WV?$istreambuf_iterator@_WU?$char_traits@_W@std@@@std@@@std@@MEBA?AV?$istreambuf_iterator@_WU?$char_traits@_W@std@@@2@V32@0_NAEAVios_base@2@AEAHAEAO@Z 0000000180112e84 f i libcpmt:wlocale.obj
 0001:00111f88       ?do_get@?$money_get@_WV?$istreambuf_iterator@_WU?$char_traits@_W@std@@@std@@@std@@MEBA?AV?$istreambuf_iterator@_WU?$char_traits@_W@std@@@2@V32@0_NAEAVios_base@2@AEAHAEAV?$basic_string@_WU?$char_traits@_W@std@@V?$allocator@_W@2@@2@@Z 0000000180112f88 f i libcpmt:wlocale.obj
 0001:001120b8       ?do_get@?$num_get@GV?$istreambuf_iterator@GU?$char_traits@G@std@@@std@@@std@@MEBA?AV?$istreambuf_iterator@GU?$char_traits@G@std@@@2@V32@0AEAVios_base@2@AEAHAEAG@Z 00000001801130b8 f i libcpmt:wlocale.obj
 0001:00112224       ?do_get@?$num_get@GV?$istreambuf_iterator@GU?$char_traits@G@std@@@std@@@std@@MEBA?AV?$istreambuf_iterator@GU?$char_traits@G@std@@@2@V32@0AEAVios_base@2@AEAHAEAI@Z 0000000180113224 f i libcpmt:wlocale.obj
 0001:001122a4       ?do_get@?$num_get@GV?$istreambuf_iterator@GU?$char_traits@G@std@@@std@@@std@@MEBA?AV?$istreambuf_iterator@GU?$char_traits@G@std@@@2@V32@0AEAVios_base@2@AEAHAEAJ@Z 00000001801132a4 f i libcpmt:wlocale.obj
 0001:001123c4       ?do_get@?$num_get@GV?$istreambuf_iterator@GU?$char_traits@G@std@@@std@@@std@@MEBA?AV?$istreambuf_iterator@GU?$char_traits@G@std@@@2@V32@0AEAVios_base@2@AEAHAEAK@Z 00000001801133c4 f i libcpmt:wlocale.obj
 0001:001124e4       ?do_get@?$num_get@GV?$istreambuf_iterator@GU?$char_traits@G@std@@@std@@@std@@MEBA?AV?$istreambuf_iterator@GU?$char_traits@G@std@@@2@V32@0AEAVios_base@2@AEAHAEAM@Z 00000001801134e4 f i libcpmt:wlocale.obj
 0001:0011262c       ?do_get@?$num_get@GV?$istreambuf_iterator@GU?$char_traits@G@std@@@std@@@std@@MEBA?AV?$istreambuf_iterator@GU?$char_traits@G@std@@@2@V32@0AEAVios_base@2@AEAHAEAN@Z 000000018011362c f i libcpmt:wlocale.obj
 0001:00112774       ?do_get@?$num_get@GV?$istreambuf_iterator@GU?$char_traits@G@std@@@std@@@std@@MEBA?AV?$istreambuf_iterator@GU?$char_traits@G@std@@@2@V32@0AEAVios_base@2@AEAHAEAO@Z 0000000180113774 f i libcpmt:wlocale.obj
 0001:001127f8       ?do_get@?$num_get@GV?$istreambuf_iterator@GU?$char_traits@G@std@@@std@@@std@@MEBA?AV?$istreambuf_iterator@GU?$char_traits@G@std@@@2@V32@0AEAVios_base@2@AEAHAEAPEAX@Z 00000001801137f8 f i libcpmt:wlocale.obj
 0001:00112940       ?do_get@?$num_get@GV?$istreambuf_iterator@GU?$char_traits@G@std@@@std@@@std@@MEBA?AV?$istreambuf_iterator@GU?$char_traits@G@std@@@2@V32@0AEAVios_base@2@AEAHAEA_J@Z 0000000180113940 f i libcpmt:wlocale.obj
 0001:00112a60       ?do_get@?$num_get@GV?$istreambuf_iterator@GU?$char_traits@G@std@@@std@@@std@@MEBA?AV?$istreambuf_iterator@GU?$char_traits@G@std@@@2@V32@0AEAVios_base@2@AEAHAEA_K@Z 0000000180113a60 f i libcpmt:wlocale.obj
 0001:00112b80       ?do_get@?$num_get@GV?$istreambuf_iterator@GU?$char_traits@G@std@@@std@@@std@@MEBA?AV?$istreambuf_iterator@GU?$char_traits@G@std@@@2@V32@0AEAVios_base@2@AEAHAEA_N@Z 0000000180113b80 f i libcpmt:wlocale.obj
 0001:00112e98       ?do_get@?$num_get@_WV?$istreambuf_iterator@_WU?$char_traits@_W@std@@@std@@@std@@MEBA?AV?$istreambuf_iterator@_WU?$char_traits@_W@std@@@2@V32@0AEAVios_base@2@AEAHAEAG@Z 0000000180113e98 f i libcpmt:wlocale.obj
 0001:00113004       ?do_get@?$num_get@_WV?$istreambuf_iterator@_WU?$char_traits@_W@std@@@std@@@std@@MEBA?AV?$istreambuf_iterator@_WU?$char_traits@_W@std@@@2@V32@0AEAVios_base@2@AEAHAEAI@Z 0000000180114004 f i libcpmt:wlocale.obj
 0001:00113084       ?do_get@?$num_get@_WV?$istreambuf_iterator@_WU?$char_traits@_W@std@@@std@@@std@@MEBA?AV?$istreambuf_iterator@_WU?$char_traits@_W@std@@@2@V32@0AEAVios_base@2@AEAHAEAJ@Z 0000000180114084 f i libcpmt:wlocale.obj
 0001:001131a4       ?do_get@?$num_get@_WV?$istreambuf_iterator@_WU?$char_traits@_W@std@@@std@@@std@@MEBA?AV?$istreambuf_iterator@_WU?$char_traits@_W@std@@@2@V32@0AEAVios_base@2@AEAHAEAK@Z 00000001801141a4 f i libcpmt:wlocale.obj
 0001:001132c4       ?do_get@?$num_get@_WV?$istreambuf_iterator@_WU?$char_traits@_W@std@@@std@@@std@@MEBA?AV?$istreambuf_iterator@_WU?$char_traits@_W@std@@@2@V32@0AEAVios_base@2@AEAHAEAM@Z 00000001801142c4 f i libcpmt:wlocale.obj
 0001:0011340c       ?do_get@?$num_get@_WV?$istreambuf_iterator@_WU?$char_traits@_W@std@@@std@@@std@@MEBA?AV?$istreambuf_iterator@_WU?$char_traits@_W@std@@@2@V32@0AEAVios_base@2@AEAHAEAN@Z 000000018011440c f i libcpmt:wlocale.obj
 0001:00113554       ?do_get@?$num_get@_WV?$istreambuf_iterator@_WU?$char_traits@_W@std@@@std@@@std@@MEBA?AV?$istreambuf_iterator@_WU?$char_traits@_W@std@@@2@V32@0AEAVios_base@2@AEAHAEAO@Z 0000000180114554 f i libcpmt:wlocale.obj
 0001:001135d8       ?do_get@?$num_get@_WV?$istreambuf_iterator@_WU?$char_traits@_W@std@@@std@@@std@@MEBA?AV?$istreambuf_iterator@_WU?$char_traits@_W@std@@@2@V32@0AEAVios_base@2@AEAHAEAPEAX@Z 00000001801145d8 f i libcpmt:wlocale.obj
 0001:00113720       ?do_get@?$num_get@_WV?$istreambuf_iterator@_WU?$char_traits@_W@std@@@std@@@std@@MEBA?AV?$istreambuf_iterator@_WU?$char_traits@_W@std@@@2@V32@0AEAVios_base@2@AEAHAEA_J@Z 0000000180114720 f i libcpmt:wlocale.obj
 0001:00113840       ?do_get@?$num_get@_WV?$istreambuf_iterator@_WU?$char_traits@_W@std@@@std@@@std@@MEBA?AV?$istreambuf_iterator@_WU?$char_traits@_W@std@@@2@V32@0AEAVios_base@2@AEAHAEA_K@Z 0000000180114840 f i libcpmt:wlocale.obj
 0001:00113960       ?do_get@?$num_get@_WV?$istreambuf_iterator@_WU?$char_traits@_W@std@@@std@@@std@@MEBA?AV?$istreambuf_iterator@_WU?$char_traits@_W@std@@@2@V32@0AEAVios_base@2@AEAHAEA_N@Z 0000000180114960 f i libcpmt:wlocale.obj
 0001:00113c78       ?do_get@?$time_get@GV?$istreambuf_iterator@GU?$char_traits@G@std@@@std@@@std@@MEBA?AV?$istreambuf_iterator@GU?$char_traits@G@std@@@2@V32@0AEAVios_base@2@AEAHPEAUtm@@DD@Z 0000000180114c78 f i libcpmt:wlocale.obj
 0001:001141f4       ?do_get@?$time_get@_WV?$istreambuf_iterator@_WU?$char_traits@_W@std@@@std@@@std@@MEBA?AV?$istreambuf_iterator@_WU?$char_traits@_W@std@@@2@V32@0AEAVios_base@2@AEAHPEAUtm@@DD@Z 00000001801151f4 f i libcpmt:wlocale.obj
 0001:00114770       ?do_get_date@?$time_get@GV?$istreambuf_iterator@GU?$char_traits@G@std@@@std@@@std@@MEBA?AV?$istreambuf_iterator@GU?$char_traits@G@std@@@2@V32@0AEAVios_base@2@AEAHPEAUtm@@@Z 0000000180115770 f i libcpmt:wlocale.obj
 0001:001151e8       ?do_get_date@?$time_get@_WV?$istreambuf_iterator@_WU?$char_traits@_W@std@@@std@@@std@@MEBA?AV?$istreambuf_iterator@_WU?$char_traits@_W@std@@@2@V32@0AEAVios_base@2@AEAHPEAUtm@@@Z 00000001801161e8 f i libcpmt:wlocale.obj
 0001:00115c60       ?do_get_monthname@?$time_get@GV?$istreambuf_iterator@GU?$char_traits@G@std@@@std@@@std@@MEBA?AV?$istreambuf_iterator@GU?$char_traits@G@std@@@2@V32@0AEAVios_base@2@AEAHPEAUtm@@@Z 0000000180116c60 f i libcpmt:wlocale.obj
 0001:00115cbc       ?do_get_monthname@?$time_get@_WV?$istreambuf_iterator@_WU?$char_traits@_W@std@@@std@@@std@@MEBA?AV?$istreambuf_iterator@_WU?$char_traits@_W@std@@@2@V32@0AEAVios_base@2@AEAHPEAUtm@@@Z 0000000180116cbc f i libcpmt:wlocale.obj
 0001:00115d18       ?do_get_time@?$time_get@GV?$istreambuf_iterator@GU?$char_traits@G@std@@@std@@@std@@MEBA?AV?$istreambuf_iterator@GU?$char_traits@G@std@@@2@V32@0AEAVios_base@2@AEAHPEAUtm@@@Z 0000000180116d18 f i libcpmt:wlocale.obj
 0001:00115fe4       ?do_get_time@?$time_get@_WV?$istreambuf_iterator@_WU?$char_traits@_W@std@@@std@@@std@@MEBA?AV?$istreambuf_iterator@_WU?$char_traits@_W@std@@@2@V32@0AEAVios_base@2@AEAHPEAUtm@@@Z 0000000180116fe4 f i libcpmt:wlocale.obj
 0001:001162b0       ?do_get_weekday@?$time_get@GV?$istreambuf_iterator@GU?$char_traits@G@std@@@std@@@std@@MEBA?AV?$istreambuf_iterator@GU?$char_traits@G@std@@@2@V32@0AEAVios_base@2@AEAHPEAUtm@@@Z 00000001801172b0 f i libcpmt:wlocale.obj
 0001:0011630c       ?do_get_weekday@?$time_get@_WV?$istreambuf_iterator@_WU?$char_traits@_W@std@@@std@@@std@@MEBA?AV?$istreambuf_iterator@_WU?$char_traits@_W@std@@@2@V32@0AEAVios_base@2@AEAHPEAUtm@@@Z 000000018011730c f i libcpmt:wlocale.obj
 0001:00116368       ?do_get_year@?$time_get@GV?$istreambuf_iterator@GU?$char_traits@G@std@@@std@@@std@@MEBA?AV?$istreambuf_iterator@GU?$char_traits@G@std@@@2@V32@0AEAVios_base@2@AEAHPEAUtm@@@Z 0000000180117368 f i libcpmt:wlocale.obj
 0001:0011647c       ?do_get_year@?$time_get@_WV?$istreambuf_iterator@_WU?$char_traits@_W@std@@@std@@@std@@MEBA?AV?$istreambuf_iterator@_WU?$char_traits@_W@std@@@2@V32@0AEAVios_base@2@AEAHPEAUtm@@@Z 000000018011747c f i libcpmt:wlocale.obj
 0001:00116590       ?do_hash@?$collate@G@std@@MEBAJPEBG0@Z 0000000180117590 f i libcpmt:wlocale.obj
 0001:00116590       ?do_hash@?$collate@_W@std@@MEBAJPEB_W0@Z 0000000180117590 f i libcpmt:wlocale.obj
 0001:001165a4       ?do_in@?$codecvt@GDU_Mbstatet@@@std@@MEBAHAEAU_Mbstatet@@PEBD1AEAPEBDPEAG3AEAPEAG@Z 00000001801175a4 f i libcpmt:wlocale.obj
 0001:001165a4       ?do_in@?$codecvt@_WDU_Mbstatet@@@std@@MEBAHAEAU_Mbstatet@@PEBD1AEAPEBDPEA_W3AEAPEA_W@Z 00000001801175a4 f i libcpmt:wlocale.obj
 0001:00116650       ?do_length@?$codecvt@GDU_Mbstatet@@@std@@MEBAHAEAU_Mbstatet@@PEBD1_K@Z 0000000180117650 f i libcpmt:wlocale.obj
 0001:00116650       ?do_length@?$codecvt@_WDU_Mbstatet@@@std@@MEBAHAEAU_Mbstatet@@PEBD1_K@Z 0000000180117650 f i libcpmt:wlocale.obj
 0001:001166f0       ?do_max_length@?$codecvt@GDU_Mbstatet@@@std@@MEBAHXZ 00000001801176f0 f i libcpmt:wlocale.obj
 0001:001166f0       ?do_max_length@?$codecvt@_WDU_Mbstatet@@@std@@MEBAHXZ 00000001801176f0 f i libcpmt:wlocale.obj
 0001:001166f4       ?do_narrow@?$ctype@G@std@@MEBADGD@Z 00000001801176f4 f i libcpmt:wlocale.obj
 0001:00116748       ?do_narrow@?$ctype@G@std@@MEBAPEBGPEBG0DPEAD@Z 0000000180117748 f i libcpmt:wlocale.obj
 0001:001167dc       ?do_neg_format@?$_Mpunct@D@std@@MEBA?AUpattern@money_base@2@XZ 00000001801177dc f i libcpmt:xlocale.obj
 0001:001167dc       ?do_neg_format@?$_Mpunct@G@std@@MEBA?AUpattern@money_base@2@XZ 00000001801177dc f i libcpmt:wlocale.obj
 0001:001167dc       ?do_neg_format@?$_Mpunct@_W@std@@MEBA?AUpattern@money_base@2@XZ 00000001801177dc f i libcpmt:wlocale.obj
 0001:001167e8       ?do_negative_sign@?$_Mpunct@G@std@@MEBA?AV?$basic_string@GU?$char_traits@G@std@@V?$allocator@G@2@@2@XZ 00000001801177e8 f i libcpmt:wlocale.obj
 0001:00116830       ?do_negative_sign@?$_Mpunct@_W@std@@MEBA?AV?$basic_string@_WU?$char_traits@_W@std@@V?$allocator@_W@2@@2@XZ 0000000180117830 f i libcpmt:wlocale.obj
 0001:0011686c       ?do_open@?$messages@D@std@@MEBAHAEBV?$basic_string@DU?$char_traits@D@std@@V?$allocator@D@2@@2@AEBVlocale@2@@Z 000000018011786c f i libcpmt:xlocale.obj
 0001:0011686c       ?do_open@?$messages@G@std@@MEBAHAEBV?$basic_string@DU?$char_traits@D@std@@V?$allocator@D@2@@2@AEBVlocale@2@@Z 000000018011786c f i libcpmt:wlocale.obj
 0001:0011686c       ?do_open@?$messages@_W@std@@MEBAHAEBV?$basic_string@DU?$char_traits@D@std@@V?$allocator@D@2@@2@AEBVlocale@2@@Z 000000018011786c f i libcpmt:wlocale.obj
 0001:00116870       ?do_out@?$codecvt@GDU_Mbstatet@@@std@@MEBAHAEAU_Mbstatet@@PEBG1AEAPEBGPEAD3AEAPEAD@Z 0000000180117870 f i libcpmt:wlocale.obj
 0001:00116870       ?do_out@?$codecvt@_WDU_Mbstatet@@@std@@MEBAHAEAU_Mbstatet@@PEB_W1AEAPEB_WPEAD3AEAPEAD@Z 0000000180117870 f i libcpmt:wlocale.obj
 0001:0011699c       ?do_pos_format@?$_Mpunct@D@std@@MEBA?AUpattern@money_base@2@XZ 000000018011799c f i libcpmt:xlocale.obj
 0001:0011699c       ?do_pos_format@?$_Mpunct@G@std@@MEBA?AUpattern@money_base@2@XZ 000000018011799c f i libcpmt:wlocale.obj
 0001:0011699c       ?do_pos_format@?$_Mpunct@_W@std@@MEBA?AUpattern@money_base@2@XZ 000000018011799c f i libcpmt:wlocale.obj
 0001:001169a8       ?do_positive_sign@?$_Mpunct@G@std@@MEBA?AV?$basic_string@GU?$char_traits@G@std@@V?$allocator@G@2@@2@XZ 00000001801179a8 f i libcpmt:wlocale.obj
 0001:001169a8       ?do_truename@?$numpunct@G@std@@MEBA?AV?$basic_string@GU?$char_traits@G@std@@V?$allocator@G@2@@2@XZ 00000001801179a8 f i libcpmt:wlocale.obj
 0001:001169f0       ?do_positive_sign@?$_Mpunct@_W@std@@MEBA?AV?$basic_string@_WU?$char_traits@_W@std@@V?$allocator@_W@2@@2@XZ 00000001801179f0 f i libcpmt:wlocale.obj
 0001:001169f0       ?do_truename@?$numpunct@_W@std@@MEBA?AV?$basic_string@_WU?$char_traits@_W@std@@V?$allocator@_W@2@@2@XZ 00000001801179f0 f i libcpmt:wlocale.obj
 0001:00116a2c       ?do_put@?$money_put@GV?$ostreambuf_iterator@GU?$char_traits@G@std@@@std@@@std@@MEBA?AV?$ostreambuf_iterator@GU?$char_traits@G@std@@@2@V32@_NAEAVios_base@2@GAEBV?$basic_string@GU?$char_traits@G@std@@V?$allocator@G@2@@2@@Z 0000000180117a2c f i libcpmt:wlocale.obj
 0001:00116dd8       ?do_put@?$money_put@GV?$ostreambuf_iterator@GU?$char_traits@G@std@@@std@@@std@@MEBA?AV?$ostreambuf_iterator@GU?$char_traits@G@std@@@2@V32@_NAEAVios_base@2@GO@Z 0000000180117dd8 f i libcpmt:wlocale.obj
 0001:001171a0       ?do_put@?$money_put@_WV?$ostreambuf_iterator@_WU?$char_traits@_W@std@@@std@@@std@@MEBA?AV?$ostreambuf_iterator@_WU?$char_traits@_W@std@@@2@V32@_NAEAVios_base@2@_WAEBV?$basic_string@_WU?$char_traits@_W@std@@V?$allocator@_W@2@@2@@Z 00000001801181a0 f i libcpmt:wlocale.obj
 0001:0011754c       ?do_put@?$money_put@_WV?$ostreambuf_iterator@_WU?$char_traits@_W@std@@@std@@@std@@MEBA?AV?$ostreambuf_iterator@_WU?$char_traits@_W@std@@@2@V32@_NAEAVios_base@2@_WO@Z 000000018011854c f i libcpmt:wlocale.obj
 0001:00117914       ?do_put@?$num_put@GV?$ostreambuf_iterator@GU?$char_traits@G@std@@@std@@@std@@MEBA?AV?$ostreambuf_iterator@GU?$char_traits@G@std@@@2@V32@AEAVios_base@2@GJ@Z 0000000180118914 f i libcpmt:wlocale.obj
 0001:00117a18       ?do_put@?$num_put@GV?$ostreambuf_iterator@GU?$char_traits@G@std@@@std@@@std@@MEBA?AV?$ostreambuf_iterator@GU?$char_traits@G@std@@@2@V32@AEAVios_base@2@GK@Z 0000000180118a18 f i libcpmt:wlocale.obj
 0001:00117b1c       ?do_put@?$num_put@GV?$ostreambuf_iterator@GU?$char_traits@G@std@@@std@@@std@@MEBA?AV?$ostreambuf_iterator@GU?$char_traits@G@std@@@2@V32@AEAVios_base@2@GN@Z 0000000180118b1c f i libcpmt:wlocale.obj
 0001:00117dc0       ?do_put@?$num_put@GV?$ostreambuf_iterator@GU?$char_traits@G@std@@@std@@@std@@MEBA?AV?$ostreambuf_iterator@GU?$char_traits@G@std@@@2@V32@AEAVios_base@2@GO@Z 0000000180118dc0 f i libcpmt:wlocale.obj
 0001:00118064       ?do_put@?$num_put@GV?$ostreambuf_iterator@GU?$char_traits@G@std@@@std@@@std@@MEBA?AV?$ostreambuf_iterator@GU?$char_traits@G@std@@@2@V32@AEAVios_base@2@GPEBX@Z 0000000180119064 f i libcpmt:wlocale.obj
 0001:00118108       ?do_put@?$num_put@GV?$ostreambuf_iterator@GU?$char_traits@G@std@@@std@@@std@@MEBA?AV?$ostreambuf_iterator@GU?$char_traits@G@std@@@2@V32@AEAVios_base@2@G_J@Z 0000000180119108 f i libcpmt:wlocale.obj
 0001:00118214       ?do_put@?$num_put@GV?$ostreambuf_iterator@GU?$char_traits@G@std@@@std@@@std@@MEBA?AV?$ostreambuf_iterator@GU?$char_traits@G@std@@@2@V32@AEAVios_base@2@G_K@Z 0000000180119214 f i libcpmt:wlocale.obj
 0001:00118320       ?do_put@?$num_put@GV?$ostreambuf_iterator@GU?$char_traits@G@std@@@std@@@std@@MEBA?AV?$ostreambuf_iterator@GU?$char_traits@G@std@@@2@V32@AEAVios_base@2@G_N@Z 0000000180119320 f i libcpmt:wlocale.obj
 0001:001186d0       ?do_put@?$num_put@_WV?$ostreambuf_iterator@_WU?$char_traits@_W@std@@@std@@@std@@MEBA?AV?$ostreambuf_iterator@_WU?$char_traits@_W@std@@@2@V32@AEAVios_base@2@_WJ@Z 00000001801196d0 f i libcpmt:wlocale.obj
 0001:001187d4       ?do_put@?$num_put@_WV?$ostreambuf_iterator@_WU?$char_traits@_W@std@@@std@@@std@@MEBA?AV?$ostreambuf_iterator@_WU?$char_traits@_W@std@@@2@V32@AEAVios_base@2@_WK@Z 00000001801197d4 f i libcpmt:wlocale.obj
 0001:001188d8       ?do_put@?$num_put@_WV?$ostreambuf_iterator@_WU?$char_traits@_W@std@@@std@@@std@@MEBA?AV?$ostreambuf_iterator@_WU?$char_traits@_W@std@@@2@V32@AEAVios_base@2@_WN@Z 00000001801198d8 f i libcpmt:wlocale.obj
 0001:00118b7c       ?do_put@?$num_put@_WV?$ostreambuf_iterator@_WU?$char_traits@_W@std@@@std@@@std@@MEBA?AV?$ostreambuf_iterator@_WU?$char_traits@_W@std@@@2@V32@AEAVios_base@2@_WO@Z 0000000180119b7c f i libcpmt:wlocale.obj
 0001:00118e20       ?do_put@?$num_put@_WV?$ostreambuf_iterator@_WU?$char_traits@_W@std@@@std@@@std@@MEBA?AV?$ostreambuf_iterator@_WU?$char_traits@_W@std@@@2@V32@AEAVios_base@2@_WPEBX@Z 0000000180119e20 f i libcpmt:wlocale.obj
 0001:00118ec4       ?do_put@?$num_put@_WV?$ostreambuf_iterator@_WU?$char_traits@_W@std@@@std@@@std@@MEBA?AV?$ostreambuf_iterator@_WU?$char_traits@_W@std@@@2@V32@AEAVios_base@2@_W_J@Z 0000000180119ec4 f i libcpmt:wlocale.obj
 0001:00118fd0       ?do_put@?$num_put@_WV?$ostreambuf_iterator@_WU?$char_traits@_W@std@@@std@@@std@@MEBA?AV?$ostreambuf_iterator@_WU?$char_traits@_W@std@@@2@V32@AEAVios_base@2@_W_K@Z 0000000180119fd0 f i libcpmt:wlocale.obj
 0001:001190dc       ?do_put@?$num_put@_WV?$ostreambuf_iterator@_WU?$char_traits@_W@std@@@std@@@std@@MEBA?AV?$ostreambuf_iterator@_WU?$char_traits@_W@std@@@2@V32@AEAVios_base@2@_W_N@Z 000000018011a0dc f i libcpmt:wlocale.obj
 0001:0011948c       ?do_put@?$time_put@GV?$ostreambuf_iterator@GU?$char_traits@G@std@@@std@@@std@@MEBA?AV?$ostreambuf_iterator@GU?$char_traits@G@std@@@2@V32@AEAVios_base@2@GPEBUtm@@DD@Z 000000018011a48c f i libcpmt:wlocale.obj
 0001:0011948c       ?do_put@?$time_put@_WV?$ostreambuf_iterator@_WU?$char_traits@_W@std@@@std@@@std@@MEBA?AV?$ostreambuf_iterator@_WU?$char_traits@_W@std@@@2@V32@AEAVios_base@2@_WPEBUtm@@DD@Z 000000018011a48c f i libcpmt:wlocale.obj
 0001:00119678       ?do_scan_is@?$ctype@G@std@@MEBAPEBGFPEBG0@Z 000000018011a678 f i libcpmt:wlocale.obj
 0001:001196dc       ?do_scan_not@?$ctype@G@std@@MEBAPEBGFPEBG0@Z 000000018011a6dc f i libcpmt:wlocale.obj
 0001:00119740       ?do_thousands_sep@?$_Mpunct@G@std@@MEBAGXZ 000000018011a740 f i libcpmt:wlocale.obj
 0001:00119740       ?do_thousands_sep@?$_Mpunct@_W@std@@MEBA_WXZ 000000018011a740 f i libcpmt:wlocale.obj
 0001:00119740       ?do_thousands_sep@?$numpunct@G@std@@MEBAGXZ 000000018011a740 f i libcpmt:wlocale.obj
 0001:00119740       ?do_thousands_sep@?$numpunct@_W@std@@MEBA_WXZ 000000018011a740 f i libcpmt:wlocale.obj
 0001:00119748       ?do_tolower@?$ctype@G@std@@MEBAPEBGPEAGPEBG@Z 000000018011a748 f i libcpmt:wlocale.obj
 0001:00119790       ?do_toupper@?$ctype@G@std@@MEBAPEBGPEAGPEBG@Z 000000018011a790 f i libcpmt:wlocale.obj
 0001:001197d8       ?do_transform@?$collate@G@std@@MEBA?AV?$basic_string@GU?$char_traits@G@std@@V?$allocator@G@2@@2@PEBG0@Z 000000018011a7d8 f i libcpmt:wlocale.obj
 0001:0011999c       ?do_transform@?$collate@_W@std@@MEBA?AV?$basic_string@_WU?$char_traits@_W@std@@V?$allocator@_W@2@@2@PEB_W0@Z 000000018011a99c f i libcpmt:wlocale.obj
 0001:00119b60       ?do_unshift@?$codecvt@GDU_Mbstatet@@@std@@MEBAHAEAU_Mbstatet@@PEAD1AEAPEAD@Z 000000018011ab60 f i libcpmt:wlocale.obj
 0001:00119b60       ?do_unshift@?$codecvt@_WDU_Mbstatet@@@std@@MEBAHAEAU_Mbstatet@@PEAD1AEAPEAD@Z 000000018011ab60 f i libcpmt:wlocale.obj
 0001:00119c04       ?do_widen@?$ctype@G@std@@MEBAGD@Z 000000018011ac04 f i libcpmt:wlocale.obj
 0001:00119c48       ?do_widen@?$ctype@G@std@@MEBAPEBDPEBD0PEAG@Z 000000018011ac48 f i libcpmt:wlocale.obj
 0001:00119cc0       ?equal@?$istreambuf_iterator@GU?$char_traits@G@std@@@std@@QEBA_NAEBV12@@Z 000000018011acc0 f i libcpmt:wlocale.obj
 0001:00119cc0       ?equal@?$istreambuf_iterator@_WU?$char_traits@_W@std@@@std@@QEBA_NAEBV12@@Z 000000018011acc0 f i libcpmt:wlocale.obj
 0001:00119da8       ?insert@?$basic_string@GU?$char_traits@G@std@@V?$allocator@G@2@@std@@QEAAAEAV12@_K0G@Z 000000018011ada8 f i libcpmt:wlocale.obj
 0001:00119da8       ?insert@?$basic_string@_WU?$char_traits@_W@std@@V?$allocator@_W@2@@std@@QEAAAEAV12@_K0_W@Z 000000018011ada8 f i libcpmt:wlocale.obj
 0001:00119ebc       ?name@locale@std@@QEBA?AV?$basic_string@DU?$char_traits@D@std@@V?$allocator@D@2@@2@XZ 000000018011aebc f i libcpmt:wlocale.obj
 0001:0011a098       ?push_back@?$basic_string@GU?$char_traits@G@std@@V?$allocator@G@2@@std@@QEAAXG@Z 000000018011b098 f i libcpmt:wlocale.obj
 0001:0011a098       ?push_back@?$basic_string@_WU?$char_traits@_W@std@@V?$allocator@_W@2@@std@@QEAAX_W@Z 000000018011b098 f i libcpmt:wlocale.obj
 0001:0011a15c       ?setstate@ios_base@std@@QEAAXH@Z 000000018011b15c f i libcpmt:wlocale.obj
 0001:0011a1cc       ??$_Getint_v2@V?$istreambuf_iterator@DU?$char_traits@D@std@@@std@@D@std@@YAHAEAV?$istreambuf_iterator@DU?$char_traits@D@std@@@0@0HHAEAH1AEBV?$ctype@D@0@@Z 000000018011b1cc f i libcpmt:xlocale.obj
 0001:0011a644       ??$_Getvals@D@?$_Mpunct@D@std@@IEAAXDPEBUlconv@@@Z 000000018011b644 f i libcpmt:xlocale.obj
 0001:0011a6dc       ??$_Getvals@D@?$time_get@DV?$istreambuf_iterator@DU?$char_traits@D@std@@@std@@@std@@IEAAXDAEBV_Locinfo@1@@Z 000000018011b6dc f i libcpmt:xlocale.obj
 0001:0011a7dc       ??$use_facet@V?$collate@D@std@@@std@@YAAEBV?$collate@D@0@AEBVlocale@0@@Z 000000018011b7dc f i libcpmt:xlocale.obj
 0001:0011a8f4       ??$use_facet@V?$messages@D@std@@@std@@YAAEBV?$messages@D@0@AEBVlocale@0@@Z 000000018011b8f4 f i libcpmt:xlocale.obj
 0001:0011aa0c       ??$use_facet@V?$money_get@DV?$istreambuf_iterator@DU?$char_traits@D@std@@@std@@@std@@@std@@YAAEBV?$money_get@DV?$istreambuf_iterator@DU?$char_traits@D@std@@@std@@@0@AEBVlocale@0@@Z 000000018011ba0c f i libcpmt:xlocale.obj
 0001:0011ab24       ??$use_facet@V?$money_put@DV?$ostreambuf_iterator@DU?$char_traits@D@std@@@std@@@std@@@std@@YAAEBV?$money_put@DV?$ostreambuf_iterator@DU?$char_traits@D@std@@@std@@@0@AEBVlocale@0@@Z 000000018011bb24 f i libcpmt:xlocale.obj
 0001:0011ac3c       ??$use_facet@V?$moneypunct@D$00@std@@@std@@YAAEBV?$moneypunct@D$00@0@AEBVlocale@0@@Z 000000018011bc3c f i libcpmt:xlocale.obj
 0001:0011ad54       ??$use_facet@V?$moneypunct@D$0A@@std@@@std@@YAAEBV?$moneypunct@D$0A@@0@AEBVlocale@0@@Z 000000018011bd54 f i libcpmt:xlocale.obj
 0001:0011ae6c       ??$use_facet@V?$time_get@DV?$istreambuf_iterator@DU?$char_traits@D@std@@@std@@@std@@@std@@YAAEBV?$time_get@DV?$istreambuf_iterator@DU?$char_traits@D@std@@@std@@@0@AEBVlocale@0@@Z 000000018011be6c f i libcpmt:xlocale.obj
 0001:0011af84       ??$use_facet@V?$time_put@DV?$ostreambuf_iterator@DU?$char_traits@D@std@@@std@@@std@@@std@@YAAEBV?$time_put@DV?$ostreambuf_iterator@DU?$char_traits@D@std@@@std@@@0@AEBVlocale@0@@Z 000000018011bf84 f i libcpmt:xlocale.obj
 0001:0011b09c       ??_E?$_Mpunct@D@std@@MEAAPEAXI@Z 000000018011c09c f i libcpmt:xlocale.obj
 0001:0011b09c       ??_E?$moneypunct@D$00@std@@MEAAPEAXI@Z 000000018011c09c f i libcpmt:xlocale.obj
 0001:0011b09c       ??_E?$moneypunct@D$0A@@std@@MEAAPEAXI@Z 000000018011c09c f i libcpmt:xlocale.obj
 0001:0011b09c       ??_G?$_Mpunct@D@std@@MEAAPEAXI@Z 000000018011c09c f i libcpmt:xlocale.obj
 0001:0011b09c       ??_G?$moneypunct@D$00@std@@MEAAPEAXI@Z 000000018011c09c f i libcpmt:xlocale.obj
 0001:0011b09c       ??_G?$moneypunct@D$0A@@std@@MEAAPEAXI@Z 000000018011c09c f i libcpmt:xlocale.obj
 0001:0011b104       ??_E?$collate@D@std@@MEAAPEAXI@Z 000000018011c104 f i libcpmt:xlocale.obj
 0001:0011b104       ??_G?$collate@D@std@@MEAAPEAXI@Z 000000018011c104 f i libcpmt:xlocale.obj
 0001:0011b150       ??_E?$time_get@DV?$istreambuf_iterator@DU?$char_traits@D@std@@@std@@@std@@MEAAPEAXI@Z 000000018011c150 f i libcpmt:xlocale.obj
 0001:0011b150       ??_G?$time_get@DV?$istreambuf_iterator@DU?$char_traits@D@std@@@std@@@std@@MEAAPEAXI@Z 000000018011c150 f i libcpmt:xlocale.obj
 0001:0011b1b0       ??_E?$time_put@DV?$ostreambuf_iterator@DU?$char_traits@D@std@@@std@@@std@@MEAAPEAXI@Z 000000018011c1b0 f i libcpmt:xlocale.obj
 0001:0011b1b0       ??_G?$time_put@DV?$ostreambuf_iterator@DU?$char_traits@D@std@@@std@@@std@@MEAAPEAXI@Z 000000018011c1b0 f i libcpmt:xlocale.obj
 0001:0011b1fc       ?_Getcat@?$collate@D@std@@SA_KPEAPEBVfacet@locale@2@PEBV42@@Z 000000018011c1fc f i libcpmt:xlocale.obj
 0001:0011b2fc       ?_Getcat@?$messages@D@std@@SA_KPEAPEBVfacet@locale@2@PEBV42@@Z 000000018011c2fc f i libcpmt:xlocale.obj
 0001:0011b3b8       ?_Getcat@?$money_get@DV?$istreambuf_iterator@DU?$char_traits@D@std@@@std@@@std@@SA_KPEAPEBVfacet@locale@2@PEBV42@@Z 000000018011c3b8 f i libcpmt:xlocale.obj
 0001:0011b474       ?_Getcat@?$money_put@DV?$ostreambuf_iterator@DU?$char_traits@D@std@@@std@@@std@@SA_KPEAPEBVfacet@locale@2@PEBV42@@Z 000000018011c474 f i libcpmt:xlocale.obj
 0001:0011b530       ?_Getcat@?$moneypunct@D$00@std@@SA_KPEAPEBVfacet@locale@2@PEBV42@@Z 000000018011c530 f i libcpmt:xlocale.obj
 0001:0011b608       ?_Getcat@?$moneypunct@D$0A@@std@@SA_KPEAPEBVfacet@locale@2@PEBV42@@Z 000000018011c608 f i libcpmt:xlocale.obj
 0001:0011b6e0       ?_Getcat@?$time_get@DV?$istreambuf_iterator@DU?$char_traits@D@std@@@std@@@std@@SA_KPEAPEBVfacet@locale@2@PEBV42@@Z 000000018011c6e0 f i libcpmt:xlocale.obj
 0001:0011b7c8       ?_Getcat@?$time_put@DV?$ostreambuf_iterator@DU?$char_traits@D@std@@@std@@@std@@SA_KPEAPEBVfacet@locale@2@PEBV42@@Z 000000018011c7c8 f i libcpmt:xlocale.obj
 0001:0011b8b8       ?_Getfmt@?$time_get@DV?$istreambuf_iterator@DU?$char_traits@D@std@@@std@@@std@@IEBA?AV?$istreambuf_iterator@DU?$char_traits@D@std@@@2@V32@0AEAVios_base@2@AEAHPEAUtm@@PEBD@Z 000000018011c8b8 f i libcpmt:xlocale.obj
 0001:0011bbd4       ?_Getmfld@?$money_get@DV?$istreambuf_iterator@DU?$char_traits@D@std@@@std@@@std@@AEBA?AV?$basic_string@DU?$char_traits@D@std@@V?$allocator@D@2@@2@AEAV?$istreambuf_iterator@DU?$char_traits@D@std@@@2@0_NAEAVios_base@2@AEAY0M@D@Z 000000018011cbd4 f i libcpmt:xlocale.obj
 0001:0011cc9c       ?_Init@?$_Mpunct@D@std@@IEAAXAEBV_Locinfo@2@_N@Z 000000018011dc9c f i libcpmt:xlocale.obj
 0001:0011cde4       ?_Makexloc@_Locimp@locale@std@@CAXAEBV_Locinfo@3@HPEAV123@PEBV23@@Z 000000018011dde4 f   libcpmt:xlocale.obj
 0001:0011d5b0       ?_Putmfld@?$money_put@DV?$ostreambuf_iterator@DU?$char_traits@D@std@@@std@@@std@@AEBA?AV?$ostreambuf_iterator@DU?$char_traits@D@std@@@2@V32@_NAEAVios_base@2@D1V?$basic_string@DU?$char_traits@D@std@@V?$allocator@D@2@@2@D@Z 000000018011e5b0 f i libcpmt:xlocale.obj
 0001:0011dcfc       ?do_compare@?$collate@D@std@@MEBAHPEBD000@Z 000000018011ecfc f i libcpmt:xlocale.obj
 0001:0011dd40       ?do_get@?$messages@D@std@@MEBA?AV?$basic_string@DU?$char_traits@D@std@@V?$allocator@D@2@@2@HHHAEBV32@@Z 000000018011ed40 f i libcpmt:xlocale.obj
 0001:0011dd80       ?do_get@?$money_get@DV?$istreambuf_iterator@DU?$char_traits@D@std@@@std@@@std@@MEBA?AV?$istreambuf_iterator@DU?$char_traits@D@std@@@2@V32@0_NAEAVios_base@2@AEAHAEAO@Z 000000018011ed80 f i libcpmt:xlocale.obj
 0001:0011de80       ?do_get@?$money_get@DV?$istreambuf_iterator@DU?$char_traits@D@std@@@std@@@std@@MEBA?AV?$istreambuf_iterator@DU?$char_traits@D@std@@@2@V32@0_NAEAVios_base@2@AEAHAEAV?$basic_string@DU?$char_traits@D@std@@V?$allocator@D@2@@2@@Z 000000018011ee80 f i libcpmt:xlocale.obj
 0001:0011dfac       ?do_get@?$time_get@DV?$istreambuf_iterator@DU?$char_traits@D@std@@@std@@@std@@MEBA?AV?$istreambuf_iterator@DU?$char_traits@D@std@@@2@V32@0AEAVios_base@2@AEAHPEAUtm@@DD@Z 000000018011efac f i libcpmt:xlocale.obj
 0001:0011e528       ?do_get_date@?$time_get@DV?$istreambuf_iterator@DU?$char_traits@D@std@@@std@@@std@@MEBA?AV?$istreambuf_iterator@DU?$char_traits@D@std@@@2@V32@0AEAVios_base@2@AEAHPEAUtm@@@Z 000000018011f528 f i libcpmt:xlocale.obj
 0001:0011eedc       ?do_get_monthname@?$time_get@DV?$istreambuf_iterator@DU?$char_traits@D@std@@@std@@@std@@MEBA?AV?$istreambuf_iterator@DU?$char_traits@D@std@@@2@V32@0AEAVios_base@2@AEAHPEAUtm@@@Z 000000018011fedc f i libcpmt:xlocale.obj
 0001:0011ef38       ?do_get_time@?$time_get@DV?$istreambuf_iterator@DU?$char_traits@D@std@@@std@@@std@@MEBA?AV?$istreambuf_iterator@DU?$char_traits@D@std@@@2@V32@0AEAVios_base@2@AEAHPEAUtm@@@Z 000000018011ff38 f i libcpmt:xlocale.obj
 0001:0011f1f4       ?do_get_weekday@?$time_get@DV?$istreambuf_iterator@DU?$char_traits@D@std@@@std@@@std@@MEBA?AV?$istreambuf_iterator@DU?$char_traits@D@std@@@2@V32@0AEAVios_base@2@AEAHPEAUtm@@@Z 00000001801201f4 f i libcpmt:xlocale.obj
 0001:0011f250       ?do_get_year@?$time_get@DV?$istreambuf_iterator@DU?$char_traits@D@std@@@std@@@std@@MEBA?AV?$istreambuf_iterator@DU?$char_traits@D@std@@@2@V32@0AEAVios_base@2@AEAHPEAUtm@@@Z 0000000180120250 f i libcpmt:xlocale.obj
 0001:0011f364       ?do_hash@?$collate@D@std@@MEBAJPEBD0@Z 0000000180120364 f i libcpmt:xlocale.obj
 0001:0011f374       ?do_negative_sign@?$_Mpunct@D@std@@MEBA?AV?$basic_string@DU?$char_traits@D@std@@V?$allocator@D@2@@2@XZ 0000000180120374 f i libcpmt:xlocale.obj
 0001:0011f3b0       ?do_put@?$money_put@DV?$ostreambuf_iterator@DU?$char_traits@D@std@@@std@@@std@@MEBA?AV?$ostreambuf_iterator@DU?$char_traits@D@std@@@2@V32@_NAEAVios_base@2@DAEBV?$basic_string@DU?$char_traits@D@std@@V?$allocator@D@2@@2@@Z 00000001801203b0 f i libcpmt:xlocale.obj
 0001:0011f71c       ?do_put@?$money_put@DV?$ostreambuf_iterator@DU?$char_traits@D@std@@@std@@@std@@MEBA?AV?$ostreambuf_iterator@DU?$char_traits@D@std@@@2@V32@_NAEAVios_base@2@DO@Z 000000018012071c f i libcpmt:xlocale.obj
 0001:0011faa8       ?do_put@?$time_put@DV?$ostreambuf_iterator@DU?$char_traits@D@std@@@std@@@std@@MEBA?AV?$ostreambuf_iterator@DU?$char_traits@D@std@@@2@V32@AEAVios_base@2@DPEBUtm@@DD@Z 0000000180120aa8 f i libcpmt:xlocale.obj
 0001:0011fd18       ?do_transform@?$collate@D@std@@MEBA?AV?$basic_string@DU?$char_traits@D@std@@V?$allocator@D@2@@2@PEBD0@Z 0000000180120d18 f i libcpmt:xlocale.obj
 0001:0011fec8       _Stolx                     0000000180120ec8 f   libcpmt:xstol.obj
 0001:0011ffa8       _Stoulx                    0000000180120fa8 f   libcpmt:xstoul.obj
 0001:00120198       _Stollx                    0000000180121198 f   libcpmt:xstoll.obj
 0001:00120298       _Stoullx                   0000000180121298 f   libcpmt:xstoull.obj
 0001:00120490       __crtLCMapStringA          0000000180121490 f   libcpmt:StlLCMapStringA.obj
 0001:00120788       __crtLCMapStringW          0000000180121788 f   libcpmt:StlLCMapStringW.obj
 0001:00120810       _Getcoll                   0000000180121810 f   libcpmt:xstrcoll.obj
 0001:00120844       _Strcoll                   0000000180121844 f   libcpmt:xstrcoll.obj
 0001:00120914       _Getdateorder              0000000180121914 f   libcpmt:xdateord.obj
 0001:0012096c       _Wcscoll                   000000018012196c f   libcpmt:xwcscoll.obj
 0001:00120a50       _Wcsxfrm                   0000000180121a50 f   libcpmt:xwcsxfrm.obj
 0001:00120b60       _Strxfrm                   0000000180121b60 f   libcpmt:xstrxfrm.obj
 0001:00120c60       __crtCompareStringA        0000000180121c60 f   libcpmt:StlCompareStringA.obj
 0001:00120fc8       __crtCompareStringW        0000000180121fc8 f   libcpmt:StlCompareStringW.obj
 0001:00121086       D3D11CreateDevice          0000000180122086 f   d3d11:d3d11.dll
 0001:0012108c       CreateDXGIFactory2         000000018012208c f   dxgi:dxgi.dll
 0001:00121092       DCompositionCreateDevice   0000000180122092 f   dcomp:dcomp.dll
 0001:00121098       ??2@YAPEAX_K@Z             0000000180122098 f   LIBCMT:new_scalar.obj
 0001:001210d4       ??3@YAXPEAX_K@Z            00000001801220d4 f   LIBCMT:delete_scalar_size.obj
 0001:001210d4       ??_V@YAXPEAX@Z             00000001801220d4 f   LIBCMT:delete_array.obj
 0001:001210dc       ??_U@YAPEAX_K@Z            00000001801220dc f   LIBCMT:new_array.obj
 0001:001210e4       __scrt_acquire_startup_lock 00000001801220e4 f   LIBCMT:utility.obj
 0001:00121120       __scrt_dllmain_after_initialize_c 0000000180122120 f   LIBCMT:utility.obj
 0001:00121154       __scrt_dllmain_before_initialize_c 0000000180122154 f   LIBCMT:utility.obj
 0001:0012116c       __scrt_dllmain_crt_thread_attach 000000018012216c f   LIBCMT:utility.obj
 0001:00121194       __scrt_dllmain_crt_thread_detach 0000000180122194 f   LIBCMT:utility.obj
 0001:001211ac       __scrt_dllmain_exception_filter 00000001801221ac f   LIBCMT:utility.obj
 0001:0012120c       __scrt_dllmain_uninitialize_c 000000018012220c f   LIBCMT:utility.obj
 0001:0012123c       __scrt_dllmain_uninitialize_critical 000000018012223c f   LIBCMT:utility.obj
 0001:00121250       __scrt_initialize_crt      0000000180122250 f   LIBCMT:utility.obj
 0001:0012128c       __scrt_initialize_onexit_tables 000000018012228c f   LIBCMT:utility.obj
 0001:00121318       __scrt_is_nonwritable_in_current_image 0000000180122318 f   LIBCMT:utility.obj
 0001:001213b0       __scrt_release_startup_lock 00000001801223b0 f   LIBCMT:utility.obj
 0001:001213d4       __scrt_uninitialize_crt    00000001801223d4 f   LIBCMT:utility.obj
 0001:00121400       _onexit                    0000000180122400 f   LIBCMT:utility.obj
 0001:0012143c       atexit                     000000018012243c f   LIBCMT:utility.obj
 0001:00121454       _Init_thread_footer        0000000180122454 f   LIBCMT:thread_safe_statics.obj
 0001:001214c0       _Init_thread_header        00000001801224c0 f   LIBCMT:thread_safe_statics.obj
 0001:00121538       ??_Etype_info@@UEAAPEAXI@Z 0000000180122538 f i LIBCMT:std_type_info_static.obj
 0001:00121538       ??_Gtype_info@@UEAAPEAXI@Z 0000000180122538 f i LIBCMT:std_type_info_static.obj
 0001:00121564       ??_M@YAXPEAX_K1P6AX0@Z@Z   0000000180122564 f   LIBCMT:ehvecdtr.obj
 0001:001215d0       ?__ArrayUnwind@@YAXPEAX_K1P6AX0@Z@Z 00000001801225d0 f   LIBCMT:ehvecdtr.obj
 0001:00121640       __vdecl_sinf4              0000000180122640 f   LIBCMT:svml_ssinf4_dispatch.obj
 0001:00121660       __libm_sse2_sincosf_       0000000180122660 f   LIBCMT:svml_ssinf4_dispatch.obj
 0001:001216a3       __libm_sse2_sincosf4_      00000001801226a3 f   LIBCMT:svml_ssinf4_dispatch.obj
 0001:001216c0       __chkstk                   00000001801226c0 f   LIBCMT:chkstk.obj
 0001:001216c0       _alloca_probe              00000001801226c0 f   LIBCMT:chkstk.obj
 0001:00121710       ??_L@YAXPEAX_K1P6AX0@Z2@Z  0000000180122710 f   LIBCMT:ehvecctr.obj
 0001:00121780       __isa_available_init       0000000180122780 f   LIBCMT:cpu_disp.obj
 0001:00121c48       _DllMainCRTStartup         0000000180122c48 f   LIBCMT:dll_dllmain.obj
 0001:00121c88       __GSHandlerCheck           0000000180122c88 f   LIBCMT:gshandler.obj
 0001:00121ca8       __GSHandlerCheckCommon     0000000180122ca8 f   LIBCMT:gshandler.obj
 0001:00121d20       __security_check_cookie    0000000180122d20 f   LIBCMT:amdsecgs.obj
 0001:00121d40       __raise_securityfailure    0000000180122d40 f   LIBCMT:gs_report.obj
 0001:00121d74       __report_gsfailure         0000000180122d74 f   LIBCMT:gs_report.obj
 0001:00121e48       __report_rangecheckfailure 0000000180122e48 f   LIBCMT:gs_report.obj
 0001:00121e5c       __report_securityfailure   0000000180122e5c f   LIBCMT:gs_report.obj
 0001:00121fdc       __GSHandlerCheck_EH4       0000000180122fdc f   LIBCMT:gshandlereh4.obj
 0001:0012205c       ??3@YAXPEAX@Z              000000018012305c f   LIBCMT:delete_scalar.obj
 0001:00122064       __scrt_is_ucrt_dll_in_use  0000000180123064 f   LIBCMT:ucrt_detection.obj
 0001:00122070       __crt_debugger_hook        0000000180123070 f   LIBCMT:utility_desktop.obj
 0001:00122078       __scrt_fastfail            0000000180123078 f   LIBCMT:utility_desktop.obj
 0001:001221c0       __sse2_sinf4@@16           00000001801231c0 f   LIBCMT:svml_ssinf4_sse2.obj
 0001:00122b00       __sse4_sinf4@@16           0000000180123b00 f   LIBCMT:svml_ssinf4_sse4.obj
 0001:00123274       __security_init_cookie     0000000180124274 f   LIBCMT:gs_support.obj
 0001:00123320       ?__scrt_initialize_type_info@@YAXXZ 0000000180124320 f   LIBCMT:tncleanup.obj
 0001:00123330       ?__scrt_uninitialize_type_info@@YAXXZ 0000000180124330 f   LIBCMT:tncleanup.obj
 0001:0012333c       __scrt_initialize_default_local_stdio_options 000000018012433c f   LIBCMT:default_local_stdio_options.obj
 0001:00123358       __scrt_get_dyn_tls_init_callback 0000000180124358 f   LIBCMT:dyn_tls_init.obj
 0001:00123360       _RTC_Initialize            0000000180124360 f   LIBCMT:initsect.obj
 0001:0012339c       _RTC_Terminate             000000018012439c f   LIBCMT:initsect.obj
 0001:001233e0       __common_ssin_cout_rare    00000001801243e0 f   LIBCMT:svml_s_sin_cout.obj
 0001:00123450       RtlFreeUnicodeString       0000000180124450 f   ntdll:ntdll.dll
 0001:00123456       RtlInitAnsiString          0000000180124456 f   ntdll:ntdll.dll
 0001:0012345c       RtlAnsiStringToUnicodeString 000000018012445c f   ntdll:ntdll.dll
 0001:00123462       __WSAFDIsSet               0000000180124462 f   ws2_32:WS2_32.dll
 0001:00123468       K32GetModuleInformation    0000000180124468 f   kernel32:KERNEL32.dll
 0001:0012346e       ImmGetContext              000000018012446e f   imm32:IMM32.dll
 0001:00123474       ImmReleaseContext          0000000180124474 f   imm32:IMM32.dll
 0001:0012347a       ImmSetCompositionWindow    000000018012447a f   imm32:IMM32.dll
 0001:00123480       D3DCompile                 0000000180124480 f   d3dcompiler:D3DCOMPILER_47.dll
 0001:00123486       XInputGetState             0000000180124486 f   xinput:XINPUT1_4.dll
 0001:0012348c       XInputGetCapabilities      000000018012448c f   xinput:XINPUT1_4.dll
 0001:00123494       __std_exception_copy       0000000180124494 f   libvcruntime:std_exception.obj
 0001:00123524       __std_exception_destroy    0000000180124524 f   libvcruntime:std_exception.obj
 0001:0012354c       _CxxThrowException         000000018012454c f   libvcruntime:throw.obj
 0001:001235f4       ??$_CallSETranslator@V__FrameHandler3@@@@YAHPEAUEHExceptionRecord@@PEA_KPEAU_CONTEXT@@PEAU_xDISPATCHER_CONTEXT@@PEBU_s_FuncInfo@@K1H@Z 00000001801245f4 f i libvcruntime:risctrnsctrl.obj
 0001:00123648       ??$_CallSETranslator@V__FrameHandler4@@@@YAHPEAUEHExceptionRecord@@PEA_KPEAU_CONTEXT@@PEAU_xDISPATCHER_CONTEXT@@PEAUFuncInfo4@FH4@@K1H@Z 0000000180124648 f i libvcruntime:risctrnsctrl.obj
 0001:0012369c       ?CatchTryBlock@__FrameHandler3@@SAPEBU_s_TryBlockMapEntry@@PEBU_s_FuncInfo@@H@Z 000000018012469c f   libvcruntime:risctrnsctrl.obj
 0001:00123700       ?DecompFuncInfo@FH4@@YA_JPEAEAEAUFuncInfo4@1@_KH_N@Z 0000000180124700 f i libvcruntime:risctrnsctrl.obj
 0001:00123834       ?ExecutionInCatch@__FrameHandler3@@SA_NPEAU_xDISPATCHER_CONTEXT@@PEBU_s_FuncInfo@@@Z 0000000180124834 f   libvcruntime:risctrnsctrl.obj
 0001:00123860       ?ExecutionInCatch@__FrameHandler4@@SA_NPEAU_xDISPATCHER_CONTEXT@@PEAUFuncInfo4@FH4@@@Z 0000000180124860 f   libvcruntime:risctrnsctrl.obj
 0001:00123868       ?FrameUnwindToEmptyState@__FrameHandler3@@SAXPEA_KPEAU_xDISPATCHER_CONTEXT@@PEBU_s_FuncInfo@@@Z 0000000180124868 f   libvcruntime:risctrnsctrl.obj
 0001:001238cc       ?FrameUnwindToEmptyState@__FrameHandler4@@SAXPEA_KPEAU_xDISPATCHER_CONTEXT@@PEAUFuncInfo4@FH4@@@Z 00000001801248cc f   libvcruntime:risctrnsctrl.obj
 0001:00123900       ?GetEstablisherFrame@__FrameHandler3@@SAPEA_KPEA_KPEAU_xDISPATCHER_CONTEXT@@PEBU_s_FuncInfo@@0@Z 0000000180124900 f   libvcruntime:risctrnsctrl.obj
 0001:001239d0       ?GetEstablisherFrame@__FrameHandler4@@SAPEA_KPEA_KPEAU_xDISPATCHER_CONTEXT@@PEAUFuncInfo4@FH4@@0@Z 00000001801249d0 f   libvcruntime:risctrnsctrl.obj
 0001:001239f4       ?GetRangeOfTrysToCheck@__FrameHandler3@@SA?AU?$pair@Viterator@TryBlockMap@__FrameHandler3@@V123@@std@@AEAVTryBlockMap@1@HPEAU_xDISPATCHER_CONTEXT@@PEBU_s_FuncInfo@@H@Z 00000001801249f4 f   libvcruntime:risctrnsctrl.obj
 0001:00123b28       ?GetRangeOfTrysToCheck@__FrameHandler4@@SA?AU?$pair@Viterator@TryBlockMap4@FH4@@V123@@std@@AEAVTryBlockMap4@FH4@@HPEAU_xDISPATCHER_CONTEXT@@PEAUFuncInfo4@5@H@Z 0000000180124b28 f   libvcruntime:risctrnsctrl.obj
 0001:00123c94       ?UnwindNestedFrames@__FrameHandler3@@SAXPEA_KPEAUEHExceptionRecord@@PEAU_CONTEXT@@0PEAXPEBU_s_FuncInfo@@HHPEBU_s_HandlerType@@PEAU_xDISPATCHER_CONTEXT@@E@Z 0000000180124c94 f   libvcruntime:risctrnsctrl.obj
 0001:00123d98       ?UnwindNestedFrames@__FrameHandler4@@SAXPEA_KPEAUEHExceptionRecord@@PEAU_CONTEXT@@0PEAXPEAUFuncInfo4@FH4@@HHPEAUHandlerType4@5@PEAU_xDISPATCHER_CONTEXT@@E@Z 0000000180124d98 f   libvcruntime:risctrnsctrl.obj
 0001:00123eb8       ?setBuffer@TryBlockMap4@FH4@@QEAAXViterator@12@@Z 0000000180124eb8 f i libvcruntime:risctrnsctrl.obj
 0001:0012407c       _CreateFrameInfo           000000018012507c f   libvcruntime:risctrnsctrl.obj
 0001:001240b8       _FindAndUnlinkFrame        00000001801250b8 f   libvcruntime:risctrnsctrl.obj
 0001:0012410c       _GetImageBase              000000018012510c f   libvcruntime:risctrnsctrl.obj
 0001:00124120       _GetThrowImageBase         0000000180125120 f   libvcruntime:risctrnsctrl.obj
 0001:00124134       _SetImageBase              0000000180125134 f   libvcruntime:risctrnsctrl.obj
 0001:0012414c       _SetThrowImageBase         000000018012514c f   libvcruntime:risctrnsctrl.obj
 0001:00124164       __CxxFrameHandler3         0000000180125164 f   libvcruntime:risctrnsctrl.obj
 0001:001241ec       __CxxFrameHandler4         00000001801251ec f   libvcruntime:risctrnsctrl.obj
 0001:001242b0       _get_purecall_handler      00000001801252b0 f   libvcruntime:purevirt.obj
 0001:001242bc       _purecall                  00000001801252bc f   libvcruntime:purevirt.obj
 0001:001242d8       __DestructExceptionObject  00000001801252d8 f   libvcruntime:ehhelpers.obj
 0001:00124348       ?_CallMemberFunction0@@YAXQEAX0@Z 0000000180125348 f i libvcruntime:ehhelpers.obj
 0001:0012434c       _IsExceptionObjectToBeDestroyed 000000018012534c f   libvcruntime:ehhelpers.obj
 0001:0012437c       __AdjustPointer            000000018012537c f   libvcruntime:ehhelpers.obj
 0001:001243a0       __FrameUnwindFilter        00000001801253a0 f   libvcruntime:ehhelpers.obj
 0001:00124408       __current_exception        0000000180125408 f   libvcruntime:ehhelpers.obj
 0001:0012441c       __current_exception_context 000000018012541c f   libvcruntime:ehhelpers.obj
 0001:00124430       __std_terminate            0000000180125430 f   libvcruntime:ehhelpers.obj
 0001:00124440       strstr                     0000000180125440 f   libvcruntime:strstr.obj
 0001:00124628       strchr                     0000000180125628 f   libvcruntime:strchr.obj
 0001:001246a4       strrchr                    00000001801256a4 f   libvcruntime:strrchr.obj
 0001:001247e0       __uncaught_exception       00000001801257e0 f   libvcruntime:uncaught_exception.obj
 0001:00124800       __vcrt_initialize          0000000180125800 f   libvcruntime:initialization.obj
 0001:00124828       __vcrt_thread_attach       0000000180125828 f   libvcruntime:initialization.obj
 0001:0012483c       __vcrt_thread_detach       000000018012583c f   libvcruntime:initialization.obj
 0001:0012484c       __vcrt_uninitialize        000000018012584c f   libvcruntime:initialization.obj
 0001:00124868       __vcrt_uninitialize_critical 0000000180125868 f   libvcruntime:initialization.obj
 0001:00124878       __C_specific_handler       0000000180125878 f   libvcruntime:riscchandler.obj
 0001:00124a90       __std_type_info_compare    0000000180125a90 f   libvcruntime:std_type_info.obj
 0001:00124ab8       __std_type_info_destroy_list 0000000180125ab8 f   libvcruntime:std_type_info.obj
 0001:00124ae4       __vcrt_freefls             0000000180125ae4 f   libvcruntime:per_thread_data.obj
 0001:00124b04       __vcrt_freeptd_for_this_thread 0000000180125b04 f   libvcruntime:per_thread_data.obj
 0001:00124b4c       __vcrt_getptd              0000000180125b4c f   libvcruntime:per_thread_data.obj
 0001:00124b68       __vcrt_getptd_noexit       0000000180125b68 f   libvcruntime:per_thread_data.obj
 0001:00124c28       __vcrt_getptd_noinit       0000000180125c28 f   libvcruntime:per_thread_data.obj
 0001:00124c78       __vcrt_initialize_ptd      0000000180125c78 f   libvcruntime:per_thread_data.obj
 0001:00124cc0       __vcrt_uninitialize_ptd    0000000180125cc0 f   libvcruntime:per_thread_data.obj
 0001:00124ce4       ?GetCurrentState@__FrameHandler3@@SAHPEA_KPEAU_xDISPATCHER_CONTEXT@@PEBU_s_FuncInfo@@@Z 0000000180125ce4 f   libvcruntime:ehstate.obj
 0001:00124d0c       ?GetUnwindTryBlock@__FrameHandler3@@SAHPEA_KPEAU_xDISPATCHER_CONTEXT@@PEBU_s_FuncInfo@@@Z 0000000180125d0c f   libvcruntime:ehstate.obj
 0001:00124d38       ?SetState@__FrameHandler3@@SAXPEA_KPEBU_s_FuncInfo@@H@Z 0000000180125d38 f   libvcruntime:ehstate.obj
 0001:00124d44       ?SetUnwindTryBlock@__FrameHandler3@@SAXPEA_KPEAU_xDISPATCHER_CONTEXT@@PEBU_s_FuncInfo@@H@Z 0000000180125d44 f   libvcruntime:ehstate.obj
 0001:00124d80       ?StateFromControlPc@__FrameHandler3@@SAHPEBU_s_FuncInfo@@PEAU_xDISPATCHER_CONTEXT@@@Z 0000000180125d80 f   libvcruntime:ehstate.obj
 0001:00124d88       ?StateFromControlPc@__FrameHandler4@@SAHPEAUFuncInfo4@FH4@@PEAU_xDISPATCHER_CONTEXT@@@Z 0000000180125d88 f   libvcruntime:ehstate.obj
 0001:00124d90       ?StateFromIp@__FrameHandler3@@SAHPEBU_s_FuncInfo@@PEAU_xDISPATCHER_CONTEXT@@_K@Z 0000000180125d90 f   libvcruntime:ehstate.obj
 0001:00124df8       ?StateFromIp@__FrameHandler4@@SAHPEAUFuncInfo4@FH4@@PEAU_xDISPATCHER_CONTEXT@@_K@Z 0000000180125df8 f   libvcruntime:ehstate.obj
 0001:00126550       ??$TypeMatchHelper@V__FrameHandler3@@@@YAHPEBU_s_HandlerType@@PEBU_s_CatchableType@@PEBU_s_ThrowInfo@@@Z 0000000180127550 f i libvcruntime:frame.obj
 0001:00126690       ??$TypeMatchHelper@V__FrameHandler4@@@@YAHPEAUHandlerType4@FH4@@PEBU_s_CatchableType@@PEBU_s_ThrowInfo@@@Z 0000000180127690 f i libvcruntime:frame.obj
 0001:001267dc       ??$__InternalCxxFrameHandler@V__FrameHandler3@@@@YA?AW4_EXCEPTION_DISPOSITION@@PEAUEHExceptionRecord@@PEA_KPEAU_CONTEXT@@PEAU_xDISPATCHER_CONTEXT@@PEBU_s_FuncInfo@@H1E@Z 00000001801277dc f i libvcruntime:frame.obj
 0001:00126a14       ??$__InternalCxxFrameHandler@V__FrameHandler4@@@@YA?AW4_EXCEPTION_DISPOSITION@@PEAUEHExceptionRecord@@PEA_KPEAU_CONTEXT@@PEAU_xDISPATCHER_CONTEXT@@PEAUFuncInfo4@FH4@@H1E@Z 0000000180127a14 f i libvcruntime:frame.obj
 0001:00126ca8       ??$__InternalCxxFrameHandlerWrapper@V__FrameHandler3@@@@YA?AW4_EXCEPTION_DISPOSITION@@PEAUEHExceptionRecord@@PEA_KPEAU_CONTEXT@@PEAU_xDISPATCHER_CONTEXT@@PEBU_s_FuncInfo@@H1E@Z 0000000180127ca8 f i libvcruntime:frame.obj
 0001:00126cb0       ??$__InternalCxxFrameHandlerWrapper@V__FrameHandler4@@@@YA?AW4_EXCEPTION_DISPOSITION@@PEAUEHExceptionRecord@@PEA_KPEAU_CONTEXT@@PEAU_xDISPATCHER_CONTEXT@@PEAUFuncInfo4@FH4@@H1E@Z 0000000180127cb0 f i libvcruntime:frame.obj
 0001:00126cfc       ??0HandlerMap4@FH4@@QEAA@PEBUTryBlockMapEntry4@1@_KH@Z 0000000180127cfc f i libvcruntime:frame.obj
 0001:00126d80       ??0TryBlockMap4@FH4@@QEAA@PEBUFuncInfo4@1@_K@Z 0000000180127d80 f i libvcruntime:frame.obj
 0001:00126e64       ??0bad_exception@std@@QEAA@AEBV01@@Z 0000000180127e64 f i libvcruntime:frame.obj
 0001:00126ea0       ??0bad_exception@std@@QEAA@XZ 0000000180127ea0 f i libvcruntime:frame.obj
 0001:00126ec0       ?CxxCallCatchBlock@__FrameHandler3@@SAPEAXPEAU_EXCEPTION_RECORD@@@Z 0000000180127ec0 f   libvcruntime:frame.obj
 0001:001270ac       ?CxxCallCatchBlock@__FrameHandler4@@SAPEAXPEAU_EXCEPTION_RECORD@@@Z 00000001801280ac f   libvcruntime:frame.obj
 0001:001272fc       ?DecompHandler@HandlerMap4@FH4@@AEAAXXZ 00000001801282fc f i libvcruntime:frame.obj
 0001:00127544       ?FrameUnwindToState@__FrameHandler3@@SAXPEA_KPEAU_xDISPATCHER_CONTEXT@@PEBU_s_FuncInfo@@H@Z 0000000180128544 f   libvcruntime:frame.obj
 0001:001276d0       ?FrameUnwindToState@__FrameHandler4@@SAXPEA_KPEAU_xDISPATCHER_CONTEXT@@PEAUFuncInfo4@FH4@@H@Z 00000001801286d0 f   libvcruntime:frame.obj
 0001:001279d8       ?GetHandlerSearchState@__FrameHandler3@@SAHPEA_KPEAU_xDISPATCHER_CONTEXT@@PEBU_s_FuncInfo@@@Z 00000001801289d8 f i libvcruntime:frame.obj
 0001:00127be8       ?ReadEntry@UWMap4@FH4@@AEAAXPEAPEAE@Z 0000000180128be8 f i libvcruntime:frame.obj
 0001:00127c84       ?_CallMemberFunction1@@YAXQEAX00@Z 0000000180128c84 f i libvcruntime:frame.obj
 0001:00127c90       ?_CallMemberFunction2@@YAXQEAX00H@Z 0000000180128c90 f i libvcruntime:frame.obj
 0001:00127ca0       ?getStartStop@UWMap4@FH4@@QEAAXHHAEAViterator@12@0@Z 0000000180128ca0 f i libvcruntime:frame.obj
 0001:00127d70       ?getStateFromIterators@UWMap4@FH4@@SAHAEBViterator@12@H0H0@Z 0000000180128d70 f i libvcruntime:frame.obj
 0001:00127e20       __vcrt_initialize_locks    0000000180128e20 f   libvcruntime:locks.obj
 0001:00127e68       __vcrt_uninitialize_locks  0000000180128e68 f   libvcruntime:locks.obj
 0001:00127ed0       _NLG_Notify                0000000180128ed0 f   libvcruntime:notify.obj
 0001:00127ef0       __NLG_Dispatch2            0000000180128ef0 f   libvcruntime:notify.obj
 0001:00127f00       __NLG_Return2              0000000180128f00 f   libvcruntime:notify.obj
 0001:00127f04       __except_validate_context_record 0000000180128f04 f   libvcruntime:jbcxrval.obj
 0001:0012808c       __vcrt_FlsAlloc            000000018012908c f   libvcruntime:winapi_downlevel.obj
 0001:001280d4       __vcrt_FlsFree             00000001801290d4 f   libvcruntime:winapi_downlevel.obj
 0001:0012811c       __vcrt_FlsGetValue         000000018012911c f   libvcruntime:winapi_downlevel.obj
 0001:00128164       __vcrt_FlsSetValue         0000000180129164 f   libvcruntime:winapi_downlevel.obj
 0001:001281b8       __vcrt_InitializeCriticalSectionEx 00000001801291b8 f   libvcruntime:winapi_downlevel.obj
 0001:00128260       _CallSettingFrame          0000000180129260 f   libvcruntime:handlers.obj
 0001:001282a0       _CallSettingFrame_LookupContinuationIndex 00000001801292a0 f   libvcruntime:handlers.obj
 0001:001282d0       _CallSettingFrame_NotifyContinuationAddr 00000001801292d0 f   libvcruntime:handlers.obj
 0001:00128300       _CallSettingFrameEncoded   0000000180129300 f   libvcruntime:handlers.obj
 0001:00128360       memcpy_avx_ermsb_Intel     0000000180129360 f   libvcruntime:memcpy_avx_ermsb_aligned.obj
 0001:00128790       memcpy_avx_ermsb_amd       0000000180129790 f   libvcruntime:memcpy_avx_ermsb_aligned_amd.obj
 0001:00128bc0       memcpy_sse2_ermsb_Intel    0000000180129bc0 f   libvcruntime:memcpy_sse2_ermsb_aligned.obj
 0001:00128e70       memcpy_sse2_ermsb_amd      0000000180129e70 f   libvcruntime:memcpy_sse2_ermsb_aligned_amd.obj
 0001:00129120       memcpy_repmovs_Intel       000000018012a120 f   libvcruntime:memcpy_repmovs.obj
 0001:00129140       memcpy_CopyDown_Intel      000000018012a140 f   libvcruntime:memcpy_CopyDown.obj
 0001:00129230       memcpy_repmovs_amd         000000018012a230 f   libvcruntime:memcpy_repmovs_amd.obj
 0001:00129250       memcpy_CopyDown_amd        000000018012a250 f   libvcruntime:memcpy_CopyDown_amd.obj
 0001:00129330       ?get_raw_ptd@__crt_cached_ptd_host@@QEAAPEAU__acrt_ptd@@XZ 000000018012a330 f i libucrt:invalid_parameter.obj
 0001:00129398       ?get_raw_ptd_noexit@__crt_cached_ptd_host@@QEAAPEAU__acrt_ptd@@XZ 000000018012a398 f i libucrt:invalid_parameter.obj
 0001:00129404       ?value@?$dual_state_global@P6AXPEB_W00I_K@Z@__crt_state_management@@QEAAAEAP6AXPEB_W00I_K@ZAEAV__crt_cached_ptd_host@@@Z 000000018012a404 f i libucrt:invalid_parameter.obj
 0001:00129450       __acrt_call_reportfault    000000018012a450 f   libucrt:invalid_parameter.obj
 0001:001295ac       __acrt_initialize_invalid_parameter_handler 000000018012a5ac f   libucrt:invalid_parameter.obj
 0001:001295b4       _invalid_parameter         000000018012a5b4 f   libucrt:invalid_parameter.obj
 0001:00129650       _invalid_parameter_internal 000000018012a650 f   libucrt:invalid_parameter.obj
 0001:0012971c       _invalid_parameter_noinfo  000000018012a71c f   libucrt:invalid_parameter.obj
 0001:0012973c       _invalid_parameter_noinfo_noreturn 000000018012a73c f   libucrt:invalid_parameter.obj
 0001:0012976c       _invoke_watson             000000018012a76c f   libucrt:invalid_parameter.obj
 0001:001297b4       roundf                     000000018012a7b4 f   libucrt:roundf.obj
 0001:0012981c       asinf                      000000018012a81c f   libucrt:asinf.obj
 0001:00129a08       atan2f                     000000018012aa08 f   libucrt:atan2f.obj
 0001:00129e00       powf                       000000018012ae00 f   libucrt:powf.obj
 0001:0012acd0       tan                        000000018012bcd0 f   libucrt:tan.obj
 0001:0012b468       free                       000000018012c468 f   libucrt:free.obj
 0001:0012b47c       malloc                     000000018012c47c f   libucrt:malloc.obj
 0001:0012b484       __acrt_errno_from_os_error 000000018012c484 f   libucrt:errno.obj
 0001:0012b4cc       __acrt_errno_map_os_error  000000018012c4cc f   libucrt:errno.obj
 0001:0012b514       __acrt_errno_map_os_error_ptd 000000018012c514 f   libucrt:errno.obj
 0001:0012b538       __doserrno                 000000018012c538 f   libucrt:errno.obj
 0001:0012b558       _errno                     000000018012c558 f   libucrt:errno.obj
 0001:0012b578       ??0_LocaleUpdate@@QEAA@QEAU__crt_locale_pointers@@@Z 000000018012c578 f i libucrt:wcsnicmp.obj
 0001:0012b614       __ascii_wcsnicmp           000000018012c614 f   libucrt:wcsnicmp.obj
 0001:0012b660       _wcsnicmp                  000000018012c660 f   libucrt:wcsnicmp.obj
 0001:0012b6a8       _wcsnicmp_l                000000018012c6a8 f   libucrt:wcsnicmp.obj
 0001:0012b7fc       _dclass                    000000018012c7fc f   libucrt:nan.obj
 0001:0012b818       _dsign                     000000018012c818 f   libucrt:nan.obj
 0001:0012b980       ??$parse_floating_point@V?$c_string_character_source@D@__crt_strtox@@M@__crt_strtox@@YA?AW4SLD_STATUS@@QEAU__crt_locale_pointers@@V?$c_string_character_source@D@0@QEAM@Z 000000018012c980 f i libucrt:strtod.obj
 0001:0012ba20       ??$parse_floating_point@V?$c_string_character_source@D@__crt_strtox@@N@__crt_strtox@@YA?AW4SLD_STATUS@@QEAU__crt_locale_pointers@@V?$c_string_character_source@D@0@QEAN@Z 000000018012ca20 f i libucrt:strtod.obj
 0001:0012bac0       ??$parse_floating_point_from_source@V?$c_string_character_source@D@__crt_strtox@@@__crt_strtox@@YA?AW4floating_point_parse_result@0@QEAU__crt_locale_pointers@@AEAV?$c_string_character_source@D@0@AEAUfloating_point_string@0@@Z 000000018012cac0 f i libucrt:strtod.obj
 0001:0012bf68       ??$parse_floating_point_possible_infinity@DV?$c_string_character_source@D@__crt_strtox@@PEBD@__crt_strtox@@YA?AW4floating_point_parse_result@0@AEADAEAV?$c_string_character_source@D@0@PEBD@Z 000000018012cf68 f i libucrt:strtod.obj
 0001:0012c0ac       ??$parse_floating_point_possible_nan@DV?$c_string_character_source@D@__crt_strtox@@PEBD@__crt_strtox@@YA?AW4floating_point_parse_result@0@AEADAEAV?$c_string_character_source@D@0@PEBD@Z 000000018012d0ac f i libucrt:strtod.obj
 0001:0012c298       ??$parse_floating_point_possible_nan_is_ind@DV?$c_string_character_source@D@__crt_strtox@@@__crt_strtox@@YA_NAEADAEAV?$c_string_character_source@D@0@@Z 000000018012d298 f i libucrt:strtod.obj
 0001:0012c2e0       ??$parse_floating_point_possible_nan_is_snan@DV?$c_string_character_source@D@__crt_strtox@@@__crt_strtox@@YA_NAEADAEAV?$c_string_character_source@D@0@@Z 000000018012d2e0 f i libucrt:strtod.obj
 0001:0012c328       ??$parse_floating_point_write_result@M@__crt_strtox@@YA?AW4SLD_STATUS@@W4floating_point_parse_result@0@AEBUfloating_point_string@0@QEAM@Z 000000018012d328 f i libucrt:strtod.obj
 0001:0012c498       ??$parse_floating_point_write_result@N@__crt_strtox@@YA?AW4SLD_STATUS@@W4floating_point_parse_result@0@AEBUfloating_point_string@0@QEAN@Z 000000018012d498 f i libucrt:strtod.obj
 0001:0012c678       ?as_double@floating_point_value@__crt_strtox@@QEBAAEANXZ 000000018012d678 f i libucrt:strtod.obj
 0001:0012c6b4       ?as_float@floating_point_value@__crt_strtox@@QEBAAEAMXZ 000000018012d6b4 f i libucrt:strtod.obj
 0001:0012c6f0       ?assemble_floating_point_value@__crt_strtox@@YA?AW4SLD_STATUS@@_KH_N1AEBVfloating_point_value@1@@Z 000000018012d6f0 f i libucrt:strtod.obj
 0001:0012ca9c       ?assemble_floating_point_value_from_big_integer@__crt_strtox@@YA?AW4SLD_STATUS@@AEBUbig_integer@1@I_N1AEBVfloating_point_value@1@@Z 000000018012da9c f i libucrt:strtod.obj
 0001:0012cbfc       ?convert_decimal_string_to_floating_type_common@__crt_strtox@@YA?AW4SLD_STATUS@@AEBUfloating_point_string@1@AEBVfloating_point_value@1@@Z 000000018012dbfc f i libucrt:strtod.obj
 0001:0012ea7c       ?convert_hexadecimal_string_to_floating_type_common@__crt_strtox@@YA?AW4SLD_STATUS@@AEBUfloating_point_string@1@AEBVfloating_point_value@1@@Z 000000018012fa7c f i libucrt:strtod.obj
 0001:0012eb30       ?divide@__crt_strtox@@YA_KAEAUbig_integer@1@AEBU21@@Z 000000018012fb30 f i libucrt:strtod.obj
 0001:0012efcc       _ischartype_l              000000018012ffcc f i libucrt:strtod.obj
 0001:0012f0cc       strtod                     00000001801300cc f   libucrt:strtod.obj
 0001:0012f0d4       strtof                     00000001801300d4 f   libucrt:strtod.obj
 0001:0012f0dc       ??$is_overflow_condition@_K@__crt_strtox@@YA_NI_K@Z 00000001801300dc f i libucrt:strtox.obj
 0001:0012f114       ??$parse_integer@KV?$c_string_character_source@D@__crt_strtox@@$00@__crt_strtox@@YAKAEAV__crt_cached_ptd_host@@V?$c_string_character_source@D@0@H_N@Z 0000000180130114 f i libucrt:strtox.obj
 0001:0012f404       ??$parse_integer@KV?$c_string_character_source@_W@__crt_strtox@@$00@__crt_strtox@@YAKAEAV__crt_cached_ptd_host@@V?$c_string_character_source@_W@0@H_N@Z 0000000180130404 f i libucrt:strtox.obj
 0001:0012fba0       ??$parse_integer@_KV?$c_string_character_source@D@__crt_strtox@@$00@__crt_strtox@@YA_KAEAV__crt_cached_ptd_host@@V?$c_string_character_source@D@0@H_N@Z 0000000180130ba0 f i libucrt:strtox.obj
 0001:0012fe80       ?update_locale_slow@__crt_cached_ptd_host@@AEAAXXZ 0000000180130e80 f i libucrt:strtox.obj
 0001:0012fef8       strtol                     0000000180130ef8 f   libucrt:strtox.obj
 0001:0012ffac       strtoll                    0000000180130fac f   libucrt:strtox.obj
 0001:00130060       strtoul                    0000000180131060 f   libucrt:strtox.obj
 0001:00130114       strtoull                   0000000180131114 f   libucrt:strtox.obj
 0001:001301c8       wcstol                     00000001801311c8 f   libucrt:strtox.obj
 0001:0013027c       __acrt_initialize_stdio    000000018013127c f   libucrt:_file.obj
 0001:0013039c       __acrt_iob_func            000000018013139c f   libucrt:_file.obj
 0001:001303b0       __acrt_uninitialize_stdio  00000001801313b0 f   libucrt:_file.obj
 0001:0013040c       _get_stream_buffer_pointers 000000018013140c f   libucrt:_file.obj
 0001:00130454       _lock_file                 0000000180131454 f   libucrt:_file.obj
 0001:00130460       _unlock_file               0000000180131460 f   libucrt:_file.obj
 0001:00130590       fclose                     0000000180131590 f   libucrt:fclose.obj
 0001:00130848       __acrt_stdio_flush_nolock  0000000180131848 f   libucrt:fflush.obj
 0001:001308d4       _fflush_nolock             00000001801318d4 f   libucrt:fflush.obj
 0001:001309a8       _flushall                  00000001801319a8 f   libucrt:fflush.obj
 0001:001309b0       fflush                     00000001801319b0 f   libucrt:fflush.obj
 0001:00130a18       _fgetc_nolock              0000000180131a18 f   libucrt:fgetc.obj
 0001:00130a5c       _getc_nolock               0000000180131a5c f   libucrt:fgetc.obj
 0001:00130a64       fgetc                      0000000180131a64 f   libucrt:fgetc.obj
 0001:00130b78       fgetpos                    0000000180131b78 f   libucrt:fgetpos.obj
 0001:00130d2c       fputc                      0000000180131d2c f   libucrt:fputc.obj
 0001:00130dc4       _fread_nolock_s            0000000180131dc4 f   libucrt:fread.obj
 0001:00131024       fread                      0000000180132024 f   libucrt:fread.obj
 0001:00131044       fread_s                    0000000180132044 f   libucrt:fread.obj
 0001:001310ec       fsetpos                    00000001801320ec f   libucrt:fsetpos.obj
 0001:00131394       _fseeki64                  0000000180132394 f   libucrt:fseek.obj
 0001:0013142c       fseek                      000000018013242c f   libucrt:fseek.obj
 0001:00131588       _fwrite_internal           0000000180132588 f   libucrt:fwrite.obj
 0001:00131624       _fwrite_nolock_internal    0000000180132624 f   libucrt:fwrite.obj
 0001:00131838       fwrite                     0000000180132838 f   libucrt:fwrite.obj
 0001:00131a04       setvbuf                    0000000180132a04 f   libucrt:setvbuf.obj
 0001:00131b3c       _ungetc_nolock             0000000180132b3c f   libucrt:ungetc.obj
 0001:00131c5c       ungetc                     0000000180132c5c f   libucrt:ungetc.obj
 0001:00131e64       ??$ensure_buffer_is_big_enough@D@formatting_buffer@__crt_stdio_output@@QEAA_N_KAEAV__crt_cached_ptd_host@@@Z 0000000180132e64 f i libucrt:output.obj
 0001:00131f0c       ??$parse_integer@KV?$c_string_character_source@D@__crt_strtox@@$0A@@__crt_strtox@@YAKAEAV__crt_cached_ptd_host@@V?$c_string_character_source@D@0@H_N@Z 0000000180132f0c f i libucrt:output.obj
 0001:001321c0       ??$type_case_integer@$07@?$output_processor@DV?$string_output_adapter@D@__crt_stdio_output@@V?$format_validation_base@DV?$string_output_adapter@D@__crt_stdio_output@@@2@@__crt_stdio_output@@AEAA_N_N@Z 00000001801331c0 f i libucrt:output.obj
 0001:001321c0       ??$type_case_integer@$07@?$output_processor@DV?$string_output_adapter@D@__crt_stdio_output@@V?$standard_base@DV?$string_output_adapter@D@__crt_stdio_output@@@2@@__crt_stdio_output@@AEAA_N_N@Z 00000001801331c0 f i libucrt:output.obj
 0001:001323c4       ??$type_case_integer@$09@?$output_processor@DV?$string_output_adapter@D@__crt_stdio_output@@V?$format_validation_base@DV?$string_output_adapter@D@__crt_stdio_output@@@2@@__crt_stdio_output@@AEAA_N_N@Z 00000001801333c4 f i libucrt:output.obj
 0001:001323c4       ??$type_case_integer@$09@?$output_processor@DV?$string_output_adapter@D@__crt_stdio_output@@V?$standard_base@DV?$string_output_adapter@D@__crt_stdio_output@@@2@@__crt_stdio_output@@AEAA_N_N@Z 00000001801333c4 f i libucrt:output.obj
 0001:001325c8       ??$type_case_integer@$0BA@@?$output_processor@DV?$string_output_adapter@D@__crt_stdio_output@@V?$format_validation_base@DV?$string_output_adapter@D@__crt_stdio_output@@@2@@__crt_stdio_output@@AEAA_N_N@Z 00000001801335c8 f i libucrt:output.obj
 0001:001325c8       ??$type_case_integer@$0BA@@?$output_processor@DV?$string_output_adapter@D@__crt_stdio_output@@V?$standard_base@DV?$string_output_adapter@D@__crt_stdio_output@@@2@@__crt_stdio_output@@AEAA_N_N@Z 00000001801335c8 f i libucrt:output.obj
 0001:001327cc       ??$type_case_integer_parse_into_buffer@I$07@?$output_processor@DV?$string_output_adapter@D@__crt_stdio_output@@V?$format_validation_base@DV?$string_output_adapter@D@__crt_stdio_output@@@2@@__crt_stdio_output@@AEAAXI_N@Z 00000001801337cc f i libucrt:output.obj
 0001:001327cc       ??$type_case_integer_parse_into_buffer@I$07@?$output_processor@DV?$string_output_adapter@D@__crt_stdio_output@@V?$standard_base@DV?$string_output_adapter@D@__crt_stdio_output@@@2@@__crt_stdio_output@@AEAAXI_N@Z 00000001801337cc f i libucrt:output.obj
 0001:0013283c       ??$type_case_integer_parse_into_buffer@I$09@?$output_processor@DV?$string_output_adapter@D@__crt_stdio_output@@V?$format_validation_base@DV?$string_output_adapter@D@__crt_stdio_output@@@2@@__crt_stdio_output@@AEAAXI_N@Z 000000018013383c f i libucrt:output.obj
 0001:0013283c       ??$type_case_integer_parse_into_buffer@I$09@?$output_processor@DV?$string_output_adapter@D@__crt_stdio_output@@V?$standard_base@DV?$string_output_adapter@D@__crt_stdio_output@@@2@@__crt_stdio_output@@AEAAXI_N@Z 000000018013383c f i libucrt:output.obj
 0001:001328e8       ??$type_case_integer_parse_into_buffer@I$0BA@@?$output_processor@DV?$string_output_adapter@D@__crt_stdio_output@@V?$format_validation_base@DV?$string_output_adapter@D@__crt_stdio_output@@@2@@__crt_stdio_output@@AEAAXI_N@Z 00000001801338e8 f i libucrt:output.obj
 0001:001328e8       ??$type_case_integer_parse_into_buffer@I$0BA@@?$output_processor@DV?$string_output_adapter@D@__crt_stdio_output@@V?$standard_base@DV?$string_output_adapter@D@__crt_stdio_output@@@2@@__crt_stdio_output@@AEAAXI_N@Z 00000001801338e8 f i libucrt:output.obj
 0001:0013296c       ??$type_case_integer_parse_into_buffer@_K$07@?$output_processor@DV?$string_output_adapter@D@__crt_stdio_output@@V?$format_validation_base@DV?$string_output_adapter@D@__crt_stdio_output@@@2@@__crt_stdio_output@@AEAAX_K_N@Z 000000018013396c f i libucrt:output.obj
 0001:0013296c       ??$type_case_integer_parse_into_buffer@_K$07@?$output_processor@DV?$string_output_adapter@D@__crt_stdio_output@@V?$standard_base@DV?$string_output_adapter@D@__crt_stdio_output@@@2@@__crt_stdio_output@@AEAAX_K_N@Z 000000018013396c f i libucrt:output.obj
 0001:001329dc       ??$type_case_integer_parse_into_buffer@_K$09@?$output_processor@DV?$string_output_adapter@D@__crt_stdio_output@@V?$format_validation_base@DV?$string_output_adapter@D@__crt_stdio_output@@@2@@__crt_stdio_output@@AEAAX_K_N@Z 00000001801339dc f i libucrt:output.obj
 0001:001329dc       ??$type_case_integer_parse_into_buffer@_K$09@?$output_processor@DV?$string_output_adapter@D@__crt_stdio_output@@V?$standard_base@DV?$string_output_adapter@D@__crt_stdio_output@@@2@@__crt_stdio_output@@AEAAX_K_N@Z 00000001801339dc f i libucrt:output.obj
 0001:00132a8c       ??$type_case_integer_parse_into_buffer@_K$0BA@@?$output_processor@DV?$string_output_adapter@D@__crt_stdio_output@@V?$format_validation_base@DV?$string_output_adapter@D@__crt_stdio_output@@@2@@__crt_stdio_output@@AEAAX_K_N@Z 0000000180133a8c f i libucrt:output.obj
 0001:00132a8c       ??$type_case_integer_parse_into_buffer@_K$0BA@@?$output_processor@DV?$string_output_adapter@D@__crt_stdio_output@@V?$standard_base@DV?$string_output_adapter@D@__crt_stdio_output@@@2@@__crt_stdio_output@@AEAAX_K_N@Z 0000000180133a8c f i libucrt:output.obj
 0001:00132b10       ?crop_zeroes@__crt_stdio_output@@YAXPEADQEAU__crt_locale_pointers@@@Z 0000000180133b10 f i libucrt:output.obj
 0001:00132b7c       ?parse_int_from_format_string@?$output_processor@DV?$string_output_adapter@D@__crt_stdio_output@@V?$format_validation_base@DV?$string_output_adapter@D@__crt_stdio_output@@@2@@__crt_stdio_output@@AEAA_NQEAH@Z 0000000180133b7c f i libucrt:output.obj
 0001:00132b7c       ?parse_int_from_format_string@?$output_processor@DV?$string_output_adapter@D@__crt_stdio_output@@V?$standard_base@DV?$string_output_adapter@D@__crt_stdio_output@@@2@@__crt_stdio_output@@AEAA_NQEAH@Z 0000000180133b7c f i libucrt:output.obj
 0001:00132c0c       ?process@?$output_processor@DV?$string_output_adapter@D@__crt_stdio_output@@V?$format_validation_base@DV?$string_output_adapter@D@__crt_stdio_output@@@2@@__crt_stdio_output@@QEAAHXZ 0000000180133c0c f i libucrt:output.obj
 0001:00132f90       ?process@?$output_processor@DV?$string_output_adapter@D@__crt_stdio_output@@V?$standard_base@DV?$string_output_adapter@D@__crt_stdio_output@@@2@@__crt_stdio_output@@QEAAHXZ 0000000180133f90 f i libucrt:output.obj
 0001:00133310       ?state_case_size@?$output_processor@DV?$string_output_adapter@D@__crt_stdio_output@@V?$format_validation_base@DV?$string_output_adapter@D@__crt_stdio_output@@@2@@__crt_stdio_output@@AEAA_NXZ 0000000180134310 f i libucrt:output.obj
 0001:00133310       ?state_case_size@?$output_processor@DV?$string_output_adapter@D@__crt_stdio_output@@V?$standard_base@DV?$string_output_adapter@D@__crt_stdio_output@@@2@@__crt_stdio_output@@AEAA_NXZ 0000000180134310 f i libucrt:output.obj
 0001:00133498       ?state_case_type@?$output_processor@DV?$string_output_adapter@D@__crt_stdio_output@@V?$format_validation_base@DV?$string_output_adapter@D@__crt_stdio_output@@@2@@__crt_stdio_output@@AEAA_NXZ 0000000180134498 f i libucrt:output.obj
 0001:00133498       ?state_case_type@?$output_processor@DV?$string_output_adapter@D@__crt_stdio_output@@V?$standard_base@DV?$string_output_adapter@D@__crt_stdio_output@@@2@@__crt_stdio_output@@AEAA_NXZ 0000000180134498 f i libucrt:output.obj
 0001:0013389c       ?type_case_Z@?$output_processor@DV?$string_output_adapter@D@__crt_stdio_output@@V?$format_validation_base@DV?$string_output_adapter@D@__crt_stdio_output@@@2@@__crt_stdio_output@@AEAA_NXZ 000000018013489c f i libucrt:output.obj
 0001:0013389c       ?type_case_Z@?$output_processor@DV?$string_output_adapter@D@__crt_stdio_output@@V?$standard_base@DV?$string_output_adapter@D@__crt_stdio_output@@@2@@__crt_stdio_output@@AEAA_NXZ 000000018013489c f i libucrt:output.obj
 0001:00133918       ?type_case_a@?$output_processor@DV?$string_output_adapter@D@__crt_stdio_output@@V?$format_validation_base@DV?$string_output_adapter@D@__crt_stdio_output@@@2@@__crt_stdio_output@@AEAA_NXZ 0000000180134918 f i libucrt:output.obj
 0001:00133918       ?type_case_a@?$output_processor@DV?$string_output_adapter@D@__crt_stdio_output@@V?$standard_base@DV?$string_output_adapter@D@__crt_stdio_output@@@2@@__crt_stdio_output@@AEAA_NXZ 0000000180134918 f i libucrt:output.obj
 0001:00133b6c       ?type_case_c_tchar@?$output_processor@DV?$string_output_adapter@D@__crt_stdio_output@@V?$format_validation_base@DV?$string_output_adapter@D@__crt_stdio_output@@@2@@__crt_stdio_output@@AEAA_ND@Z 0000000180134b6c f i libucrt:output.obj
 0001:00133b6c       ?type_case_c_tchar@?$output_processor@DV?$string_output_adapter@D@__crt_stdio_output@@V?$standard_base@DV?$string_output_adapter@D@__crt_stdio_output@@@2@@__crt_stdio_output@@AEAA_ND@Z 0000000180134b6c f i libucrt:output.obj
 0001:00133c40       ?type_case_n@?$output_processor@DV?$string_output_adapter@D@__crt_stdio_output@@V?$format_validation_base@DV?$string_output_adapter@D@__crt_stdio_output@@@2@@__crt_stdio_output@@AEAA_NXZ 0000000180134c40 f i libucrt:output.obj
 0001:00133c40       ?type_case_n@?$output_processor@DV?$string_output_adapter@D@__crt_stdio_output@@V?$standard_base@DV?$string_output_adapter@D@__crt_stdio_output@@@2@@__crt_stdio_output@@AEAA_NXZ 0000000180134c40 f i libucrt:output.obj
 0001:00133cf8       ?type_case_s@?$output_processor@DV?$string_output_adapter@D@__crt_stdio_output@@V?$format_validation_base@DV?$string_output_adapter@D@__crt_stdio_output@@@2@@__crt_stdio_output@@AEAA_NXZ 0000000180134cf8 f i libucrt:output.obj
 0001:00133cf8       ?type_case_s@?$output_processor@DV?$string_output_adapter@D@__crt_stdio_output@@V?$standard_base@DV?$string_output_adapter@D@__crt_stdio_output@@@2@@__crt_stdio_output@@AEAA_NXZ 0000000180134cf8 f i libucrt:output.obj
 0001:00133d94       ?validate_stream_is_ansi_if_required@?$__acrt_stdio_char_traits@D@@SA_NQEAU_iobuf@@@Z 0000000180134d94 f i libucrt:output.obj
 0001:00133e30       ?write_string@?$string_output_adapter@D@__crt_stdio_output@@QEBAXQEBDHQEAHAEAV__crt_cached_ptd_host@@@Z 0000000180134e30 f i libucrt:output.obj
 0001:00133ed4       __stdio_common_vsprintf    0000000180134ed4 f   libucrt:output.obj
 0001:00134128       __stdio_common_vsprintf_s  0000000180135128 f   libucrt:output.obj
 0001:0013423c       localeconv                 000000018013523c f   libucrt:localeconv.obj
 0001:00134270       terminate                  0000000180135270 f   libucrt:terminate.obj
 0001:001343d4       _beginthreadex             00000001801353d4 f   libucrt:thread.obj
 0001:001344b0       _endthreadex               00000001801354b0 f   libucrt:thread.obj
 0001:001344bc       __ascii_stricmp            00000001801354bc f   libucrt:stricmp.obj
 0001:001344f8       _stricmp                   00000001801354f8 f   libucrt:stricmp.obj
 0001:00134540       _stricmp_l                 0000000180135540 f   libucrt:stricmp.obj
 0001:001345d0       cosf                       00000001801355d0 f   libucrt:cosf.obj
 0001:00134ad0       sinf                       0000000180135ad0 f   libucrt:sinf.obj
 0001:001351e0       strncpy                    00000001801361e0 f   libucrt:strncpy.obj
 0001:001354cc       _wfopen                    00000001801364cc f   libucrt:fopen.obj
 0001:001354d8       _wfsopen                   00000001801364d8 f   libucrt:fopen.obj
 0001:001354e0       fopen                      00000001801364e0 f   libucrt:fopen.obj
 0001:00135a70       _ftelli64                  0000000180136a70 f   libucrt:ftell.obj
 0001:00135b0c       _ftelli64_nolock_internal  0000000180136b0c f   libucrt:ftell.obj
 0001:00135b14       ftell                      0000000180136b14 f   libucrt:ftell.obj
 0001:00135bac       ??$parse_floating_point@V?$input_adapter_character_source@V?$string_input_adapter@D@__crt_stdio_input@@@__crt_strtox@@M@__crt_strtox@@YA?AW4SLD_STATUS@@QEAU__crt_locale_pointers@@V?$input_adapter_character_source@V?$string_input_adapter@D@__crt_stdio_input@@@0@QEAM@Z 0000000180136bac f i libucrt:input.obj
 0001:00135c54       ??$parse_floating_point@V?$input_adapter_character_source@V?$string_input_adapter@D@__crt_stdio_input@@@__crt_strtox@@N@__crt_strtox@@YA?AW4SLD_STATUS@@QEAU__crt_locale_pointers@@V?$input_adapter_character_source@V?$string_input_adapter@D@__crt_stdio_input@@@0@QEAN@Z 0000000180136c54 f i libucrt:input.obj
 0001:00135cfc       ??$parse_floating_point_from_source@V?$input_adapter_character_source@V?$string_input_adapter@D@__crt_stdio_input@@@__crt_strtox@@@__crt_strtox@@YA?AW4floating_point_parse_result@0@QEAU__crt_locale_pointers@@AEAV?$input_adapter_character_source@V?$string_input_adapter@D@__crt_stdio_input@@@0@AEAUfloating_point_string@0@@Z 0000000180136cfc f i libucrt:input.obj
 0001:001364a8       ??$parse_floating_point_possible_infinity@DV?$input_adapter_character_source@V?$string_input_adapter@D@__crt_stdio_input@@@__crt_strtox@@_K@__crt_strtox@@YA?AW4floating_point_parse_result@0@AEADAEAV?$input_adapter_character_source@V?$string_input_adapter@D@__crt_stdio_input@@@0@_K@Z 00000001801374a8 f i libucrt:input.obj
 0001:00136654       ??$parse_floating_point_possible_nan@DV?$input_adapter_character_source@V?$string_input_adapter@D@__crt_stdio_input@@@__crt_strtox@@_K@__crt_strtox@@YA?AW4floating_point_parse_result@0@AEADAEAV?$input_adapter_character_source@V?$string_input_adapter@D@__crt_stdio_input@@@0@_K@Z 0000000180137654 f i libucrt:input.obj
 0001:001368b4       ??$parse_floating_point_possible_nan_is_ind@DV?$input_adapter_character_source@V?$string_input_adapter@D@__crt_stdio_input@@@__crt_strtox@@@__crt_strtox@@YA_NAEADAEAV?$input_adapter_character_source@V?$string_input_adapter@D@__crt_stdio_input@@@0@@Z 00000001801378b4 f i libucrt:input.obj
 0001:00136930       ??$parse_floating_point_possible_nan_is_snan@DV?$input_adapter_character_source@V?$string_input_adapter@D@__crt_stdio_input@@@__crt_strtox@@@__crt_strtox@@YA_NAEADAEAV?$input_adapter_character_source@V?$string_input_adapter@D@__crt_stdio_input@@@0@@Z 0000000180137930 f i libucrt:input.obj
 0001:001369ac       ??$parse_integer@_KV?$input_adapter_character_source@V?$string_input_adapter@D@__crt_stdio_input@@@__crt_strtox@@$00@__crt_strtox@@YA_KAEAV__crt_cached_ptd_host@@V?$input_adapter_character_source@V?$string_input_adapter@D@__crt_stdio_input@@@0@H_N@Z 00000001801379ac f i libucrt:input.obj
 0001:00136de8       ??$parse_integer@_KV?$input_adapter_character_source@V?$string_input_adapter@D@__crt_stdio_input@@@__crt_strtox@@@__crt_strtox@@YA_KQEAU__crt_locale_pointers@@V?$input_adapter_character_source@V?$string_input_adapter@D@__crt_stdio_input@@@0@H_N@Z 0000000180137de8 f i libucrt:input.obj
 0001:00136ee8       ??$process_floating_point_specifier_t@M@?$input_processor@DV?$string_input_adapter@D@__crt_stdio_input@@@__crt_stdio_input@@AEAA_NXZ 0000000180137ee8 f i libucrt:input.obj
 0001:00136f90       ??$process_floating_point_specifier_t@N@?$input_processor@DV?$string_input_adapter@D@__crt_stdio_input@@@__crt_stdio_input@@AEAA_NXZ 0000000180137f90 f i libucrt:input.obj
 0001:00137038       ??$process_string_specifier_tchar@D@?$input_processor@DV?$string_input_adapter@D@__crt_stdio_input@@@__crt_stdio_input@@AEAA_NW4conversion_mode@1@D@Z 0000000180138038 f i libucrt:input.obj
 0001:001371ec       ??$process_string_specifier_tchar@_W@?$input_processor@DV?$string_input_adapter@D@__crt_stdio_input@@@__crt_stdio_input@@AEAA_NW4conversion_mode@1@_W@Z 00000001801381ec f i libucrt:input.obj
 0001:001373cc       ??$skip_whitespace@Vstring_input_adapter@__crt_stdio_input@@D@__crt_stdio_input@@YAHAEAV?$string_input_adapter@D@0@QEAU__crt_locale_pointers@@@Z 00000001801383cc f i libucrt:input.obj
 0001:00137420       ??R<lambda_1db4d925c2db10274e92824f631ccf5d>@@QEBA@XZ 0000000180138420 f i libucrt:input.obj
 0001:00137420       ??R<lambda_bdd123a27a08a14f93fbf44b617d0736>@@QEBA@XZ 0000000180138420 f i libucrt:input.obj
 0001:00137420       ??R<lambda_ee7c83d9f0cd4f1299194e0a8d424b67>@@QEBA@XZ 0000000180138420 f i libucrt:input.obj
 0001:00137484       ?advance@?$format_string_parser@D@__crt_stdio_input@@QEAA_NXZ 0000000180138484 f i libucrt:input.obj
 0001:0013764c       ?length@?$format_string_parser@D@__crt_stdio_input@@QEBA_KXZ 000000018013864c f i libucrt:input.obj
 0001:00137704       ?process@?$input_processor@DV?$string_input_adapter@D@__crt_stdio_input@@@__crt_stdio_input@@QEAAHXZ 0000000180138704 f i libucrt:input.obj
 0001:001377f8       ?process_conversion_specifier@?$input_processor@DV?$string_input_adapter@D@__crt_stdio_input@@@__crt_stdio_input@@AEAA_NXZ 00000001801387f8 f i libucrt:input.obj
 0001:00137918       ?process_floating_point_specifier@?$input_processor@DV?$string_input_adapter@D@__crt_stdio_input@@@__crt_stdio_input@@AEAA_NXZ 0000000180138918 f i libucrt:input.obj
 0001:00137988       ?process_integer_specifier@?$input_processor@DV?$string_input_adapter@D@__crt_stdio_input@@@__crt_stdio_input@@AEAA_NI_N@Z 0000000180138988 f i libucrt:input.obj
 0001:00137a40       ?process_literal_character_tchar@?$input_processor@DV?$string_input_adapter@D@__crt_stdio_input@@@__crt_stdio_input@@AEAA_ND@Z 0000000180138a40 f i libucrt:input.obj
 0001:00137ac8       ?process_state@?$input_processor@DV?$string_input_adapter@D@__crt_stdio_input@@@__crt_stdio_input@@AEAA_NXZ 0000000180138ac8 f i libucrt:input.obj
 0001:00137b80       ?process_string_specifier@?$input_processor@DV?$string_input_adapter@D@__crt_stdio_input@@@__crt_stdio_input@@AEAA_NW4conversion_mode@2@@Z 0000000180138b80 f i libucrt:input.obj
 0001:00137c0c       ?scan_conversion_specifier@?$format_string_parser@D@__crt_stdio_input@@AEAA_NXZ 0000000180138c0c f i libucrt:input.obj
 0001:00137dd4       ?scan_optional_field_width@?$format_string_parser@D@__crt_stdio_input@@AEAA_NXZ 0000000180138dd4 f i libucrt:input.obj
 0001:00137e74       ?scan_optional_length_modifier@?$format_string_parser@D@__crt_stdio_input@@AEAAXXZ 0000000180138e74 f i libucrt:input.obj
 0001:00137fa0       ?scan_scanset_range@?$format_string_parser@D@__crt_stdio_input@@AEAA_NXZ 0000000180138fa0 f i libucrt:input.obj
 0001:00138138       ?write_character@?$input_processor@DV?$string_input_adapter@D@__crt_stdio_input@@@__crt_stdio_input@@AEAA_NQEFA_W_KAEAPEFA_WAEA_KD@Z 0000000180139138 f i libucrt:input.obj
 0001:001381d0       ?write_integer@?$input_processor@DV?$string_input_adapter@D@__crt_stdio_input@@@__crt_stdio_input@@AEAA_N_K@Z 00000001801391d0 f i libucrt:input.obj
 0001:0013824c       __stdio_common_vsscanf     000000018013924c f   libucrt:input.obj
 0001:00138370       qsort                      0000000180139370 f   libucrt:qsort.obj
 0001:00138780       _tolower_l                 0000000180139780 f   libucrt:tolower_toupper.obj
 0001:001388b4       _toupper_l                 00000001801398b4 f   libucrt:tolower_toupper.obj
 0001:001389e8       tolower                    00000001801399e8 f   libucrt:tolower_toupper.obj
 0001:00138a14       toupper                    0000000180139a14 f   libucrt:tolower_toupper.obj
 0001:00138a40       fmodf                      0000000180139a40 f   libucrt:fmodf.obj
 0001:00138ca0       strcmp                     0000000180139ca0 f   libucrt:strcmp.obj
 0001:00138d08       acosf                      0000000180139d08 f   libucrt:acosf.obj
 0001:00138fa8       atof                       0000000180139fa8 f   libucrt:atof.obj
 0001:00138fb0       log                        0000000180139fb0 f   libucrt:log.obj
 0001:001394e0       logf                       000000018013a4e0 f   libucrt:logf.obj
 0001:001398e0       pow                        000000018013a8e0 f   libucrt:pow.obj
 0001:0013af74       calloc                     000000018013bf74 f   libucrt:calloc.obj
 0001:0013af7c       realloc                    000000018013bf7c f   libucrt:realloc.obj
 0001:0013b048       fputs                      000000018013c048 f   libucrt:fputs.obj
 0001:0013b1f0       _time64                    000000018013c1f0 f   libucrt:time.obj
 0001:0013b280       strncmp                    000000018013c280 f   libucrt:strncmp.obj
 0001:0013b3b8       ??$__acrt_convert_wcs_mbs_cp@D_WV<lambda_7c9dea7b4ca7285d2cdb541a38da6275>@@U__crt_win32_buffer_internal_dynamic_resizing@@@@YAHQEBDAEAV?$__crt_win32_buffer@_WU__crt_win32_buffer_internal_dynamic_resizing@@@@AEBV<lambda_7c9dea7b4ca7285d2cdb541a38da6275>@@I@Z 000000018013c3b8 f i libucrt:stat.obj
 0001:0013bc70       _fstat64                   000000018013cc70 f   libucrt:stat.obj
 0001:0013bd58       _stat64                    000000018013cd58 f   libucrt:stat.obj
 0001:0013be5c       _get_sys_err_msg           000000018013ce5c f i libucrt:strerror.obj
 0001:0013bec8       strerror                   000000018013cec8 f   libucrt:strerror.obj
 0001:0013bf68       _wtol                      000000018013cf68 f   libucrt:atox.obj
 0001:0013c018       atoi                       000000018013d018 f   libucrt:atox.obj
 0001:0013c170       strpbrk                    000000018013d170 f   libucrt:strpbrk.obj
 0001:0013c538       ??$__crt_time_is_leap_year@H@@YA_NH@Z 000000018013d538 f i libucrt:gmtime.obj
 0001:0013c81c       __getgmtimebuf             000000018013d81c f   libucrt:gmtime.obj
 0001:0013c868       _gmtime64                  000000018013d868 f   libucrt:gmtime.obj
 0001:0013c988       fgets                      000000018013d988 f   libucrt:fgets.obj
 0001:0013cc0c       _wgetenv_s                 000000018013dc0c f   libucrt:getenv.obj
 0001:0013cc14       getenv                     000000018013dc14 f   libucrt:getenv.obj
 0001:0013cde8       _lseeki64                  000000018013dde8 f   libucrt:lseek.obj
 0001:0013ce84       _lseeki64_internal         000000018013de84 f   libucrt:lseek.obj
 0001:0013ce8c       _lseeki64_nolock           000000018013de8c f   libucrt:lseek.obj
 0001:0013cf28       _lseeki64_nolock_internal  000000018013df28 f   libucrt:lseek.obj
 0001:0013cf30       _getpid                    000000018013df30 f   libucrt:getpid.obj
 0001:0013cfe0       strcspn                    000000018013dfe0 f   libucrt:strcspn.obj
 0001:0013d470       strspn                     000000018013e470 f   libucrt:strspn.obj
 0001:0013d840       __sys_errlist              000000018013e840 f   libucrt:syserr.obj
 0001:0013d848       __sys_nerr                 000000018013e848 f   libucrt:syserr.obj
 0001:0013d850       islower                    000000018013e850 f   libucrt:_ctype.obj
 0001:0013d900       isspace                    000000018013e900 f   libucrt:_ctype.obj
 0001:0013d9b0       isupper                    000000018013e9b0 f   libucrt:_ctype.obj
 0001:0013da58       abort                      000000018013ea58 f   libucrt:abort.obj
 0001:0013dab0       __acrt_initialize_locks    000000018013eab0 f   libucrt:locks.obj
 0001:0013daf8       __acrt_lock                000000018013eaf8 f   libucrt:locks.obj
 0001:0013db14       __acrt_uninitialize_locks  000000018013eb14 f   libucrt:locks.obj
 0001:0013db4c       __acrt_unlock              000000018013eb4c f   libucrt:locks.obj
 0001:0013db68       _lock_locales              000000018013eb68 f   libucrt:locks.obj
 0001:0013db84       _unlock_locales            000000018013eb84 f   libucrt:locks.obj
 0001:0013de70       setlocale                  000000018013ee70 f   libucrt:setlocale.obj
 0001:0013debc       frexp                      000000018013eebc f   libucrt:frexp.obj
 0001:0013dfb4       _ldclass                   000000018013efb4 f   libucrt:nanl.obj
 0001:0013dfd0       __pctype_func              000000018013efd0 f   libucrt:ctype.obj
 0001:0013e000       ___lc_codepage_func        000000018013f000 f   libucrt:initctype.obj
 0001:0013e030       ___lc_collate_cp_func      000000018013f030 f   libucrt:initctype.obj
 0001:0013e060       ___lc_locale_name_func     000000018013f060 f   libucrt:initctype.obj
 0001:0013e094       ___mb_cur_max_func         000000018013f094 f   libucrt:initctype.obj
 0001:0013e0c4       __acrt_locale_initialize_ctype 000000018013f0c4 f   libucrt:initctype.obj
 0001:0013e728       _wcsdup                    000000018013f728 f   libucrt:wcsdup.obj
 0001:0013e7ac       ??$__acrt_convert_wcs_mbs_cp@_WDV<lambda_f788ae46380686e8b737efdd8c720d07>@@U__crt_win32_buffer_no_resizing@@@@YAHQEB_WAEAV?$__crt_win32_buffer@DU__crt_win32_buffer_no_resizing@@@@AEBV<lambda_f788ae46380686e8b737efdd8c720d07>@@I@Z 000000018013f7ac f i libucrt:strftime.obj
 0001:0013e8c8       _Getdays                   000000018013f8c8 f   libucrt:strftime.obj
 0001:0013e8d0       _Getdays_l                 000000018013f8d0 f   libucrt:strftime.obj
 0001:0013ea14       _Getmonths                 000000018013fa14 f   libucrt:strftime.obj
 0001:0013ea1c       _Getmonths_l               000000018013fa1c f   libucrt:strftime.obj
 0001:0013eb74       _Gettnames                 000000018013fb74 f   libucrt:strftime.obj
 0001:0013eb7c       _Strftime                  000000018013fb7c f   libucrt:strftime.obj
 0001:0013eb9c       _Strftime_l                000000018013fb9c f   libucrt:strftime.obj
 0001:0014035c       _W_Getdays                 000000018014135c f   libucrt:wcsftime.obj
 0001:001404e8       _W_Getmonths               00000001801414e8 f   libucrt:wcsftime.obj
 0001:00140674       _W_Gettnames               0000000180141674 f   libucrt:wcsftime.obj
 0001:00140d20       _Wcsftime                  0000000180141d20 f   libucrt:wcsftime.obj
 0001:00140d40       _Wcsftime_l                0000000180141d40 f   libucrt:wcsftime.obj
 0001:00140ecc       __strncnt                  0000000180141ecc f   libucrt:strncnt.obj
 0001:00140ee4       strnlen                    0000000180141ee4 f   libucrt:strnlen.obj
 0001:00141034       wcsnlen                    0000000180142034 f   libucrt:strnlen.obj
 0001:0014120c       __acrt_initialize_new_handler 000000018014220c f   libucrt:new_handler.obj
 0001:00141214       _callnewh                  0000000180142214 f   libucrt:new_handler.obj
 0001:00141254       _query_new_handler         0000000180142254 f   libucrt:new_handler.obj
 0001:0014128c       _seh_filter_dll            000000018014228c f   libucrt:exception_filter.obj
 0001:001412a0       _seh_filter_exe            00000001801422a0 f   libucrt:exception_filter.obj
 0001:001416b8       __acrt_initialize_thread_local_exit_callback 00000001801426b8 f   libucrt:exit.obj
 0001:001416c0       _cexit                     00000001801426c0 f   libucrt:exit.obj
 0001:001416d0       _exit                      00000001801426d0 f   libucrt:exit.obj
 0001:001416dc       _is_c_termination_complete 00000001801426dc f   libucrt:exit.obj
 0001:001418ac       __acrt_allocate_buffer_for_argv 00000001801428ac f   libucrt:argv_parsing.obj
 0001:0014190c       _configure_narrow_argv     000000018014290c f   libucrt:argv_parsing.obj
 0001:00141fbc       __dcrt_get_or_create_narrow_environment_nolock 0000000180142fbc f   libucrt:environment_initialization.obj
 0001:00141ff8       __dcrt_get_or_create_wide_environment_nolock 0000000180142ff8 f   libucrt:environment_initialization.obj
 0001:00142034       __dcrt_uninitialize_environments_nolock 0000000180143034 f   libucrt:environment_initialization.obj
 0001:00142078       _initialize_narrow_environment 0000000180143078 f   libucrt:environment_initialization.obj
 0001:001423c8       _crt_atexit                00000001801433c8 f   libucrt:onexit.obj
 0001:001423d8       _execute_onexit_table      00000001801433d8 f   libucrt:onexit.obj
 0001:0014241c       _initialize_onexit_table   000000018014341c f   libucrt:onexit.obj
 0001:00142444       _register_onexit_function  0000000180143444 f   libucrt:onexit.obj
 0001:001425b8       __acrt_initialize          00000001801435b8 f   libucrt:initialization.obj
 0001:001425cc       __acrt_thread_attach       00000001801435cc f   libucrt:initialization.obj
 0001:001425e0       __acrt_thread_detach       00000001801435e0 f   libucrt:initialization.obj
 0001:001425f0       __acrt_uninitialize        00000001801435f0 f   libucrt:initialization.obj
 0001:00142628       __acrt_uninitialize_critical 0000000180143628 f   libucrt:initialization.obj
 0001:00142638       _initterm                  0000000180143638 f   libucrt:initterm.obj
 0001:0014267c       _initterm_e                000000018014367c f   libucrt:initterm.obj
 0001:001426c4       _strdup                    00000001801436c4 f   libucrt:strdup.obj
 0001:001426c4       strdup                     00000001801436c4 f   libucrt:strdup.obj
 0001:0014273c       _access                    000000018014373c f   libucrt:access.obj
 0001:0014273c       access                     000000018014373c f   libucrt:access.obj
 0001:00142750       _access_s                  0000000180143750 f   libucrt:access.obj
 0001:00142cc8       _read                      0000000180143cc8 f   libucrt:read.obj
 0001:00142cc8       read                       0000000180143cc8 f   libucrt:read.obj
 0001:00142de8       _read_nolock               0000000180143de8 f   libucrt:read.obj
 0001:00143a40       _write                     0000000180144a40 f   libucrt:write.obj
 0001:00143a40       write                      0000000180144a40 f   libucrt:write.obj
 0001:00143ad8       _write_internal            0000000180144ad8 f   libucrt:write.obj
 0001:00143bf8       _write_nolock              0000000180144bf8 f   libucrt:write.obj
 0001:00143f78       _close                     0000000180144f78 f   libucrt:close.obj
 0001:00143f78       close                      0000000180144f78 f   libucrt:close.obj
 0001:00144010       _close_internal            0000000180145010 f   libucrt:close.obj
 0001:001440d4       _close_nolock              00000001801450d4 f   libucrt:close.obj
 0001:0014416c       _close_nolock_internal     000000018014516c f   libucrt:close.obj
 0001:001449c0       _open                      00000001801459c0 f   libucrt:open.obj
 0001:001449c0       open                       00000001801459c0 f   libucrt:open.obj
 0001:001449e4       _sopen_nolock              00000001801459e4 f   libucrt:open.obj
 0001:00144b00       _sopen_s                   0000000180145b00 f   libucrt:open.obj
 0001:00144b34       _wsopen_nolock             0000000180145b34 f   libucrt:open.obj
 0001:00144f24       _wsopen_s                  0000000180145f24 f   libucrt:open.obj
 0001:00144f58       strcpy_s                   0000000180145f58 f   libucrt:strcpy_s.obj
 0001:00144fb8       wcsncmp                    0000000180145fb8 f   libucrt:wcsncmp.obj
 0001:0014535c       __acrt_freeptd             000000018014635c f   libucrt:per_thread_data.obj
 0001:001453a0       __acrt_getptd              00000001801463a0 f   libucrt:per_thread_data.obj
 0001:00145474       __acrt_getptd_head         0000000180146474 f   libucrt:per_thread_data.obj
 0001:00145518       __acrt_getptd_noexit       0000000180146518 f   libucrt:per_thread_data.obj
 0001:001455e0       __acrt_getptd_noexit_explicit 00000001801465e0 f   libucrt:per_thread_data.obj
 0001:001456a0       __acrt_initialize_ptd      00000001801466a0 f   libucrt:per_thread_data.obj
 0001:001456dc       __acrt_uninitialize_ptd    00000001801466dc f   libucrt:per_thread_data.obj
 0001:00145968       ?commit_locale_name@_expandlocale_locale_name_cache@@QEAAXQEB_W_K@Z 0000000180146968 f i libucrt:wsetlocale.obj
 0001:001459e0       __acrt_copy_locale_name    00000001801469e0 f   libucrt:wsetlocale.obj
 0001:00145a64       __acrt_set_locale_changed  0000000180146a64 f   libucrt:wsetlocale.obj
 0001:00145a70       __acrt_uninitialize_locale 0000000180146a70 f   libucrt:wsetlocale.obj
 0001:00145aa0       __lc_lctowcs               0000000180146aa0 f   libucrt:wsetlocale.obj
 0001:00145b44       __lc_wcstolc               0000000180146b44 f   libucrt:wsetlocale.obj
 0001:001461ec       _wcscats                   00000001801471ec f   libucrt:wsetlocale.obj
 0001:00146254       _wsetlocale                0000000180147254 f   libucrt:wsetlocale.obj
 0001:00146f80       _dtest                     0000000180147f80 f   libucrt:_test.obj
 0001:00146fe4       _fd_int                    0000000180147fe4 f   libucrt:_test.obj
 0001:001470bc       _ldtest                    00000001801480bc f   libucrt:_test.obj
 0001:001470c4       _clrfp                     00000001801480c4 f   libucrt:fpctrl.obj
 0001:001470e4       _ctrlfp                    00000001801480e4 f   libucrt:fpctrl.obj
 0001:00147160       _set_statfp                0000000180148160 f   libucrt:fpctrl.obj
 0001:00147180       _statfp                    0000000180148180 f   libucrt:fpctrl.obj
 0001:001472b8       _handle_error              00000001801482b8 f   libucrt:libm_error.obj
 0001:001473e0       _handle_errorf             00000001801483e0 f   libucrt:libm_error.obj
 0001:00147514       _handle_nan                0000000180148514 f   libucrt:libm_error.obj
 0001:00147530       _handle_nanf               0000000180148530 f   libucrt:libm_error.obj
 0001:00147540       _pow_special               0000000180148540 f   libucrt:pow_special.obj
 0001:00147674       _powf_special              0000000180148674 f   libucrt:pow_special.obj
 0001:001477e4       __acrt_initialize_fma3     00000001801487e4 f   libucrt:fma3_available.obj
 0001:00147854       _cosf_special              0000000180148854 f   libucrt:sincos_special.obj
 0001:00147998       _sinf_special              0000000180148998 f   libucrt:sincos_special.obj
 0001:001479ac       _tan_special               00000001801489ac f   libucrt:sincos_special.obj
 0001:001479c0       __remainder_piby2_fma3     00000001801489c0 f   libucrt:remainder_piby2_forfma3.obj
 0001:00147bb0       __remainder_piby2_fma3_bdl 0000000180148bb0 f   libucrt:remainder_piby2_forfma3.obj
 0001:00147c30       __remainder_piby2_forAsm   0000000180148c30 f   libucrt:remainder_piby2_forasm.obj
 0001:00147e40       __remainder_piby2_cw_forAsm 0000000180148e40 f   libucrt:remainder_piby2_forasm.obj
 0001:00147f74       _free_base                 0000000180148f74 f   libucrt:free_base.obj
 0001:00147fb0       _malloc_base               0000000180148fb0 f   libucrt:malloc_base.obj
 0001:00148010       _towlower_l                0000000180149010 f   libucrt:towlower.obj
 0001:00148104       __acrt_update_locale_info  0000000180149104 f   libucrt:locale_update.obj
 0001:00148138       __acrt_update_locale_info_explicit 0000000180149138 f   libucrt:locale_update.obj
 0001:00148170       __acrt_update_multibyte_info 0000000180149170 f   libucrt:locale_update.obj
 0001:001481a4       __acrt_update_multibyte_info_explicit 00000001801491a4 f   libucrt:locale_update.obj
 0001:001481dc       iswctype                   00000001801491dc f   libucrt:iswctype.obj
 0001:00148248       _isctype_l                 0000000180149248 f   libucrt:isctype.obj
 0001:00148350       fegetround                 0000000180149350 f   libucrt:fegetround.obj
 0001:00148364       _calloc_base               0000000180149364 f   libucrt:calloc_base.obj
 0001:0014864c       __acrt_AppPolicyGetProcessTerminationMethodInternal 000000018014964c f   libucrt:winapi_thunks.obj
 0001:001486a4       __acrt_AppPolicyGetThreadInitializationTypeInternal 00000001801496a4 f   libucrt:winapi_thunks.obj
 0001:001486fc       __acrt_AreFileApisANSI     00000001801496fc f   libucrt:winapi_thunks.obj
 0001:00148740       __acrt_CompareStringEx     0000000180149740 f   libucrt:winapi_thunks.obj
 0001:0014882c       __acrt_EnumSystemLocalesEx 000000018014982c f   libucrt:winapi_thunks.obj
 0001:001488cc       __acrt_FlsAlloc            00000001801498cc f   libucrt:winapi_thunks.obj
 0001:001488d4       __acrt_FlsFree             00000001801498d4 f   libucrt:winapi_thunks.obj
 0001:001488dc       __acrt_FlsGetValue         00000001801498dc f   libucrt:winapi_thunks.obj
 0001:001488e4       __acrt_FlsSetValue         00000001801498e4 f   libucrt:winapi_thunks.obj
 0001:001488ec       __acrt_GetDateFormatEx     00000001801498ec f   libucrt:winapi_thunks.obj
 0001:001489ac       __acrt_GetLocaleInfoEx     00000001801499ac f   libucrt:winapi_thunks.obj
 0001:00148a3c       __acrt_GetTimeFormatEx     0000000180149a3c f   libucrt:winapi_thunks.obj
 0001:00148af0       __acrt_GetUserDefaultLocaleName 0000000180149af0 f   libucrt:winapi_thunks.obj
 0001:00148b5c       __acrt_InitializeCriticalSectionEx 0000000180149b5c f   libucrt:winapi_thunks.obj
 0001:00148bcc       __acrt_IsValidLocaleName   0000000180149bcc f   libucrt:winapi_thunks.obj
 0001:00148c30       __acrt_LCIDToLocaleName    0000000180149c30 f   libucrt:winapi_thunks.obj
 0001:00148cb4       __acrt_LCMapStringEx       0000000180149cb4 f   libucrt:winapi_thunks.obj
 0001:00148da0       __acrt_LocaleNameToLCID    0000000180149da0 f   libucrt:winapi_thunks.obj
 0001:00148e00       __acrt_RoInitialize        0000000180149e00 f   libucrt:winapi_thunks.obj
 0001:00148e4c       __acrt_RoUninitialize      0000000180149e4c f   libucrt:winapi_thunks.obj
 0001:00148e8c       __acrt_can_use_vista_locale_apis 0000000180149e8c f   libucrt:winapi_thunks.obj
 0001:00148ebc       __acrt_eagerly_load_locale_apis 0000000180149ebc f   libucrt:winapi_thunks.obj
 0001:00149018       __acrt_initialize_winapi_thunks 000000018014a018 f   libucrt:winapi_thunks.obj
 0001:0014903c       __acrt_uninitialize_winapi_thunks 000000018014a03c f   libucrt:winapi_thunks.obj
 0001:00149080       _fcloseall                 000000018014a080 f   libucrt:closeall.obj
 0001:00149134       __acrt_stdio_free_buffer_nolock 000000018014a134 f   libucrt:_freebuf.obj
 0001:00149370       __acrt_initialize_lowio    000000018014a370 f   libucrt:ioinit.obj
 0001:001493ac       __acrt_uninitialize_lowio  000000018014a3ac f   libucrt:ioinit.obj
 0001:001493ec       _fileno                    000000018014a3ec f   libucrt:fileno.obj
 0001:00149414       ?__acrt_stdio_allocate_stream@@YA?AV__crt_stdio_stream@@XZ 000000018014a414 f   libucrt:stream.obj
 0001:0014946c       ?__acrt_stdio_free_stream@@YAXV__crt_stdio_stream@@@Z 000000018014a46c f   libucrt:stream.obj
 0001:00149600       _commit                    000000018014a600 f   libucrt:commit.obj
 0001:00149694       __acrt_stdio_refill_and_read_narrow_nolock 000000018014a694 f   libucrt:_filbuf.obj
 0001:00149970       __acrt_stdio_flush_and_write_narrow_nolock 000000018014a970 f   libucrt:_flsbuf.obj
 0001:00149a3c       __acrt_should_use_temporary_buffer 000000018014aa3c f   libucrt:_sftbuf.obj
 0001:00149a88       __acrt_stdio_begin_temporary_buffering_nolock 000000018014aa88 f   libucrt:_sftbuf.obj
 0001:00149b50       __acrt_stdio_end_temporary_buffering_nolock 000000018014ab50 f   libucrt:_sftbuf.obj
 0001:00149b90       __acrt_stdio_allocate_buffer_nolock 000000018014ab90 f   libucrt:_getbuf.obj
 0001:0014a710       __acrt_fp_format           000000018014b710 f   libucrt:cvt.obj
 0001:0014a9f8       _wctomb_internal           000000018014b9f8 f   libucrt:wctomb.obj
 0001:0014aba8       _mbtowc_internal           000000018014bba8 f   libucrt:mbtowc.obj
 0001:0014ad20       _mbtowc_l                  000000018014bd20 f   libucrt:mbtowc.obj
 0001:0014adc4       _get_printf_count_output   000000018014bdc4 f   libucrt:printf_count_output.obj
 0001:0014addc       __acrt_get_begin_thread_init_policy 000000018014bddc f   libucrt:win_policies.obj
 0001:0014ae1c       __acrt_get_process_end_policy 000000018014be1c f   libucrt:win_policies.obj
 0001:0014ae50       __remainder_piby2d2f_forAsm 000000018014be50 f   libucrt:remainder_piby2f_forasm.obj
 0001:0014afa0       __remainder_piby2d2f_forC  000000018014bfa0 f   libucrt:remainder_piby2f_forc.obj
 0001:0014b12c       ??$__acrt_stdio_parse_mode@D@@YA?AU__acrt_stdio_stream_mode@@QEBD@Z 000000018014c12c f i libucrt:openfile.obj
 0001:0014b3f0       ??$__acrt_stdio_parse_mode@_W@@YA?AU__acrt_stdio_stream_mode@@QEB_W@Z 000000018014c3f0 f i libucrt:openfile.obj
 0001:0014b6f4       _openfile                  000000018014c6f4 f   libucrt:openfile.obj
 0001:0014b790       _wopenfile                 000000018014c790 f   libucrt:openfile.obj
 0001:0014bb60       __acrt_LCMapStringA        000000018014cb60 f   libucrt:lcmapstringa.obj
 0001:0014bc00       _log10_special             000000018014cc00 f   libucrt:log_special.obj
 0001:0014bc20       _log_special               000000018014cc20 f   libucrt:log_special.obj
 0001:0014bcd8       _logf_special              000000018014ccd8 f   libucrt:log_special.obj
 0001:0014bda0       _realloc_base              000000018014cda0 f   libucrt:realloc_base.obj
 0001:0014be1c       _getdrive                  000000018014ce1c f   libucrt:drive.obj
 0001:0014bf14       ??$call_win32_function@V<lambda_17b8e77e04f0039ff1429d79b8271fa1>@@@?$__crt_win32_buffer@_WU__crt_win32_buffer_no_resizing@@@@QEAAHAEBV<lambda_17b8e77e04f0039ff1429d79b8271fa1>@@@Z 000000018014cf14 f i libucrt:fullpath.obj
 0001:0014bf88       ??$call_win32_function@V<lambda_1a60cddbd8640ed4c95e91b82cd9827b>@@@?$__crt_win32_buffer@_WU__crt_win32_buffer_public_dynamic_resizing@@@@QEAAHAEBV<lambda_1a60cddbd8640ed4c95e91b82cd9827b>@@@Z 000000018014cf88 f i libucrt:fullpath.obj
 0001:0014c060       ?detach@?$__crt_win32_buffer@_WU__crt_win32_buffer_public_dynamic_resizing@@@@QEAAPEA_WXZ 000000018014d060 f i libucrt:fullpath.obj
 0001:0014c144       _wfullpath                 000000018014d144 f   libucrt:fullpath.obj
 0001:0014c1f8       wcspbrk                    000000018014d1f8 f   libucrt:wcspbrk.obj
 0001:0014c22c       __ascii_wcsicmp            000000018014d22c f   libucrt:wcsicmp.obj
 0001:0014c26c       _wcsicmp                   000000018014d26c f   libucrt:wcsicmp.obj
 0001:0014c2b4       _wcsicmp_l                 000000018014d2b4 f   libucrt:wcsicmp.obj
 0001:0014c3e8       __acrt_MultiByteToWideChar 000000018014d3e8 f   libucrt:multibytetowidechar.obj
 0001:0014c478       __acrt_lowio_create_handle_array 000000018014d478 f   libucrt:osfinfo.obj
 0001:0014c520       __acrt_lowio_destroy_handle_array 000000018014d520 f   libucrt:osfinfo.obj
 0001:0014c570       __acrt_lowio_ensure_fh_exists 000000018014d570 f   libucrt:osfinfo.obj
 0001:0014c618       __acrt_lowio_lock_fh       000000018014d618 f   libucrt:osfinfo.obj
 0001:0014c640       __acrt_lowio_set_os_handle 000000018014d640 f   libucrt:osfinfo.obj
 0001:0014c700       __acrt_lowio_unlock_fh     000000018014d700 f   libucrt:osfinfo.obj
 0001:0014c728       _alloc_osfhnd              000000018014d728 f   libucrt:osfinfo.obj
 0001:0014c868       _free_osfhnd               000000018014d868 f   libucrt:osfinfo.obj
 0001:0014c924       _get_osfhandle             000000018014d924 f   libucrt:osfinfo.obj
 0001:0014cbd0       __loctotime64_t            000000018014dbd0 f   libucrt:loctotime.obj
 0001:0014cef4       mbstowcs_s                 000000018014def4 f   libucrt:mbstowcs.obj
 0001:0014cf9c       strncpy_s                  000000018014df9c f   libucrt:strncpy_s.obj
 0001:0014d08c       wcscpy_s                   000000018014e08c f   libucrt:wcscpy_s.obj
 0001:0014d0f4       _wcsnicoll                 000000018014e0f4 f   libucrt:wcsnicol.obj
 0001:0014d144       _wcsnicoll_l               000000018014e144 f   libucrt:wcsnicol.obj
 0001:0014d234       _strnicoll                 000000018014e234 f   libucrt:strnicol.obj
 0001:0014d24c       _strnicoll_l               000000018014e24c f   libucrt:strnicol.obj
 0001:0014d394       __acrt_get_sigabrt_handler 000000018014e394 f   libucrt:signal.obj
 0001:0014d3c4       __acrt_initialize_signal_handlers 000000018014e3c4 f   libucrt:signal.obj
 0001:0014d3e4       raise                      000000018014e3e4 f   libucrt:signal.obj
 0001:0014dab4       _wcstombs_s_l              000000018014eab4 f   libucrt:wcstombs.obj
 0001:0014db6c       _errcode                   000000018014eb6c f   libucrt:fpexcept.obj
 0001:0014dbb0       _except1                   000000018014ebb0 f   libucrt:fpexcept.obj
 0001:0014dca4       _handle_exc                000000018014eca4 f   libucrt:fpexcept.obj
 0001:0014df98       _raise_exc                 000000018014ef98 f   libucrt:fpexcept.obj
 0001:0014dfc0       _raise_exc_ex              000000018014efc0 f   libucrt:fpexcept.obj
 0001:0014e2c8       _raise_excf                000000018014f2c8 f   libucrt:fpexcept.obj
 0001:0014e2f4       _set_errno_from_matherr    000000018014f2f4 f   libucrt:fpexcept.obj
 0001:0014e324       _umatherr                  000000018014f324 f   libucrt:fpexcept.obj
 0001:0014e3f4       _decomp                    000000018014f3f4 f   libucrt:util.obj
 0001:0014e524       _sptype                    000000018014f524 f   libucrt:util.obj
 0001:0014e718       __acrt_GetLocaleInfoA      000000018014f718 f   libucrt:getlocaleinfoa.obj
 0001:0014e8e0       __acrt_GetStringTypeA      000000018014f8e0 f   libucrt:getstringtypea.obj
 0001:0014ea70       __acrt_WideCharToMultiByte 000000018014fa70 f   libucrt:widechartomultibyte.obj
 0001:0014eb50       __acrt_initialize_timeset  000000018014fb50 f   libucrt:timeset.obj
 0001:0014eba0       __daylight                 000000018014fba0 f   libucrt:timeset.obj
 0001:0014eba8       __dstbias                  000000018014fba8 f   libucrt:timeset.obj
 0001:0014ebb0       __timezone                 000000018014fbb0 f   libucrt:timeset.obj
 0001:0014ebb8       __tzname                   000000018014fbb8 f   libucrt:timeset.obj
 0001:0014ebc0       __wide_tzname              000000018014fbc0 f   libucrt:timeset.obj
 0001:0014ebc8       _get_daylight              000000018014fbc8 f   libucrt:timeset.obj
 0001:0014ebf8       _get_dstbias               000000018014fbf8 f   libucrt:timeset.obj
 0001:0014ec28       _get_timezone              000000018014fc28 f   libucrt:timeset.obj
 0001:0014f7c4       __tzset                    00000001801507c4 f   libucrt:tzset.obj
 0001:0014f808       _isindst                   0000000180150808 f   libucrt:tzset.obj
 0001:0014f838       __acrt_app_verifier_enabled 0000000180150838 f   libucrt:peb_access.obj
 0001:0014f854       __acrt_is_secure_process   0000000180150854 f   libucrt:peb_access.obj
 0001:0014f880       ??$__acrt_convert_wcs_mbs_cp@_WDV<lambda_d8593a27d1aa8c02be35c86a17d324c4>@@U__crt_win32_buffer_internal_dynamic_resizing@@@@YAHQEB_WAEAV?$__crt_win32_buffer@DU__crt_win32_buffer_internal_dynamic_resizing@@@@AEBV<lambda_d8593a27d1aa8c02be35c86a17d324c4>@@I@Z 0000000180150880 f i libucrt:argv_wildcards.obj
 0001:00150124       __acrt_expand_narrow_argv_wildcards 0000000180151124 f   libucrt:argv_wildcards.obj
 0001:0015012c       __acrt_GetModuleFileNameA  000000018015112c f   libucrt:getmodulefilenamea.obj
 0001:00150a48       __acrt_initialize_multibyte 0000000180151a48 f   libucrt:mbctype.obj
 0001:00150aa8       __acrt_update_thread_multibyte_data 0000000180151aa8 f   libucrt:mbctype.obj
 0001:00150ac4       _setmbcp_nolock            0000000180151ac4 f   libucrt:mbctype.obj
 0001:00150df8       _ismbblead                 0000000180151df8 f   libucrt:ismbbyte.obj
 0001:00150e0c       __acrt_initialize_command_line 0000000180151e0c f   libucrt:argv_data.obj
 0001:00150e34       __dcrt_get_narrow_environment_from_os 0000000180151e34 f   libucrt:get_environment_from_os.obj
 0001:00150f44       __dcrt_get_wide_environment_from_os 0000000180151f44 f   libucrt:get_environment_from_os.obj
 0001:00151874       __dcrt_set_variable_in_narrow_environment_nolock 0000000180152874 f   libucrt:setenv.obj
 0001:0015187c       __dcrt_set_variable_in_wide_environment_nolock 000000018015287c f   libucrt:setenv.obj
 0001:00151884       _recalloc_base             0000000180152884 f   libucrt:recalloc.obj
 0001:0015191c       __acrt_initialize_heap     000000018015291c f   libucrt:heap_handle.obj
 0001:00151938       __acrt_uninitialize_heap   0000000180152938 f   libucrt:heap_handle.obj
 0001:00151944       __acrt_execute_initializers 0000000180152944 f   libucrt:shared_initialization.obj
 0001:001519d8       __acrt_execute_uninitializers 00000001801529d8 f   libucrt:shared_initialization.obj
 0001:00151a20       __acrt_has_user_matherr    0000000180152a20 f   libucrt:matherr.obj
 0001:00151a40       __acrt_initialize_user_matherr 0000000180152a40 f   libucrt:matherr.obj
 0001:00151a48       __acrt_invoke_user_matherr 0000000180152a48 f   libucrt:matherr.obj
 0001:00151a84       _waccess_s                 0000000180152a84 f   libucrt:waccess.obj
 0001:00151b30       _isatty                    0000000180152b30 f   libucrt:isatty.obj
 0001:00151b90       ?__mbrtowc_utf8@__crt_mbstring@@YA_KPEA_WPEBD_KPEAU_Mbstatet@@AEAV__crt_cached_ptd_host@@@Z 0000000180152b90 f   libucrt:mbrtowc.obj
 0001:00151bd4       ?__mbsrtowcs_utf8@__crt_mbstring@@YA_KPEA_WPEAPEBD_KPEAU_Mbstatet@@AEAV__crt_cached_ptd_host@@@Z 0000000180152bd4 f   libucrt:mbrtowc.obj
 0001:00151d78       _putwch_nolock             0000000180152d78 f   libucrt:putwch.obj
 0001:00151db4       _get_fmode                 0000000180152db4 f   libucrt:setmode.obj
 0001:00151de4       _setmode_nolock            0000000180152de4 f   libucrt:setmode.obj
 0001:00151ec8       _chsize_nolock             0000000180152ec8 f   libucrt:chsize.obj
 0001:00151f60       _chsize_nolock_internal    0000000180152f60 f   libucrt:chsize.obj
 0001:001520f4       __acrt_add_locale_ref      00000001801530f4 f   libucrt:locale_refcounting.obj
 0001:00152180       __acrt_free_locale         0000000180153180 f   libucrt:locale_refcounting.obj
 0001:001522f8       __acrt_locale_add_lc_time_reference 00000001801532f8 f   libucrt:locale_refcounting.obj
 0001:00152320       __acrt_locale_free_lc_time_if_unreferenced 0000000180153320 f   libucrt:locale_refcounting.obj
 0001:00152358       __acrt_locale_release_lc_time_reference 0000000180153358 f   libucrt:locale_refcounting.obj
 0001:00152380       __acrt_release_locale_ref  0000000180153380 f   libucrt:locale_refcounting.obj
 0001:00152428       __acrt_update_thread_locale_data 0000000180153428 f   libucrt:locale_refcounting.obj
 0001:00152498       _updatetlocinfoEx_nolock   0000000180153498 f   libucrt:locale_refcounting.obj
 0001:00152500       __acrt_locale_free_monetary 0000000180153500 f   libucrt:initmon.obj
 0001:0015260c       __acrt_locale_initialize_monetary 000000018015360c f   libucrt:initmon.obj
 0001:00152b28       __acrt_locale_free_numeric 0000000180153b28 f   libucrt:initnum.obj
 0001:00152b94       __acrt_locale_initialize_numeric 0000000180153b94 f   libucrt:initnum.obj
 0001:001531f0       __acrt_locale_free_time    00000001801541f0 f   libucrt:inittime.obj
 0001:001532f8       __acrt_locale_initialize_time 00000001801542f8 f   libucrt:inittime.obj
 0001:00153394       wcscat_s                   0000000180154394 f   libucrt:wcscat_s.obj
 0001:0015340c       wcsncat_s                  000000018015440c f   libucrt:wcsncat_s.obj
 0001:00153504       wcsncpy_s                  0000000180154504 f   libucrt:wcsncpy_s.obj
 0001:00153600       wcscspn                    0000000180154600 f   libucrt:wcscspn.obj
 0001:00153de0       __acrt_get_qualified_locale 0000000180154de0 f   libucrt:get_qualified_locale.obj
 0001:00154828       __acrt_get_qualified_locale_downlevel 0000000180155828 f   libucrt:getqloc_downlevel.obj
 0001:00154aa8       __acrt_fenv_get_common_round_control 0000000180155aa8 f   libucrt:_fenvutils.obj
 0001:00154ab4       __acrt_fenv_get_control    0000000180155ab4 f   libucrt:_fenvutils.obj
 0001:00154b98       __acrt_fenv_get_status     0000000180155b98 f   libucrt:_fenvutils.obj
 0001:00154bf0       __acrt_fenv_set_control    0000000180155bf0 f   libucrt:_fenvutils.obj
 0001:00154d28       __acrt_fenv_set_status     0000000180155d28 f   libucrt:_fenvutils.obj
 0001:00154db0       _get_fpsr                  0000000180155db0 f   libucrt:fpsr.obj
 0001:00154dc0       _set_fpsr                  0000000180155dc0 f   libucrt:fpsr.obj
 0001:00154dca       _fclrf                     0000000180155dca f   libucrt:fpsr.obj
 0001:00154dde       _frnd                      0000000180155dde f   libucrt:fpsr.obj
 0001:00154e00       _query_new_mode            0000000180155e00 f   libucrt:new_mode.obj
 0001:00154e08       __acrt_LCMapStringW        0000000180155e08 f   libucrt:lcmapstringw.obj
 0001:00154e90       __acrt_GetStringTypeW      0000000180155e90 f   libucrt:getstringtypew.obj
 0001:00154e98       __acrt_DownlevelLCIDToLocaleName 0000000180155e98 f   libucrt:lcidtoname_downlevel.obj
 0001:00154f80       __acrt_DownlevelLocaleNameToLCID 0000000180155f80 f   libucrt:lcidtoname_downlevel.obj
 0001:001550f4       __acrt_fp_strflt_to_string 00000001801560f4 f   libucrt:_fptostr.obj
 0001:00155204       __acrt_fltout              0000000180156204 f   libucrt:cfout.obj
 0001:00156494       ?__c32rtomb_utf8@__crt_mbstring@@YA_KPEAD_UPEAU_Mbstatet@@AEAV__crt_cached_ptd_host@@@Z 0000000180157494 f   libucrt:c32rtomb.obj
 0001:00156538       __ascii_strnicmp           0000000180157538 f   libucrt:strnicmp.obj
 0001:00156584       _strnicmp                  0000000180157584 f   libucrt:strnicmp.obj
 0001:001565d4       _strnicmp_l                00000001801575d4 f   libucrt:strnicmp.obj
 0001:00156874       _wgetcwd                   0000000180157874 f   libucrt:getcwd.obj
 0001:0015689c       _query_app_type            000000018015789c f   libucrt:report_runtime_error.obj
 0001:001568a4       __acrt_CompareStringW      00000001801578a4 f   libucrt:comparestringw.obj
 0001:00156ce8       __acrt_CompareStringA      0000000180157ce8 f   libucrt:comparestringa.obj
 0001:00156d74       ?__wcsrtombs_utf8@__crt_mbstring@@YA_KPEADPEAPEB_W_KPEAU_Mbstatet@@AEAV__crt_cached_ptd_host@@@Z 0000000180157d74 f   libucrt:wcrtomb.obj
 0001:00156ec8       _mbsdec                    0000000180157ec8 f   libucrt:mbsdec.obj
 0001:00156ed0       _mbsdec_l                  0000000180157ed0 f   libucrt:mbsdec.obj
 0001:00156f7c       __acrt_SetEnvironmentVariableA 0000000180157f7c f   libucrt:setenvironmentvariablea.obj
 0001:0015711c       _msize_base                000000018015811c f   libucrt:msize.obj
 0001:00157158       ?__mbrtoc32_utf8@__crt_mbstring@@YA_KPEA_UPEBD_KPEAU_Mbstatet@@AEAV__crt_cached_ptd_host@@@Z 0000000180158158 f   libucrt:mbrtoc32.obj
 0001:00157334       __dcrt_lowio_ensure_console_output_initialized 0000000180158334 f   libucrt:initcon.obj
 0001:00157388       __dcrt_terminate_console_output 0000000180158388 f   libucrt:initcon.obj
 0001:001573a4       __dcrt_write_console       00000001801583a4 f   libucrt:initcon.obj
 0001:00157464       __acrt_initialize_fmode    0000000180158464 f   libucrt:txtmode.obj
 0001:001575d0       _itow_s                    00000001801585d0 f   libucrt:xtoa.obj
 0001:001575f0       wcscmp                     00000001801585f0 f   libucrt:wcscmp.obj
 0001:00157628       _controlfp_s               0000000180158628 f   libucrt:contrlfp.obj
 0001:0015768c       fegetenv                   000000018015868c f   libucrt:fegetenv.obj
 0001:001576ac       fesetenv                   00000001801586ac f   libucrt:fesetenv.obj
 0001:00157704       feholdexcept               0000000180158704 f   libucrt:feholdexcept.obj
 0001:00157754       ceil                       0000000180158754 f   libucrt:ceil.obj
 0001:00157820       log10                      0000000180158820 f   libucrt:log10.obj
